
thttpd.o:     file format elf64-x86-64


Disassembly of section .text:

0000000000000000 <handle_hup>:
       0:	c7 05 00 00 00 00 01 	movl   $0x1,0x0(%rip)        # a <handle_hup+0xa>
       7:	00 00 00 
       a:	c3                   	retq   
       b:	0f 1f 44 00 00       	nopl   0x0(%rax,%rax,1)

0000000000000010 <thttpd_logstats>:
      10:	48 83 ec 08          	sub    $0x8,%rsp
      14:	48 85 ff             	test   %rdi,%rdi
      17:	7e 5a                	jle    73 <thttpd_logstats+0x63>
      19:	4c 8b 05 00 00 00 00 	mov    0x0(%rip),%r8        # 20 <thttpd_logstats+0x10>
      20:	66 0f ef d2          	pxor   %xmm2,%xmm2
      24:	48 8b 15 00 00 00 00 	mov    0x0(%rip),%rdx        # 2b <thttpd_logstats+0x1b>
      2b:	66 0f ef c9          	pxor   %xmm1,%xmm1
      2f:	66 0f ef c0          	pxor   %xmm0,%xmm0
      33:	44 8b 0d 00 00 00 00 	mov    0x0(%rip),%r9d        # 3a <thttpd_logstats+0x2a>
      3a:	f3 48 0f 2a d7       	cvtsi2ss %rdi,%xmm2
      3f:	8b 0d 00 00 00 00    	mov    0x0(%rip),%ecx        # 45 <thttpd_logstats+0x35>
      45:	be 00 00 00 00       	mov    $0x0,%esi
      4a:	bf 06 00 00 00       	mov    $0x6,%edi
      4f:	f3 49 0f 2a c8       	cvtsi2ss %r8,%xmm1
      54:	b8 02 00 00 00       	mov    $0x2,%eax
      59:	f3 48 0f 2a c2       	cvtsi2ss %rdx,%xmm0
      5e:	f3 0f 5e ca          	divss  %xmm2,%xmm1
      62:	f3 0f 5e c2          	divss  %xmm2,%xmm0
      66:	f3 0f 5a c9          	cvtss2sd %xmm1,%xmm1
      6a:	f3 0f 5a c0          	cvtss2sd %xmm0,%xmm0
      6e:	e8 00 00 00 00       	callq  73 <thttpd_logstats+0x63>
      73:	48 c7 05 00 00 00 00 	movq   $0x0,0x0(%rip)        # 7e <thttpd_logstats+0x6e>
      7a:	00 00 00 00 
      7e:	48 c7 05 00 00 00 00 	movq   $0x0,0x0(%rip)        # 89 <thttpd_logstats+0x79>
      85:	00 00 00 00 
      89:	c7 05 00 00 00 00 00 	movl   $0x0,0x0(%rip)        # 93 <thttpd_logstats+0x83>
      90:	00 00 00 
      93:	48 83 c4 08          	add    $0x8,%rsp
      97:	c3                   	retq   
      98:	0f 1f 84 00 00 00 00 	nopl   0x0(%rax,%rax,1)
      9f:	00 

00000000000000a0 <update_throttles>:
      a0:	44 8b 05 00 00 00 00 	mov    0x0(%rip),%r8d        # a7 <update_throttles+0x7>
      a7:	41 54                	push   %r12
      a9:	49 bc 56 55 55 55 55 	movabs $0x5555555555555556,%r12
      b0:	55 55 55 
      b3:	55                   	push   %rbp
      b4:	31 ed                	xor    %ebp,%ebp
      b6:	53                   	push   %rbx
      b7:	31 db                	xor    %ebx,%ebx
      b9:	45 85 c0             	test   %r8d,%r8d
      bc:	7f 75                	jg     133 <update_throttles+0x93>
      be:	e9 ed 00 00 00       	jmpq   1b0 <update_throttles+0x110>
      c3:	0f 1f 44 00 00       	nopl   0x0(%rax,%rax,1)
      c8:	48 83 ec 08          	sub    $0x8,%rsp
      cc:	48 8b 09             	mov    (%rcx),%rcx
      cf:	89 da                	mov    %ebx,%edx
      d1:	50                   	push   %rax
      d2:	be 00 00 00 00       	mov    $0x0,%esi
      d7:	bf 05 00 00 00       	mov    $0x5,%edi
      dc:	31 c0                	xor    %eax,%eax
      de:	e8 00 00 00 00       	callq  e3 <update_throttles+0x43>
      e3:	48 89 e9             	mov    %rbp,%rcx
      e6:	48 03 0d 00 00 00 00 	add    0x0(%rip),%rcx        # ed <update_throttles+0x4d>
      ed:	5e                   	pop    %rsi
      ee:	5f                   	pop    %rdi
      ef:	4c 8b 41 18          	mov    0x18(%rcx),%r8
      f3:	4c 8b 49 10          	mov    0x10(%rcx),%r9
      f7:	4d 39 c1             	cmp    %r8,%r9
      fa:	7e 24                	jle    120 <update_throttles+0x80>
      fc:	8b 41 28             	mov    0x28(%rcx),%eax
      ff:	85 c0                	test   %eax,%eax
     101:	74 1d                	je     120 <update_throttles+0x80>
     103:	48 83 ec 08          	sub    $0x8,%rsp
     107:	48 8b 09             	mov    (%rcx),%rcx
     10a:	89 da                	mov    %ebx,%edx
     10c:	50                   	push   %rax
     10d:	be 00 00 00 00       	mov    $0x0,%esi
     112:	31 c0                	xor    %eax,%eax
     114:	bf 05 00 00 00       	mov    $0x5,%edi
     119:	e8 00 00 00 00       	callq  11e <update_throttles+0x7e>
     11e:	58                   	pop    %rax
     11f:	5a                   	pop    %rdx
     120:	83 c3 01             	add    $0x1,%ebx
     123:	48 83 c5 30          	add    $0x30,%rbp
     127:	39 1d 00 00 00 00    	cmp    %ebx,0x0(%rip)        # 12d <update_throttles+0x8d>
     12d:	0f 8e 7d 00 00 00    	jle    1b0 <update_throttles+0x110>
     133:	48 89 e9             	mov    %rbp,%rcx
     136:	48 03 0d 00 00 00 00 	add    0x0(%rip),%rcx        # 13d <update_throttles+0x9d>
     13d:	48 8b 41 20          	mov    0x20(%rcx),%rax
     141:	48 8b 51 18          	mov    0x18(%rcx),%rdx
     145:	4c 8b 49 08          	mov    0x8(%rcx),%r9
     149:	48 c7 41 20 00 00 00 	movq   $0x0,0x20(%rcx)
     150:	00 
     151:	48 89 c6             	mov    %rax,%rsi
     154:	48 c1 ee 3f          	shr    $0x3f,%rsi
     158:	48 01 f0             	add    %rsi,%rax
     15b:	48 d1 f8             	sar    %rax
     15e:	48 8d 34 50          	lea    (%rax,%rdx,2),%rsi
     162:	48 89 f0             	mov    %rsi,%rax
     165:	48 c1 fe 3f          	sar    $0x3f,%rsi
     169:	49 f7 ec             	imul   %r12
     16c:	48 29 f2             	sub    %rsi,%rdx
     16f:	4c 39 ca             	cmp    %r9,%rdx
     172:	49 89 d0             	mov    %rdx,%r8
     175:	48 89 51 18          	mov    %rdx,0x18(%rcx)
     179:	0f 8e 74 ff ff ff    	jle    f3 <update_throttles+0x53>
     17f:	8b 41 28             	mov    0x28(%rcx),%eax
     182:	85 c0                	test   %eax,%eax
     184:	74 9a                	je     120 <update_throttles+0x80>
     186:	4b 8d 14 09          	lea    (%r9,%r9,1),%rdx
     18a:	49 39 d0             	cmp    %rdx,%r8
     18d:	0f 8f 35 ff ff ff    	jg     c8 <update_throttles+0x28>
     193:	48 83 ec 08          	sub    $0x8,%rsp
     197:	48 8b 09             	mov    (%rcx),%rcx
     19a:	89 da                	mov    %ebx,%edx
     19c:	50                   	push   %rax
     19d:	be 00 00 00 00       	mov    $0x0,%esi
     1a2:	bf 06 00 00 00       	mov    $0x6,%edi
     1a7:	e9 30 ff ff ff       	jmpq   dc <update_throttles+0x3c>
     1ac:	0f 1f 40 00          	nopl   0x0(%rax)
     1b0:	8b 05 00 00 00 00    	mov    0x0(%rip),%eax        # 1b6 <update_throttles+0x116>
     1b6:	85 c0                	test   %eax,%eax
     1b8:	0f 8e a7 00 00 00    	jle    265 <update_throttles+0x1c5>
     1be:	83 e8 01             	sub    $0x1,%eax
     1c1:	48 8b 35 00 00 00 00 	mov    0x0(%rip),%rsi        # 1c8 <update_throttles+0x128>
     1c8:	4c 8b 15 00 00 00 00 	mov    0x0(%rip),%r10        # 1cf <update_throttles+0x12f>
     1cf:	4c 8d 5c c0 09       	lea    0x9(%rax,%rax,8),%r11
     1d4:	49 c1 e3 04          	shl    $0x4,%r11
     1d8:	49 01 f3             	add    %rsi,%r11
     1db:	eb 0f                	jmp    1ec <update_throttles+0x14c>
     1dd:	0f 1f 00             	nopl   (%rax)
     1e0:	48 81 c6 90 00 00 00 	add    $0x90,%rsi
     1e7:	4c 39 de             	cmp    %r11,%rsi
     1ea:	74 79                	je     265 <update_throttles+0x1c5>
     1ec:	8b 06                	mov    (%rsi),%eax
     1ee:	83 e8 02             	sub    $0x2,%eax
     1f1:	83 f8 01             	cmp    $0x1,%eax
     1f4:	77 ea                	ja     1e0 <update_throttles+0x140>
     1f6:	8b 46 38             	mov    0x38(%rsi),%eax
     1f9:	48 c7 46 40 ff ff ff 	movq   $0xffffffffffffffff,0x40(%rsi)
     200:	ff 
     201:	85 c0                	test   %eax,%eax
     203:	7e db                	jle    1e0 <update_throttles+0x140>
     205:	83 e8 01             	sub    $0x1,%eax
     208:	48 8d 4e 10          	lea    0x10(%rsi),%rcx
     20c:	48 c7 c7 ff ff ff ff 	mov    $0xffffffffffffffff,%rdi
     213:	4c 8d 4c 86 14       	lea    0x14(%rsi,%rax,4),%r9
     218:	eb 0a                	jmp    224 <update_throttles+0x184>
     21a:	66 0f 1f 44 00 00    	nopw   0x0(%rax,%rax,1)
     220:	48 8b 7e 40          	mov    0x40(%rsi),%rdi
     224:	48 63 01             	movslq (%rcx),%rax
     227:	48 8d 04 40          	lea    (%rax,%rax,2),%rax
     22b:	48 c1 e0 04          	shl    $0x4,%rax
     22f:	4c 01 d0             	add    %r10,%rax
     232:	4c 63 40 28          	movslq 0x28(%rax),%r8
     236:	48 8b 40 08          	mov    0x8(%rax),%rax
     23a:	48 99                	cqto   
     23c:	49 f7 f8             	idiv   %r8
     23f:	48 83 ff ff          	cmp    $0xffffffffffffffff,%rdi
     243:	74 07                	je     24c <update_throttles+0x1ac>
     245:	48 39 f8             	cmp    %rdi,%rax
     248:	48 0f 4f c7          	cmovg  %rdi,%rax
     24c:	48 83 c1 04          	add    $0x4,%rcx
     250:	48 89 46 40          	mov    %rax,0x40(%rsi)
     254:	4c 39 c9             	cmp    %r9,%rcx
     257:	75 c7                	jne    220 <update_throttles+0x180>
     259:	48 81 c6 90 00 00 00 	add    $0x90,%rsi
     260:	4c 39 de             	cmp    %r11,%rsi
     263:	75 87                	jne    1ec <update_throttles+0x14c>
     265:	5b                   	pop    %rbx
     266:	5d                   	pop    %rbp
     267:	41 5c                	pop    %r12
     269:	c3                   	retq   
     26a:	66 0f 1f 44 00 00    	nopw   0x0(%rax,%rax,1)

0000000000000270 <no_value_required>:
     270:	48 85 f6             	test   %rsi,%rsi
     273:	75 02                	jne    277 <no_value_required+0x7>
     275:	f3 c3                	repz retq 
     277:	48 89 f9             	mov    %rdi,%rcx
     27a:	50                   	push   %rax
     27b:	48 8b 3d 00 00 00 00 	mov    0x0(%rip),%rdi        # 282 <no_value_required+0x12>
     282:	48 8b 15 00 00 00 00 	mov    0x0(%rip),%rdx        # 289 <no_value_required+0x19>
     289:	be 00 00 00 00       	mov    $0x0,%esi
     28e:	31 c0                	xor    %eax,%eax
     290:	e8 00 00 00 00       	callq  295 <no_value_required+0x25>
     295:	bf 01 00 00 00       	mov    $0x1,%edi
     29a:	e8 00 00 00 00       	callq  29f <no_value_required+0x2f>
     29f:	90                   	nop

00000000000002a0 <value_required>:
     2a0:	48 85 f6             	test   %rsi,%rsi
     2a3:	74 02                	je     2a7 <value_required+0x7>
     2a5:	f3 c3                	repz retq 
     2a7:	48 89 f9             	mov    %rdi,%rcx
     2aa:	50                   	push   %rax
     2ab:	48 8b 3d 00 00 00 00 	mov    0x0(%rip),%rdi        # 2b2 <value_required+0x12>
     2b2:	48 8b 15 00 00 00 00 	mov    0x0(%rip),%rdx        # 2b9 <value_required+0x19>
     2b9:	be 00 00 00 00       	mov    $0x0,%esi
     2be:	31 c0                	xor    %eax,%eax
     2c0:	e8 00 00 00 00       	callq  2c5 <value_required+0x25>
     2c5:	bf 01 00 00 00       	mov    $0x1,%edi
     2ca:	e8 00 00 00 00       	callq  2cf <value_required+0x2f>
     2cf:	90                   	nop

00000000000002d0 <wakeup_connection>:
     2d0:	83 3f 03             	cmpl   $0x3,(%rdi)
     2d3:	48 c7 47 60 00 00 00 	movq   $0x0,0x60(%rdi)
     2da:	00 
     2db:	74 03                	je     2e0 <wakeup_connection+0x10>
     2dd:	f3 c3                	repz retq 
     2df:	90                   	nop
     2e0:	48 8b 47 08          	mov    0x8(%rdi),%rax
     2e4:	c7 07 02 00 00 00    	movl   $0x2,(%rdi)
     2ea:	48 89 fe             	mov    %rdi,%rsi
     2ed:	ba 01 00 00 00       	mov    $0x1,%edx
     2f2:	8b 80 c0 02 00 00    	mov    0x2c0(%rax),%eax
     2f8:	89 c7                	mov    %eax,%edi
     2fa:	e9 00 00 00 00       	jmpq   2ff <wakeup_connection+0x2f>
     2ff:	90                   	nop

0000000000000300 <logstats>:
     300:	53                   	push   %rbx
     301:	48 83 ec 10          	sub    $0x10,%rsp
     305:	48 85 ff             	test   %rdi,%rdi
     308:	74 6e                	je     378 <logstats+0x78>
     30a:	48 8b 07             	mov    (%rdi),%rax
     30d:	b9 01 00 00 00       	mov    $0x1,%ecx
     312:	be 00 00 00 00       	mov    $0x0,%esi
     317:	bf 06 00 00 00       	mov    $0x6,%edi
     31c:	48 89 c2             	mov    %rax,%rdx
     31f:	48 89 c3             	mov    %rax,%rbx
     322:	48 2b 15 00 00 00 00 	sub    0x0(%rip),%rdx        # 329 <logstats+0x29>
     329:	48 2b 1d 00 00 00 00 	sub    0x0(%rip),%rbx        # 330 <logstats+0x30>
     330:	48 89 05 00 00 00 00 	mov    %rax,0x0(%rip)        # 337 <logstats+0x37>
     337:	48 0f 44 d9          	cmove  %rcx,%rbx
     33b:	31 c0                	xor    %eax,%eax
     33d:	48 89 d9             	mov    %rbx,%rcx
     340:	e8 00 00 00 00       	callq  345 <logstats+0x45>
     345:	48 89 df             	mov    %rbx,%rdi
     348:	e8 c3 fc ff ff       	callq  10 <thttpd_logstats>
     34d:	48 89 df             	mov    %rbx,%rdi
     350:	e8 00 00 00 00       	callq  355 <logstats+0x55>
     355:	48 89 df             	mov    %rbx,%rdi
     358:	e8 00 00 00 00       	callq  35d <logstats+0x5d>
     35d:	48 89 df             	mov    %rbx,%rdi
     360:	e8 00 00 00 00       	callq  365 <logstats+0x65>
     365:	48 89 df             	mov    %rbx,%rdi
     368:	e8 00 00 00 00       	callq  36d <logstats+0x6d>
     36d:	48 83 c4 10          	add    $0x10,%rsp
     371:	5b                   	pop    %rbx
     372:	c3                   	retq   
     373:	0f 1f 44 00 00       	nopl   0x0(%rax,%rax,1)
     378:	48 89 e7             	mov    %rsp,%rdi
     37b:	31 f6                	xor    %esi,%esi
     37d:	e8 00 00 00 00       	callq  382 <logstats+0x82>
     382:	48 89 e7             	mov    %rsp,%rdi
     385:	eb 83                	jmp    30a <logstats+0xa>
     387:	66 0f 1f 84 00 00 00 	nopw   0x0(%rax,%rax,1)
     38e:	00 00 

0000000000000390 <show_stats>:
     390:	48 89 f7             	mov    %rsi,%rdi
     393:	e9 68 ff ff ff       	jmpq   300 <logstats>
     398:	0f 1f 84 00 00 00 00 	nopl   0x0(%rax,%rax,1)
     39f:	00 

00000000000003a0 <handle_usr2>:
     3a0:	55                   	push   %rbp
     3a1:	53                   	push   %rbx
     3a2:	48 83 ec 08          	sub    $0x8,%rsp
     3a6:	e8 00 00 00 00       	callq  3ab <handle_usr2+0xb>
     3ab:	8b 28                	mov    (%rax),%ebp
     3ad:	48 89 c3             	mov    %rax,%rbx
     3b0:	31 ff                	xor    %edi,%edi
     3b2:	e8 49 ff ff ff       	callq  300 <logstats>
     3b7:	89 2b                	mov    %ebp,(%rbx)
     3b9:	48 83 c4 08          	add    $0x8,%rsp
     3bd:	5b                   	pop    %rbx
     3be:	5d                   	pop    %rbp
     3bf:	c3                   	retq   

00000000000003c0 <occasional>:
     3c0:	48 83 ec 08          	sub    $0x8,%rsp
     3c4:	48 89 f7             	mov    %rsi,%rdi
     3c7:	e8 00 00 00 00       	callq  3cc <occasional+0xc>
     3cc:	e8 00 00 00 00       	callq  3d1 <occasional+0x11>
     3d1:	c7 05 00 00 00 00 01 	movl   $0x1,0x0(%rip)        # 3db <occasional+0x1b>
     3d8:	00 00 00 
     3db:	48 83 c4 08          	add    $0x8,%rsp
     3df:	c3                   	retq   

00000000000003e0 <handle_alrm>:
     3e0:	55                   	push   %rbp
     3e1:	53                   	push   %rbx
     3e2:	48 83 ec 08          	sub    $0x8,%rsp
     3e6:	e8 00 00 00 00       	callq  3eb <handle_alrm+0xb>
     3eb:	48 89 c3             	mov    %rax,%rbx
     3ee:	8b 28                	mov    (%rax),%ebp
     3f0:	8b 05 00 00 00 00    	mov    0x0(%rip),%eax        # 3f6 <handle_alrm+0x16>
     3f6:	85 c0                	test   %eax,%eax
     3f8:	74 1d                	je     417 <handle_alrm+0x37>
     3fa:	bf 68 01 00 00       	mov    $0x168,%edi
     3ff:	c7 05 00 00 00 00 00 	movl   $0x0,0x0(%rip)        # 409 <handle_alrm+0x29>
     406:	00 00 00 
     409:	e8 00 00 00 00       	callq  40e <handle_alrm+0x2e>
     40e:	89 2b                	mov    %ebp,(%rbx)
     410:	48 83 c4 08          	add    $0x8,%rsp
     414:	5b                   	pop    %rbx
     415:	5d                   	pop    %rbp
     416:	c3                   	retq   
     417:	bf 00 00 00 00       	mov    $0x0,%edi
     41c:	e8 00 00 00 00       	callq  421 <handle_alrm+0x41>
     421:	e8 00 00 00 00       	callq  426 <handle_alrm+0x46>
     426:	66 2e 0f 1f 84 00 00 	nopw   %cs:0x0(%rax,%rax,1)
     42d:	00 00 00 

0000000000000430 <handle_chld>:
     430:	41 54                	push   %r12
     432:	55                   	push   %rbp
     433:	31 ed                	xor    %ebp,%ebp
     435:	53                   	push   %rbx
     436:	48 83 ec 10          	sub    $0x10,%rsp
     43a:	e8 00 00 00 00       	callq  43f <handle_chld+0xf>
     43f:	44 8b 20             	mov    (%rax),%r12d
     442:	48 89 c3             	mov    %rax,%rbx
     445:	0f 1f 00             	nopl   (%rax)
     448:	48 8d 74 24 0c       	lea    0xc(%rsp),%rsi
     44d:	ba 01 00 00 00       	mov    $0x1,%edx
     452:	bf ff ff ff ff       	mov    $0xffffffff,%edi
     457:	e8 00 00 00 00       	callq  45c <handle_chld+0x2c>
     45c:	85 c0                	test   %eax,%eax
     45e:	74 42                	je     4a2 <handle_chld+0x72>
     460:	78 1e                	js     480 <handle_chld+0x50>
     462:	48 8b 15 00 00 00 00 	mov    0x0(%rip),%rdx        # 469 <handle_chld+0x39>
     469:	48 85 d2             	test   %rdx,%rdx
     46c:	74 da                	je     448 <handle_chld+0x18>
     46e:	8b 42 24             	mov    0x24(%rdx),%eax
     471:	83 e8 01             	sub    $0x1,%eax
     474:	0f 48 c5             	cmovs  %ebp,%eax
     477:	89 42 24             	mov    %eax,0x24(%rdx)
     47a:	eb cc                	jmp    448 <handle_chld+0x18>
     47c:	0f 1f 40 00          	nopl   0x0(%rax)
     480:	8b 03                	mov    (%rbx),%eax
     482:	83 f8 04             	cmp    $0x4,%eax
     485:	74 c1                	je     448 <handle_chld+0x18>
     487:	83 f8 0b             	cmp    $0xb,%eax
     48a:	74 bc                	je     448 <handle_chld+0x18>
     48c:	83 f8 0a             	cmp    $0xa,%eax
     48f:	74 11                	je     4a2 <handle_chld+0x72>
     491:	be 00 00 00 00       	mov    $0x0,%esi
     496:	bf 03 00 00 00       	mov    $0x3,%edi
     49b:	31 c0                	xor    %eax,%eax
     49d:	e8 00 00 00 00       	callq  4a2 <handle_chld+0x72>
     4a2:	44 89 23             	mov    %r12d,(%rbx)
     4a5:	48 83 c4 10          	add    $0x10,%rsp
     4a9:	5b                   	pop    %rbx
     4aa:	5d                   	pop    %rbp
     4ab:	41 5c                	pop    %r12
     4ad:	c3                   	retq   
     4ae:	66 90                	xchg   %ax,%ax

00000000000004b0 <e_strdup>:
     4b0:	48 83 ec 08          	sub    $0x8,%rsp
     4b4:	e8 00 00 00 00       	callq  4b9 <e_strdup+0x9>
     4b9:	48 85 c0             	test   %rax,%rax
     4bc:	74 05                	je     4c3 <e_strdup+0x13>
     4be:	48 83 c4 08          	add    $0x8,%rsp
     4c2:	c3                   	retq   
     4c3:	be 00 00 00 00       	mov    $0x0,%esi
     4c8:	bf 02 00 00 00       	mov    $0x2,%edi
     4cd:	e8 00 00 00 00       	callq  4d2 <e_strdup+0x22>
     4d2:	48 8b 3d 00 00 00 00 	mov    0x0(%rip),%rdi        # 4d9 <e_strdup+0x29>
     4d9:	48 8b 15 00 00 00 00 	mov    0x0(%rip),%rdx        # 4e0 <e_strdup+0x30>
     4e0:	be 00 00 00 00       	mov    $0x0,%esi
     4e5:	31 c0                	xor    %eax,%eax
     4e7:	e8 00 00 00 00       	callq  4ec <e_strdup+0x3c>
     4ec:	bf 01 00 00 00       	mov    $0x1,%edi
     4f1:	e8 00 00 00 00       	callq  4f6 <e_strdup+0x46>
     4f6:	66 2e 0f 1f 84 00 00 	nopw   %cs:0x0(%rax,%rax,1)
     4fd:	00 00 00 

0000000000000500 <read_config>:
     500:	41 56                	push   %r14
     502:	41 55                	push   %r13
     504:	be 00 00 00 00       	mov    $0x0,%esi
     509:	41 54                	push   %r12
     50b:	55                   	push   %rbp
     50c:	53                   	push   %rbx
     50d:	48 89 fb             	mov    %rdi,%rbx
     510:	48 83 ec 70          	sub    $0x70,%rsp
     514:	e8 00 00 00 00       	callq  519 <read_config+0x19>
     519:	48 85 c0             	test   %rax,%rax
     51c:	0f 84 86 05 00 00    	je     aa8 <read_config+0x5a8>
     522:	49 89 c4             	mov    %rax,%r12
     525:	49 be 00 26 00 00 01 	movabs $0x100002600,%r14
     52c:	00 00 00 
     52f:	4c 89 e2             	mov    %r12,%rdx
     532:	be e8 03 00 00       	mov    $0x3e8,%esi
     537:	48 89 e7             	mov    %rsp,%rdi
     53a:	e8 00 00 00 00       	callq  53f <read_config+0x3f>
     53f:	48 85 c0             	test   %rax,%rax
     542:	0f 84 6f 04 00 00    	je     9b7 <read_config+0x4b7>
     548:	be 23 00 00 00       	mov    $0x23,%esi
     54d:	48 89 e7             	mov    %rsp,%rdi
     550:	e8 00 00 00 00       	callq  555 <read_config+0x55>
     555:	48 85 c0             	test   %rax,%rax
     558:	74 03                	je     55d <read_config+0x5d>
     55a:	c6 00 00             	movb   $0x0,(%rax)
     55d:	be 00 00 00 00       	mov    $0x0,%esi
     562:	48 89 e7             	mov    %rsp,%rdi
     565:	e8 00 00 00 00       	callq  56a <read_config+0x6a>
     56a:	48 8d 2c 04          	lea    (%rsp,%rax,1),%rbp
     56e:	80 7d 00 00          	cmpb   $0x0,0x0(%rbp)
     572:	0f 85 93 02 00 00    	jne    80b <read_config+0x30b>
     578:	eb b5                	jmp    52f <read_config+0x2f>
     57a:	66 0f 1f 44 00 00    	nopw   0x0(%rax,%rax,1)
     580:	be 3d 00 00 00       	mov    $0x3d,%esi
     585:	48 89 ef             	mov    %rbp,%rdi
     588:	e8 00 00 00 00       	callq  58d <read_config+0x8d>
     58d:	48 85 c0             	test   %rax,%rax
     590:	0f 84 03 03 00 00    	je     899 <read_config+0x399>
     596:	4c 8d 68 01          	lea    0x1(%rax),%r13
     59a:	c6 00 00             	movb   $0x0,(%rax)
     59d:	be 00 00 00 00       	mov    $0x0,%esi
     5a2:	48 89 ef             	mov    %rbp,%rdi
     5a5:	e8 00 00 00 00       	callq  5aa <read_config+0xaa>
     5aa:	85 c0                	test   %eax,%eax
     5ac:	0f 84 ae 02 00 00    	je     860 <read_config+0x360>
     5b2:	be 00 00 00 00       	mov    $0x0,%esi
     5b7:	48 89 ef             	mov    %rbp,%rdi
     5ba:	e8 00 00 00 00       	callq  5bf <read_config+0xbf>
     5bf:	85 c0                	test   %eax,%eax
     5c1:	0f 84 b3 02 00 00    	je     87a <read_config+0x37a>
     5c7:	be 00 00 00 00       	mov    $0x0,%esi
     5cc:	48 89 ef             	mov    %rbp,%rdi
     5cf:	e8 00 00 00 00       	callq  5d4 <read_config+0xd4>
     5d4:	85 c0                	test   %eax,%eax
     5d6:	0f 84 c5 02 00 00    	je     8a1 <read_config+0x3a1>
     5dc:	be 00 00 00 00       	mov    $0x0,%esi
     5e1:	48 89 ef             	mov    %rbp,%rdi
     5e4:	e8 00 00 00 00       	callq  5e9 <read_config+0xe9>
     5e9:	85 c0                	test   %eax,%eax
     5eb:	0f 84 cf 02 00 00    	je     8c0 <read_config+0x3c0>
     5f1:	be 00 00 00 00       	mov    $0x0,%esi
     5f6:	48 89 ef             	mov    %rbp,%rdi
     5f9:	e8 00 00 00 00       	callq  5fe <read_config+0xfe>
     5fe:	85 c0                	test   %eax,%eax
     600:	0f 84 de 02 00 00    	je     8e4 <read_config+0x3e4>
     606:	be 00 00 00 00       	mov    $0x0,%esi
     60b:	48 89 ef             	mov    %rbp,%rdi
     60e:	e8 00 00 00 00       	callq  613 <read_config+0x113>
     613:	85 c0                	test   %eax,%eax
     615:	0f 84 07 03 00 00    	je     922 <read_config+0x422>
     61b:	be 00 00 00 00       	mov    $0x0,%esi
     620:	48 89 ef             	mov    %rbp,%rdi
     623:	e8 00 00 00 00       	callq  628 <read_config+0x128>
     628:	85 c0                	test   %eax,%eax
     62a:	0f 84 d8 02 00 00    	je     908 <read_config+0x408>
     630:	be 00 00 00 00       	mov    $0x0,%esi
     635:	48 89 ef             	mov    %rbp,%rdi
     638:	e8 00 00 00 00       	callq  63d <read_config+0x13d>
     63d:	85 c0                	test   %eax,%eax
     63f:	0f 84 fc 02 00 00    	je     941 <read_config+0x441>
     645:	be 00 00 00 00       	mov    $0x0,%esi
     64a:	48 89 ef             	mov    %rbp,%rdi
     64d:	e8 00 00 00 00       	callq  652 <read_config+0x152>
     652:	85 c0                	test   %eax,%eax
     654:	0f 84 ae 02 00 00    	je     908 <read_config+0x408>
     65a:	be 00 00 00 00       	mov    $0x0,%esi
     65f:	48 89 ef             	mov    %rbp,%rdi
     662:	e8 00 00 00 00       	callq  667 <read_config+0x167>
     667:	85 c0                	test   %eax,%eax
     669:	0f 84 d2 02 00 00    	je     941 <read_config+0x441>
     66f:	be 00 00 00 00       	mov    $0x0,%esi
     674:	48 89 ef             	mov    %rbp,%rdi
     677:	e8 00 00 00 00       	callq  67c <read_config+0x17c>
     67c:	85 c0                	test   %eax,%eax
     67e:	0f 84 d7 02 00 00    	je     95b <read_config+0x45b>
     684:	be 00 00 00 00       	mov    $0x0,%esi
     689:	48 89 ef             	mov    %rbp,%rdi
     68c:	e8 00 00 00 00       	callq  691 <read_config+0x191>
     691:	85 c0                	test   %eax,%eax
     693:	0f 84 ff 02 00 00    	je     998 <read_config+0x498>
     699:	be 00 00 00 00       	mov    $0x0,%esi
     69e:	48 89 ef             	mov    %rbp,%rdi
     6a1:	e8 00 00 00 00       	callq  6a6 <read_config+0x1a6>
     6a6:	85 c0                	test   %eax,%eax
     6a8:	0f 84 cc 02 00 00    	je     97a <read_config+0x47a>
     6ae:	be 00 00 00 00       	mov    $0x0,%esi
     6b3:	48 89 ef             	mov    %rbp,%rdi
     6b6:	e8 00 00 00 00       	callq  6bb <read_config+0x1bb>
     6bb:	85 c0                	test   %eax,%eax
     6bd:	0f 84 23 03 00 00    	je     9e6 <read_config+0x4e6>
     6c3:	be 00 00 00 00       	mov    $0x0,%esi
     6c8:	48 89 ef             	mov    %rbp,%rdi
     6cb:	e8 00 00 00 00       	callq  6d0 <read_config+0x1d0>
     6d0:	85 c0                	test   %eax,%eax
     6d2:	0f 84 f4 02 00 00    	je     9cc <read_config+0x4cc>
     6d8:	be 00 00 00 00       	mov    $0x0,%esi
     6dd:	48 89 ef             	mov    %rbp,%rdi
     6e0:	e8 00 00 00 00       	callq  6e5 <read_config+0x1e5>
     6e5:	85 c0                	test   %eax,%eax
     6e7:	0f 84 18 03 00 00    	je     a05 <read_config+0x505>
     6ed:	be 00 00 00 00       	mov    $0x0,%esi
     6f2:	48 89 ef             	mov    %rbp,%rdi
     6f5:	e8 00 00 00 00       	callq  6fa <read_config+0x1fa>
     6fa:	85 c0                	test   %eax,%eax
     6fc:	0f 84 b8 03 00 00    	je     aba <read_config+0x5ba>
     702:	be 00 00 00 00       	mov    $0x0,%esi
     707:	48 89 ef             	mov    %rbp,%rdi
     70a:	e8 00 00 00 00       	callq  70f <read_config+0x20f>
     70f:	85 c0                	test   %eax,%eax
     711:	0f 84 e1 03 00 00    	je     af8 <read_config+0x5f8>
     717:	be 00 00 00 00       	mov    $0x0,%esi
     71c:	48 89 ef             	mov    %rbp,%rdi
     71f:	e8 00 00 00 00       	callq  724 <read_config+0x224>
     724:	85 c0                	test   %eax,%eax
     726:	0f 84 ad 03 00 00    	je     ad9 <read_config+0x5d9>
     72c:	be 00 00 00 00       	mov    $0x0,%esi
     731:	48 89 ef             	mov    %rbp,%rdi
     734:	e8 00 00 00 00       	callq  739 <read_config+0x239>
     739:	85 c0                	test   %eax,%eax
     73b:	0f 84 24 04 00 00    	je     b65 <read_config+0x665>
     741:	be 00 00 00 00       	mov    $0x0,%esi
     746:	48 89 ef             	mov    %rbp,%rdi
     749:	e8 00 00 00 00       	callq  74e <read_config+0x24e>
     74e:	85 c0                	test   %eax,%eax
     750:	0f 84 f5 03 00 00    	je     b4b <read_config+0x64b>
     756:	be 00 00 00 00       	mov    $0x0,%esi
     75b:	48 89 ef             	mov    %rbp,%rdi
     75e:	e8 00 00 00 00       	callq  763 <read_config+0x263>
     763:	85 c0                	test   %eax,%eax
     765:	0f 84 c6 03 00 00    	je     b31 <read_config+0x631>
     76b:	be 00 00 00 00       	mov    $0x0,%esi
     770:	48 89 ef             	mov    %rbp,%rdi
     773:	e8 00 00 00 00       	callq  778 <read_config+0x278>
     778:	85 c0                	test   %eax,%eax
     77a:	0f 84 97 03 00 00    	je     b17 <read_config+0x617>
     780:	be 00 00 00 00       	mov    $0x0,%esi
     785:	48 89 ef             	mov    %rbp,%rdi
     788:	e8 00 00 00 00       	callq  78d <read_config+0x28d>
     78d:	85 c0                	test   %eax,%eax
     78f:	0f 84 f4 02 00 00    	je     a89 <read_config+0x589>
     795:	be 00 00 00 00       	mov    $0x0,%esi
     79a:	48 89 ef             	mov    %rbp,%rdi
     79d:	e8 00 00 00 00       	callq  7a2 <read_config+0x2a2>
     7a2:	85 c0                	test   %eax,%eax
     7a4:	0f 84 c0 02 00 00    	je     a6a <read_config+0x56a>
     7aa:	be 00 00 00 00       	mov    $0x0,%esi
     7af:	48 89 ef             	mov    %rbp,%rdi
     7b2:	e8 00 00 00 00       	callq  7b7 <read_config+0x2b7>
     7b7:	85 c0                	test   %eax,%eax
     7b9:	0f 84 8c 02 00 00    	je     a4b <read_config+0x54b>
     7bf:	be 00 00 00 00       	mov    $0x0,%esi
     7c4:	48 89 ef             	mov    %rbp,%rdi
     7c7:	e8 00 00 00 00       	callq  7cc <read_config+0x2cc>
     7cc:	85 c0                	test   %eax,%eax
     7ce:	0f 85 50 02 00 00    	jne    a24 <read_config+0x524>
     7d4:	4c 89 ee             	mov    %r13,%rsi
     7d7:	48 89 ef             	mov    %rbp,%rdi
     7da:	e8 c1 fa ff ff       	callq  2a0 <value_required>
     7df:	4c 89 ef             	mov    %r13,%rdi
     7e2:	e8 00 00 00 00       	callq  7e7 <read_config+0x2e7>
     7e7:	89 05 00 00 00 00    	mov    %eax,0x0(%rip)        # 7ed <read_config+0x2ed>
     7ed:	0f 1f 00             	nopl   (%rax)
     7f0:	be 00 00 00 00       	mov    $0x0,%esi
     7f5:	48 89 df             	mov    %rbx,%rdi
     7f8:	e8 00 00 00 00       	callq  7fd <read_config+0x2fd>
     7fd:	48 8d 2c 03          	lea    (%rbx,%rax,1),%rbp
     801:	80 7d 00 00          	cmpb   $0x0,0x0(%rbp)
     805:	0f 84 24 fd ff ff    	je     52f <read_config+0x2f>
     80b:	be 00 00 00 00       	mov    $0x0,%esi
     810:	48 89 ef             	mov    %rbp,%rdi
     813:	e8 00 00 00 00       	callq  818 <read_config+0x318>
     818:	48 8d 5c 05 00       	lea    0x0(%rbp,%rax,1),%rbx
     81d:	0f b6 03             	movzbl (%rbx),%eax
     820:	3c 20                	cmp    $0x20,%al
     822:	0f 87 58 fd ff ff    	ja     580 <read_config+0x80>
     828:	49 0f a3 c6          	bt     %rax,%r14
     82c:	0f 83 4e fd ff ff    	jae    580 <read_config+0x80>
     832:	66 0f 1f 44 00 00    	nopw   0x0(%rax,%rax,1)
     838:	48 83 c3 01          	add    $0x1,%rbx
     83c:	0f b6 13             	movzbl (%rbx),%edx
     83f:	c6 43 ff 00          	movb   $0x0,-0x1(%rbx)
     843:	80 fa 20             	cmp    $0x20,%dl
     846:	0f 87 34 fd ff ff    	ja     580 <read_config+0x80>
     84c:	49 0f a3 d6          	bt     %rdx,%r14
     850:	72 e6                	jb     838 <read_config+0x338>
     852:	e9 29 fd ff ff       	jmpq   580 <read_config+0x80>
     857:	66 0f 1f 84 00 00 00 	nopw   0x0(%rax,%rax,1)
     85e:	00 00 
     860:	4c 89 ee             	mov    %r13,%rsi
     863:	48 89 ef             	mov    %rbp,%rdi
     866:	e8 05 fa ff ff       	callq  270 <no_value_required>
     86b:	c7 05 00 00 00 00 01 	movl   $0x1,0x0(%rip)        # 875 <read_config+0x375>
     872:	00 00 00 
     875:	e9 76 ff ff ff       	jmpq   7f0 <read_config+0x2f0>
     87a:	4c 89 ee             	mov    %r13,%rsi
     87d:	48 89 ef             	mov    %rbp,%rdi
     880:	e8 1b fa ff ff       	callq  2a0 <value_required>
     885:	4c 89 ef             	mov    %r13,%rdi
     888:	e8 00 00 00 00       	callq  88d <read_config+0x38d>
     88d:	66 89 05 00 00 00 00 	mov    %ax,0x0(%rip)        # 894 <read_config+0x394>
     894:	e9 57 ff ff ff       	jmpq   7f0 <read_config+0x2f0>
     899:	45 31 ed             	xor    %r13d,%r13d
     89c:	e9 fc fc ff ff       	jmpq   59d <read_config+0x9d>
     8a1:	4c 89 ee             	mov    %r13,%rsi
     8a4:	48 89 ef             	mov    %rbp,%rdi
     8a7:	e8 f4 f9 ff ff       	callq  2a0 <value_required>
     8ac:	4c 89 ef             	mov    %r13,%rdi
     8af:	e8 fc fb ff ff       	callq  4b0 <e_strdup>
     8b4:	48 89 05 00 00 00 00 	mov    %rax,0x0(%rip)        # 8bb <read_config+0x3bb>
     8bb:	e9 30 ff ff ff       	jmpq   7f0 <read_config+0x2f0>
     8c0:	4c 89 ee             	mov    %r13,%rsi
     8c3:	48 89 ef             	mov    %rbp,%rdi
     8c6:	e8 a5 f9 ff ff       	callq  270 <no_value_required>
     8cb:	c7 05 00 00 00 00 01 	movl   $0x1,0x0(%rip)        # 8d5 <read_config+0x3d5>
     8d2:	00 00 00 
     8d5:	c7 05 00 00 00 00 01 	movl   $0x1,0x0(%rip)        # 8df <read_config+0x3df>
     8dc:	00 00 00 
     8df:	e9 0c ff ff ff       	jmpq   7f0 <read_config+0x2f0>
     8e4:	4c 89 ee             	mov    %r13,%rsi
     8e7:	48 89 ef             	mov    %rbp,%rdi
     8ea:	e8 81 f9 ff ff       	callq  270 <no_value_required>
     8ef:	c7 05 00 00 00 00 00 	movl   $0x0,0x0(%rip)        # 8f9 <read_config+0x3f9>
     8f6:	00 00 00 
     8f9:	c7 05 00 00 00 00 00 	movl   $0x0,0x0(%rip)        # 903 <read_config+0x403>
     900:	00 00 00 
     903:	e9 e8 fe ff ff       	jmpq   7f0 <read_config+0x2f0>
     908:	4c 89 ee             	mov    %r13,%rsi
     90b:	48 89 ef             	mov    %rbp,%rdi
     90e:	e8 5d f9 ff ff       	callq  270 <no_value_required>
     913:	c7 05 00 00 00 00 00 	movl   $0x0,0x0(%rip)        # 91d <read_config+0x41d>
     91a:	00 00 00 
     91d:	e9 ce fe ff ff       	jmpq   7f0 <read_config+0x2f0>
     922:	4c 89 ee             	mov    %r13,%rsi
     925:	48 89 ef             	mov    %rbp,%rdi
     928:	e8 73 f9 ff ff       	callq  2a0 <value_required>
     92d:	4c 89 ef             	mov    %r13,%rdi
     930:	e8 7b fb ff ff       	callq  4b0 <e_strdup>
     935:	48 89 05 00 00 00 00 	mov    %rax,0x0(%rip)        # 93c <read_config+0x43c>
     93c:	e9 af fe ff ff       	jmpq   7f0 <read_config+0x2f0>
     941:	4c 89 ee             	mov    %r13,%rsi
     944:	48 89 ef             	mov    %rbp,%rdi
     947:	e8 24 f9 ff ff       	callq  270 <no_value_required>
     94c:	c7 05 00 00 00 00 01 	movl   $0x1,0x0(%rip)        # 956 <read_config+0x456>
     953:	00 00 00 
     956:	e9 95 fe ff ff       	jmpq   7f0 <read_config+0x2f0>
     95b:	4c 89 ee             	mov    %r13,%rsi
     95e:	48 89 ef             	mov    %rbp,%rdi
     961:	e8 3a f9 ff ff       	callq  2a0 <value_required>
     966:	4c 89 ef             	mov    %r13,%rdi
     969:	e8 42 fb ff ff       	callq  4b0 <e_strdup>
     96e:	48 89 05 00 00 00 00 	mov    %rax,0x0(%rip)        # 975 <read_config+0x475>
     975:	e9 76 fe ff ff       	jmpq   7f0 <read_config+0x2f0>
     97a:	4c 89 ee             	mov    %r13,%rsi
     97d:	48 89 ef             	mov    %rbp,%rdi
     980:	e8 1b f9 ff ff       	callq  2a0 <value_required>
     985:	4c 89 ef             	mov    %r13,%rdi
     988:	e8 00 00 00 00       	callq  98d <read_config+0x48d>
     98d:	89 05 00 00 00 00    	mov    %eax,0x0(%rip)        # 993 <read_config+0x493>
     993:	e9 58 fe ff ff       	jmpq   7f0 <read_config+0x2f0>
     998:	4c 89 ee             	mov    %r13,%rsi
     99b:	48 89 ef             	mov    %rbp,%rdi
     99e:	e8 fd f8 ff ff       	callq  2a0 <value_required>
     9a3:	4c 89 ef             	mov    %r13,%rdi
     9a6:	e8 05 fb ff ff       	callq  4b0 <e_strdup>
     9ab:	48 89 05 00 00 00 00 	mov    %rax,0x0(%rip)        # 9b2 <read_config+0x4b2>
     9b2:	e9 39 fe ff ff       	jmpq   7f0 <read_config+0x2f0>
     9b7:	4c 89 e7             	mov    %r12,%rdi
     9ba:	e8 00 00 00 00       	callq  9bf <read_config+0x4bf>
     9bf:	48 83 c4 70          	add    $0x70,%rsp
     9c3:	5b                   	pop    %rbx
     9c4:	5d                   	pop    %rbp
     9c5:	41 5c                	pop    %r12
     9c7:	41 5d                	pop    %r13
     9c9:	41 5e                	pop    %r14
     9cb:	c3                   	retq   
     9cc:	4c 89 ee             	mov    %r13,%rsi
     9cf:	48 89 ef             	mov    %rbp,%rdi
     9d2:	e8 99 f8 ff ff       	callq  270 <no_value_required>
     9d7:	c7 05 00 00 00 00 01 	movl   $0x1,0x0(%rip)        # 9e1 <read_config+0x4e1>
     9de:	00 00 00 
     9e1:	e9 0a fe ff ff       	jmpq   7f0 <read_config+0x2f0>
     9e6:	4c 89 ee             	mov    %r13,%rsi
     9e9:	48 89 ef             	mov    %rbp,%rdi
     9ec:	e8 af f8 ff ff       	callq  2a0 <value_required>
     9f1:	4c 89 ef             	mov    %r13,%rdi
     9f4:	e8 b7 fa ff ff       	callq  4b0 <e_strdup>
     9f9:	48 89 05 00 00 00 00 	mov    %rax,0x0(%rip)        # a00 <read_config+0x500>
     a00:	e9 eb fd ff ff       	jmpq   7f0 <read_config+0x2f0>
     a05:	4c 89 ee             	mov    %r13,%rsi
     a08:	48 89 ef             	mov    %rbp,%rdi
     a0b:	e8 90 f8 ff ff       	callq  2a0 <value_required>
     a10:	4c 89 ef             	mov    %r13,%rdi
     a13:	e8 98 fa ff ff       	callq  4b0 <e_strdup>
     a18:	48 89 05 00 00 00 00 	mov    %rax,0x0(%rip)        # a1f <read_config+0x51f>
     a1f:	e9 cc fd ff ff       	jmpq   7f0 <read_config+0x2f0>
     a24:	48 8b 3d 00 00 00 00 	mov    0x0(%rip),%rdi        # a2b <read_config+0x52b>
     a2b:	48 8b 15 00 00 00 00 	mov    0x0(%rip),%rdx        # a32 <read_config+0x532>
     a32:	48 89 e9             	mov    %rbp,%rcx
     a35:	be 00 00 00 00       	mov    $0x0,%esi
     a3a:	31 c0                	xor    %eax,%eax
     a3c:	e8 00 00 00 00       	callq  a41 <read_config+0x541>
     a41:	bf 01 00 00 00       	mov    $0x1,%edi
     a46:	e8 00 00 00 00       	callq  a4b <read_config+0x54b>
     a4b:	4c 89 ee             	mov    %r13,%rsi
     a4e:	48 89 ef             	mov    %rbp,%rdi
     a51:	e8 4a f8 ff ff       	callq  2a0 <value_required>
     a56:	4c 89 ef             	mov    %r13,%rdi
     a59:	e8 52 fa ff ff       	callq  4b0 <e_strdup>
     a5e:	48 89 05 00 00 00 00 	mov    %rax,0x0(%rip)        # a65 <read_config+0x565>
     a65:	e9 86 fd ff ff       	jmpq   7f0 <read_config+0x2f0>
     a6a:	4c 89 ee             	mov    %r13,%rsi
     a6d:	48 89 ef             	mov    %rbp,%rdi
     a70:	e8 2b f8 ff ff       	callq  2a0 <value_required>
     a75:	4c 89 ef             	mov    %r13,%rdi
     a78:	e8 33 fa ff ff       	callq  4b0 <e_strdup>
     a7d:	48 89 05 00 00 00 00 	mov    %rax,0x0(%rip)        # a84 <read_config+0x584>
     a84:	e9 67 fd ff ff       	jmpq   7f0 <read_config+0x2f0>
     a89:	4c 89 ee             	mov    %r13,%rsi
     a8c:	48 89 ef             	mov    %rbp,%rdi
     a8f:	e8 0c f8 ff ff       	callq  2a0 <value_required>
     a94:	4c 89 ef             	mov    %r13,%rdi
     a97:	e8 14 fa ff ff       	callq  4b0 <e_strdup>
     a9c:	48 89 05 00 00 00 00 	mov    %rax,0x0(%rip)        # aa3 <read_config+0x5a3>
     aa3:	e9 48 fd ff ff       	jmpq   7f0 <read_config+0x2f0>
     aa8:	48 89 df             	mov    %rbx,%rdi
     aab:	e8 00 00 00 00       	callq  ab0 <read_config+0x5b0>
     ab0:	bf 01 00 00 00       	mov    $0x1,%edi
     ab5:	e8 00 00 00 00       	callq  aba <read_config+0x5ba>
     aba:	4c 89 ee             	mov    %r13,%rsi
     abd:	48 89 ef             	mov    %rbp,%rdi
     ac0:	e8 db f7 ff ff       	callq  2a0 <value_required>
     ac5:	4c 89 ef             	mov    %r13,%rdi
     ac8:	e8 e3 f9 ff ff       	callq  4b0 <e_strdup>
     acd:	48 89 05 00 00 00 00 	mov    %rax,0x0(%rip)        # ad4 <read_config+0x5d4>
     ad4:	e9 17 fd ff ff       	jmpq   7f0 <read_config+0x2f0>
     ad9:	4c 89 ee             	mov    %r13,%rsi
     adc:	48 89 ef             	mov    %rbp,%rdi
     adf:	e8 bc f7 ff ff       	callq  2a0 <value_required>
     ae4:	4c 89 ef             	mov    %r13,%rdi
     ae7:	e8 c4 f9 ff ff       	callq  4b0 <e_strdup>
     aec:	48 89 05 00 00 00 00 	mov    %rax,0x0(%rip)        # af3 <read_config+0x5f3>
     af3:	e9 f8 fc ff ff       	jmpq   7f0 <read_config+0x2f0>
     af8:	4c 89 ee             	mov    %r13,%rsi
     afb:	48 89 ef             	mov    %rbp,%rdi
     afe:	e8 9d f7 ff ff       	callq  2a0 <value_required>
     b03:	4c 89 ef             	mov    %r13,%rdi
     b06:	e8 a5 f9 ff ff       	callq  4b0 <e_strdup>
     b0b:	48 89 05 00 00 00 00 	mov    %rax,0x0(%rip)        # b12 <read_config+0x612>
     b12:	e9 d9 fc ff ff       	jmpq   7f0 <read_config+0x2f0>
     b17:	4c 89 ee             	mov    %r13,%rsi
     b1a:	48 89 ef             	mov    %rbp,%rdi
     b1d:	e8 4e f7 ff ff       	callq  270 <no_value_required>
     b22:	c7 05 00 00 00 00 00 	movl   $0x0,0x0(%rip)        # b2c <read_config+0x62c>
     b29:	00 00 00 
     b2c:	e9 bf fc ff ff       	jmpq   7f0 <read_config+0x2f0>
     b31:	4c 89 ee             	mov    %r13,%rsi
     b34:	48 89 ef             	mov    %rbp,%rdi
     b37:	e8 34 f7 ff ff       	callq  270 <no_value_required>
     b3c:	c7 05 00 00 00 00 01 	movl   $0x1,0x0(%rip)        # b46 <read_config+0x646>
     b43:	00 00 00 
     b46:	e9 a5 fc ff ff       	jmpq   7f0 <read_config+0x2f0>
     b4b:	4c 89 ee             	mov    %r13,%rsi
     b4e:	48 89 ef             	mov    %rbp,%rdi
     b51:	e8 1a f7 ff ff       	callq  270 <no_value_required>
     b56:	c7 05 00 00 00 00 00 	movl   $0x0,0x0(%rip)        # b60 <read_config+0x660>
     b5d:	00 00 00 
     b60:	e9 8b fc ff ff       	jmpq   7f0 <read_config+0x2f0>
     b65:	4c 89 ee             	mov    %r13,%rsi
     b68:	48 89 ef             	mov    %rbp,%rdi
     b6b:	e8 00 f7 ff ff       	callq  270 <no_value_required>
     b70:	c7 05 00 00 00 00 01 	movl   $0x1,0x0(%rip)        # b7a <read_config+0x67a>
     b77:	00 00 00 
     b7a:	e9 71 fc ff ff       	jmpq   7f0 <read_config+0x2f0>
     b7f:	90                   	nop

0000000000000b80 <parse_args>:
     b80:	41 57                	push   %r15
     b82:	41 56                	push   %r14
     b84:	b8 50 00 00 00       	mov    $0x50,%eax
     b89:	41 55                	push   %r13
     b8b:	41 54                	push   %r12
     b8d:	41 89 fd             	mov    %edi,%r13d
     b90:	55                   	push   %rbp
     b91:	53                   	push   %rbx
     b92:	48 83 ec 08          	sub    $0x8,%rsp
     b96:	83 ff 01             	cmp    $0x1,%edi
     b99:	c7 05 00 00 00 00 00 	movl   $0x0,0x0(%rip)        # ba3 <parse_args+0x23>
     ba0:	00 00 00 
     ba3:	66 89 05 00 00 00 00 	mov    %ax,0x0(%rip)        # baa <parse_args+0x2a>
     baa:	48 c7 05 00 00 00 00 	movq   $0x0,0x0(%rip)        # bb5 <parse_args+0x35>
     bb1:	00 00 00 00 
     bb5:	48 c7 05 00 00 00 00 	movq   $0x0,0x0(%rip)        # bc0 <parse_args+0x40>
     bbc:	00 00 00 00 
     bc0:	c7 05 00 00 00 00 00 	movl   $0x0,0x0(%rip)        # bca <parse_args+0x4a>
     bc7:	00 00 00 
     bca:	c7 05 00 00 00 00 00 	movl   $0x0,0x0(%rip)        # bd4 <parse_args+0x54>
     bd1:	00 00 00 
     bd4:	c7 05 00 00 00 00 00 	movl   $0x0,0x0(%rip)        # bde <parse_args+0x5e>
     bdb:	00 00 00 
     bde:	c7 05 00 00 00 00 00 	movl   $0x0,0x0(%rip)        # be8 <parse_args+0x68>
     be5:	00 00 00 
     be8:	c7 05 00 00 00 00 00 	movl   $0x0,0x0(%rip)        # bf2 <parse_args+0x72>
     bef:	00 00 00 
     bf2:	48 c7 05 00 00 00 00 	movq   $0x0,0x0(%rip)        # bfd <parse_args+0x7d>
     bf9:	00 00 00 00 
     bfd:	c7 05 00 00 00 00 00 	movl   $0x0,0x0(%rip)        # c07 <parse_args+0x87>
     c04:	00 00 00 
     c07:	48 c7 05 00 00 00 00 	movq   $0x0,0x0(%rip)        # c12 <parse_args+0x92>
     c0e:	00 00 00 00 
     c12:	c7 05 00 00 00 00 00 	movl   $0x0,0x0(%rip)        # c1c <parse_args+0x9c>
     c19:	00 00 00 
     c1c:	48 c7 05 00 00 00 00 	movq   $0x0,0x0(%rip)        # c27 <parse_args+0xa7>
     c23:	00 00 00 00 
     c27:	48 c7 05 00 00 00 00 	movq   $0x0,0x0(%rip)        # c32 <parse_args+0xb2>
     c2e:	00 00 00 00 
     c32:	48 c7 05 00 00 00 00 	movq   $0x0,0x0(%rip)        # c3d <parse_args+0xbd>
     c39:	00 00 00 00 
     c3d:	48 c7 05 00 00 00 00 	movq   $0x0,0x0(%rip)        # c48 <parse_args+0xc8>
     c44:	00 00 00 00 
     c48:	48 c7 05 00 00 00 00 	movq   $0x0,0x0(%rip)        # c53 <parse_args+0xd3>
     c4f:	00 00 00 00 
     c53:	48 c7 05 00 00 00 00 	movq   $0x0,0x0(%rip)        # c5e <parse_args+0xde>
     c5a:	00 00 00 00 
     c5e:	48 c7 05 00 00 00 00 	movq   $0x0,0x0(%rip)        # c69 <parse_args+0xe9>
     c65:	00 00 00 00 
     c69:	48 c7 05 00 00 00 00 	movq   $0x0,0x0(%rip)        # c74 <parse_args+0xf4>
     c70:	00 00 00 00 
     c74:	c7 05 00 00 00 00 ff 	movl   $0xffffffff,0x0(%rip)        # c7e <parse_args+0xfe>
     c7b:	ff ff ff 
     c7e:	0f 8e 53 03 00 00    	jle    fd7 <parse_args+0x457>
     c84:	48 8b 5e 08          	mov    0x8(%rsi),%rbx
     c88:	49 89 f6             	mov    %rsi,%r14
     c8b:	bd 01 00 00 00       	mov    $0x1,%ebp
     c90:	41 bc 00 00 00 00    	mov    $0x0,%r12d
     c96:	80 3b 2d             	cmpb   $0x2d,(%rbx)
     c99:	74 70                	je     d0b <parse_args+0x18b>
     c9b:	e9 61 04 00 00       	jmpq   1101 <parse_args+0x581>
     ca0:	44 8d 7d 01          	lea    0x1(%rbp),%r15d
     ca4:	45 39 fd             	cmp    %r15d,%r13d
     ca7:	0f 8f 43 01 00 00    	jg     df0 <parse_args+0x270>
     cad:	bf 00 00 00 00       	mov    $0x0,%edi
     cb2:	b9 03 00 00 00       	mov    $0x3,%ecx
     cb7:	48 89 de             	mov    %rbx,%rsi
     cba:	f3 a6                	repz cmpsb %es:(%rdi),%ds:(%rsi)
     cbc:	0f 84 ce 00 00 00    	je     d90 <parse_args+0x210>
     cc2:	bf 00 00 00 00       	mov    $0x0,%edi
     cc7:	b9 03 00 00 00       	mov    $0x3,%ecx
     ccc:	48 89 de             	mov    %rbx,%rsi
     ccf:	f3 a6                	repz cmpsb %es:(%rdi),%ds:(%rsi)
     cd1:	0f 85 b9 00 00 00    	jne    d90 <parse_args+0x210>
     cd7:	8d 45 01             	lea    0x1(%rbp),%eax
     cda:	41 39 c5             	cmp    %eax,%r13d
     cdd:	0f 8e ad 00 00 00    	jle    d90 <parse_args+0x210>
     ce3:	48 63 d0             	movslq %eax,%rdx
     ce6:	89 c5                	mov    %eax,%ebp
     ce8:	49 8b 14 d6          	mov    (%r14,%rdx,8),%rdx
     cec:	48 89 15 00 00 00 00 	mov    %rdx,0x0(%rip)        # cf3 <parse_args+0x173>
     cf3:	83 c5 01             	add    $0x1,%ebp
     cf6:	41 39 ed             	cmp    %ebp,%r13d
     cf9:	7e 74                	jle    d6f <parse_args+0x1ef>
     cfb:	48 63 c5             	movslq %ebp,%rax
     cfe:	49 8b 1c c6          	mov    (%r14,%rax,8),%rbx
     d02:	80 3b 2d             	cmpb   $0x2d,(%rbx)
     d05:	0f 85 f6 03 00 00    	jne    1101 <parse_args+0x581>
     d0b:	b9 03 00 00 00       	mov    $0x3,%ecx
     d10:	48 89 de             	mov    %rbx,%rsi
     d13:	4c 89 e7             	mov    %r12,%rdi
     d16:	f3 a6                	repz cmpsb %es:(%rdi),%ds:(%rsi)
     d18:	0f 84 e3 02 00 00    	je     1001 <parse_args+0x481>
     d1e:	bf 00 00 00 00       	mov    $0x0,%edi
     d23:	b9 03 00 00 00       	mov    $0x3,%ecx
     d28:	48 89 de             	mov    %rbx,%rsi
     d2b:	f3 a6                	repz cmpsb %es:(%rdi),%ds:(%rsi)
     d2d:	0f 84 6d ff ff ff    	je     ca0 <parse_args+0x120>
     d33:	bf 00 00 00 00       	mov    $0x0,%edi
     d38:	b9 03 00 00 00       	mov    $0x3,%ecx
     d3d:	48 89 de             	mov    %rbx,%rsi
     d40:	f3 a6                	repz cmpsb %es:(%rdi),%ds:(%rsi)
     d42:	0f 85 7a ff ff ff    	jne    cc2 <parse_args+0x142>
     d48:	44 8d 7d 01          	lea    0x1(%rbp),%r15d
     d4c:	45 39 fd             	cmp    %r15d,%r13d
     d4f:	7e 3f                	jle    d90 <parse_args+0x210>
     d51:	49 63 c7             	movslq %r15d,%rax
     d54:	44 89 fd             	mov    %r15d,%ebp
     d57:	49 8b 3c c6          	mov    (%r14,%rax,8),%rdi
     d5b:	83 c5 01             	add    $0x1,%ebp
     d5e:	e8 00 00 00 00       	callq  d63 <parse_args+0x1e3>
     d63:	41 39 ed             	cmp    %ebp,%r13d
     d66:	66 89 05 00 00 00 00 	mov    %ax,0x0(%rip)        # d6d <parse_args+0x1ed>
     d6d:	7f 8c                	jg     cfb <parse_args+0x17b>
     d6f:	41 39 ed             	cmp    %ebp,%r13d
     d72:	0f 85 89 03 00 00    	jne    1101 <parse_args+0x581>
     d78:	48 83 c4 08          	add    $0x8,%rsp
     d7c:	5b                   	pop    %rbx
     d7d:	5d                   	pop    %rbp
     d7e:	41 5c                	pop    %r12
     d80:	41 5d                	pop    %r13
     d82:	41 5e                	pop    %r14
     d84:	41 5f                	pop    %r15
     d86:	c3                   	retq   
     d87:	66 0f 1f 84 00 00 00 	nopw   0x0(%rax,%rax,1)
     d8e:	00 00 
     d90:	bf 00 00 00 00       	mov    $0x0,%edi
     d95:	b9 03 00 00 00       	mov    $0x3,%ecx
     d9a:	48 89 de             	mov    %rbx,%rsi
     d9d:	f3 a6                	repz cmpsb %es:(%rdi),%ds:(%rsi)
     d9f:	75 1f                	jne    dc0 <parse_args+0x240>
     da1:	c7 05 00 00 00 00 01 	movl   $0x1,0x0(%rip)        # dab <parse_args+0x22b>
     da8:	00 00 00 
     dab:	c7 05 00 00 00 00 01 	movl   $0x1,0x0(%rip)        # db5 <parse_args+0x235>
     db2:	00 00 00 
     db5:	e9 39 ff ff ff       	jmpq   cf3 <parse_args+0x173>
     dba:	66 0f 1f 44 00 00    	nopw   0x0(%rax,%rax,1)
     dc0:	bf 00 00 00 00       	mov    $0x0,%edi
     dc5:	b9 05 00 00 00       	mov    $0x5,%ecx
     dca:	48 89 de             	mov    %rbx,%rsi
     dcd:	f3 a6                	repz cmpsb %es:(%rdi),%ds:(%rsi)
     dcf:	75 37                	jne    e08 <parse_args+0x288>
     dd1:	c7 05 00 00 00 00 00 	movl   $0x0,0x0(%rip)        # ddb <parse_args+0x25b>
     dd8:	00 00 00 
     ddb:	c7 05 00 00 00 00 00 	movl   $0x0,0x0(%rip)        # de5 <parse_args+0x265>
     de2:	00 00 00 
     de5:	e9 09 ff ff ff       	jmpq   cf3 <parse_args+0x173>
     dea:	66 0f 1f 44 00 00    	nopw   0x0(%rax,%rax,1)
     df0:	49 63 c7             	movslq %r15d,%rax
     df3:	44 89 fd             	mov    %r15d,%ebp
     df6:	49 8b 3c c6          	mov    (%r14,%rax,8),%rdi
     dfa:	e8 01 f7 ff ff       	callq  500 <read_config>
     dff:	e9 ef fe ff ff       	jmpq   cf3 <parse_args+0x173>
     e04:	0f 1f 40 00          	nopl   0x0(%rax)
     e08:	bf 00 00 00 00       	mov    $0x0,%edi
     e0d:	b9 04 00 00 00       	mov    $0x4,%ecx
     e12:	48 89 de             	mov    %rbx,%rsi
     e15:	f3 a6                	repz cmpsb %es:(%rdi),%ds:(%rsi)
     e17:	75 27                	jne    e40 <parse_args+0x2c0>
     e19:	8d 45 01             	lea    0x1(%rbp),%eax
     e1c:	41 39 c5             	cmp    %eax,%r13d
     e1f:	7e 1f                	jle    e40 <parse_args+0x2c0>
     e21:	48 63 d0             	movslq %eax,%rdx
     e24:	89 c5                	mov    %eax,%ebp
     e26:	49 8b 14 d6          	mov    (%r14,%rdx,8),%rdx
     e2a:	48 89 15 00 00 00 00 	mov    %rdx,0x0(%rip)        # e31 <parse_args+0x2b1>
     e31:	e9 bd fe ff ff       	jmpq   cf3 <parse_args+0x173>
     e36:	66 2e 0f 1f 84 00 00 	nopw   %cs:0x0(%rax,%rax,1)
     e3d:	00 00 00 
     e40:	bf 00 00 00 00       	mov    $0x0,%edi
     e45:	b9 03 00 00 00       	mov    $0x3,%ecx
     e4a:	48 89 de             	mov    %rbx,%rsi
     e4d:	f3 a6                	repz cmpsb %es:(%rdi),%ds:(%rsi)
     e4f:	75 0f                	jne    e60 <parse_args+0x2e0>
     e51:	c7 05 00 00 00 00 00 	movl   $0x0,0x0(%rip)        # e5b <parse_args+0x2db>
     e58:	00 00 00 
     e5b:	e9 93 fe ff ff       	jmpq   cf3 <parse_args+0x173>
     e60:	bf 00 00 00 00       	mov    $0x0,%edi
     e65:	b9 05 00 00 00       	mov    $0x5,%ecx
     e6a:	48 89 de             	mov    %rbx,%rsi
     e6d:	f3 a6                	repz cmpsb %es:(%rdi),%ds:(%rsi)
     e6f:	74 2e                	je     e9f <parse_args+0x31f>
     e71:	be 00 00 00 00       	mov    $0x0,%esi
     e76:	48 89 df             	mov    %rbx,%rdi
     e79:	e8 00 00 00 00       	callq  e7e <parse_args+0x2fe>
     e7e:	85 c0                	test   %eax,%eax
     e80:	75 2c                	jne    eae <parse_args+0x32e>
     e82:	8d 45 01             	lea    0x1(%rbp),%eax
     e85:	41 39 c5             	cmp    %eax,%r13d
     e88:	7e 24                	jle    eae <parse_args+0x32e>
     e8a:	48 63 d0             	movslq %eax,%rdx
     e8d:	89 c5                	mov    %eax,%ebp
     e8f:	49 8b 14 d6          	mov    (%r14,%rdx,8),%rdx
     e93:	48 89 15 00 00 00 00 	mov    %rdx,0x0(%rip)        # e9a <parse_args+0x31a>
     e9a:	e9 54 fe ff ff       	jmpq   cf3 <parse_args+0x173>
     e9f:	c7 05 00 00 00 00 01 	movl   $0x1,0x0(%rip)        # ea9 <parse_args+0x329>
     ea6:	00 00 00 
     ea9:	e9 45 fe ff ff       	jmpq   cf3 <parse_args+0x173>
     eae:	be 00 00 00 00       	mov    $0x0,%esi
     eb3:	48 89 df             	mov    %rbx,%rdi
     eb6:	e8 00 00 00 00       	callq  ebb <parse_args+0x33b>
     ebb:	85 c0                	test   %eax,%eax
     ebd:	75 1d                	jne    edc <parse_args+0x35c>
     ebf:	8d 45 01             	lea    0x1(%rbp),%eax
     ec2:	41 39 c5             	cmp    %eax,%r13d
     ec5:	7e 15                	jle    edc <parse_args+0x35c>
     ec7:	48 63 d0             	movslq %eax,%rdx
     eca:	89 c5                	mov    %eax,%ebp
     ecc:	49 8b 14 d6          	mov    (%r14,%rdx,8),%rdx
     ed0:	48 89 15 00 00 00 00 	mov    %rdx,0x0(%rip)        # ed7 <parse_args+0x357>
     ed7:	e9 17 fe ff ff       	jmpq   cf3 <parse_args+0x173>
     edc:	be 00 00 00 00       	mov    $0x0,%esi
     ee1:	48 89 df             	mov    %rbx,%rdi
     ee4:	e8 00 00 00 00       	callq  ee9 <parse_args+0x369>
     ee9:	85 c0                	test   %eax,%eax
     eeb:	74 2e                	je     f1b <parse_args+0x39b>
     eed:	be 00 00 00 00       	mov    $0x0,%esi
     ef2:	48 89 df             	mov    %rbx,%rdi
     ef5:	e8 00 00 00 00       	callq  efa <parse_args+0x37a>
     efa:	85 c0                	test   %eax,%eax
     efc:	75 6b                	jne    f69 <parse_args+0x3e9>
     efe:	8d 45 01             	lea    0x1(%rbp),%eax
     f01:	41 39 c5             	cmp    %eax,%r13d
     f04:	7e 43                	jle    f49 <parse_args+0x3c9>
     f06:	48 63 d0             	movslq %eax,%rdx
     f09:	89 c5                	mov    %eax,%ebp
     f0b:	49 8b 14 d6          	mov    (%r14,%rdx,8),%rdx
     f0f:	48 89 15 00 00 00 00 	mov    %rdx,0x0(%rip)        # f16 <parse_args+0x396>
     f16:	e9 d8 fd ff ff       	jmpq   cf3 <parse_args+0x173>
     f1b:	8d 45 01             	lea    0x1(%rbp),%eax
     f1e:	41 39 c5             	cmp    %eax,%r13d
     f21:	7e 15                	jle    f38 <parse_args+0x3b8>
     f23:	48 63 d0             	movslq %eax,%rdx
     f26:	89 c5                	mov    %eax,%ebp
     f28:	49 8b 14 d6          	mov    (%r14,%rdx,8),%rdx
     f2c:	48 89 15 00 00 00 00 	mov    %rdx,0x0(%rip)        # f33 <parse_args+0x3b3>
     f33:	e9 bb fd ff ff       	jmpq   cf3 <parse_args+0x173>
     f38:	be 00 00 00 00       	mov    $0x0,%esi
     f3d:	48 89 df             	mov    %rbx,%rdi
     f40:	e8 00 00 00 00       	callq  f45 <parse_args+0x3c5>
     f45:	85 c0                	test   %eax,%eax
     f47:	75 20                	jne    f69 <parse_args+0x3e9>
     f49:	be 00 00 00 00       	mov    $0x0,%esi
     f4e:	48 89 df             	mov    %rbx,%rdi
     f51:	e8 00 00 00 00       	callq  f56 <parse_args+0x3d6>
     f56:	85 c0                	test   %eax,%eax
     f58:	75 3d                	jne    f97 <parse_args+0x417>
     f5a:	c7 05 00 00 00 00 01 	movl   $0x1,0x0(%rip)        # f64 <parse_args+0x3e4>
     f61:	00 00 00 
     f64:	e9 8a fd ff ff       	jmpq   cf3 <parse_args+0x173>
     f69:	be 00 00 00 00       	mov    $0x0,%esi
     f6e:	48 89 df             	mov    %rbx,%rdi
     f71:	e8 00 00 00 00       	callq  f76 <parse_args+0x3f6>
     f76:	85 c0                	test   %eax,%eax
     f78:	75 cf                	jne    f49 <parse_args+0x3c9>
     f7a:	8d 45 01             	lea    0x1(%rbp),%eax
     f7d:	41 39 c5             	cmp    %eax,%r13d
     f80:	7e c7                	jle    f49 <parse_args+0x3c9>
     f82:	48 63 d0             	movslq %eax,%rdx
     f85:	89 c5                	mov    %eax,%ebp
     f87:	49 8b 14 d6          	mov    (%r14,%rdx,8),%rdx
     f8b:	48 89 15 00 00 00 00 	mov    %rdx,0x0(%rip)        # f92 <parse_args+0x412>
     f92:	e9 5c fd ff ff       	jmpq   cf3 <parse_args+0x173>
     f97:	be 00 00 00 00       	mov    $0x0,%esi
     f9c:	48 89 df             	mov    %rbx,%rdi
     f9f:	e8 00 00 00 00       	callq  fa4 <parse_args+0x424>
     fa4:	85 c0                	test   %eax,%eax
     fa6:	74 20                	je     fc8 <parse_args+0x448>
     fa8:	be 00 00 00 00       	mov    $0x0,%esi
     fad:	48 89 df             	mov    %rbx,%rdi
     fb0:	e8 00 00 00 00       	callq  fb5 <parse_args+0x435>
     fb5:	85 c0                	test   %eax,%eax
     fb7:	75 28                	jne    fe1 <parse_args+0x461>
     fb9:	c7 05 00 00 00 00 01 	movl   $0x1,0x0(%rip)        # fc3 <parse_args+0x443>
     fc0:	00 00 00 
     fc3:	e9 2b fd ff ff       	jmpq   cf3 <parse_args+0x173>
     fc8:	c7 05 00 00 00 00 00 	movl   $0x0,0x0(%rip)        # fd2 <parse_args+0x452>
     fcf:	00 00 00 
     fd2:	e9 1c fd ff ff       	jmpq   cf3 <parse_args+0x173>
     fd7:	bd 01 00 00 00       	mov    $0x1,%ebp
     fdc:	e9 8e fd ff ff       	jmpq   d6f <parse_args+0x1ef>
     fe1:	be 00 00 00 00       	mov    $0x0,%esi
     fe6:	48 89 df             	mov    %rbx,%rdi
     fe9:	e8 00 00 00 00       	callq  fee <parse_args+0x46e>
     fee:	85 c0                	test   %eax,%eax
     ff0:	75 20                	jne    1012 <parse_args+0x492>
     ff2:	c7 05 00 00 00 00 00 	movl   $0x0,0x0(%rip)        # ffc <parse_args+0x47c>
     ff9:	00 00 00 
     ffc:	e9 f2 fc ff ff       	jmpq   cf3 <parse_args+0x173>
    1001:	bf 00 00 00 00       	mov    $0x0,%edi
    1006:	e8 00 00 00 00       	callq  100b <parse_args+0x48b>
    100b:	31 ff                	xor    %edi,%edi
    100d:	e8 00 00 00 00       	callq  1012 <parse_args+0x492>
    1012:	be 00 00 00 00       	mov    $0x0,%esi
    1017:	48 89 df             	mov    %rbx,%rdi
    101a:	e8 00 00 00 00       	callq  101f <parse_args+0x49f>
    101f:	85 c0                	test   %eax,%eax
    1021:	75 1d                	jne    1040 <parse_args+0x4c0>
    1023:	8d 45 01             	lea    0x1(%rbp),%eax
    1026:	41 39 c5             	cmp    %eax,%r13d
    1029:	7e 15                	jle    1040 <parse_args+0x4c0>
    102b:	48 63 d0             	movslq %eax,%rdx
    102e:	89 c5                	mov    %eax,%ebp
    1030:	49 8b 14 d6          	mov    (%r14,%rdx,8),%rdx
    1034:	48 89 15 00 00 00 00 	mov    %rdx,0x0(%rip)        # 103b <parse_args+0x4bb>
    103b:	e9 b3 fc ff ff       	jmpq   cf3 <parse_args+0x173>
    1040:	be 00 00 00 00       	mov    $0x0,%esi
    1045:	48 89 df             	mov    %rbx,%rdi
    1048:	e8 00 00 00 00       	callq  104d <parse_args+0x4cd>
    104d:	85 c0                	test   %eax,%eax
    104f:	75 1d                	jne    106e <parse_args+0x4ee>
    1051:	8d 45 01             	lea    0x1(%rbp),%eax
    1054:	41 39 c5             	cmp    %eax,%r13d
    1057:	7e 43                	jle    109c <parse_args+0x51c>
    1059:	48 63 d0             	movslq %eax,%rdx
    105c:	89 c5                	mov    %eax,%ebp
    105e:	49 8b 14 d6          	mov    (%r14,%rdx,8),%rdx
    1062:	48 89 15 00 00 00 00 	mov    %rdx,0x0(%rip)        # 1069 <parse_args+0x4e9>
    1069:	e9 85 fc ff ff       	jmpq   cf3 <parse_args+0x173>
    106e:	be 00 00 00 00       	mov    $0x0,%esi
    1073:	48 89 df             	mov    %rbx,%rdi
    1076:	e8 00 00 00 00       	callq  107b <parse_args+0x4fb>
    107b:	85 c0                	test   %eax,%eax
    107d:	75 2e                	jne    10ad <parse_args+0x52d>
    107f:	8d 45 01             	lea    0x1(%rbp),%eax
    1082:	41 39 c5             	cmp    %eax,%r13d
    1085:	7e 5a                	jle    10e1 <parse_args+0x561>
    1087:	48 63 d0             	movslq %eax,%rdx
    108a:	89 c5                	mov    %eax,%ebp
    108c:	49 8b 14 d6          	mov    (%r14,%rdx,8),%rdx
    1090:	48 89 15 00 00 00 00 	mov    %rdx,0x0(%rip)        # 1097 <parse_args+0x517>
    1097:	e9 57 fc ff ff       	jmpq   cf3 <parse_args+0x173>
    109c:	be 00 00 00 00       	mov    $0x0,%esi
    10a1:	48 89 df             	mov    %rbx,%rdi
    10a4:	e8 00 00 00 00       	callq  10a9 <parse_args+0x529>
    10a9:	85 c0                	test   %eax,%eax
    10ab:	74 34                	je     10e1 <parse_args+0x561>
    10ad:	be 00 00 00 00       	mov    $0x0,%esi
    10b2:	48 89 df             	mov    %rbx,%rdi
    10b5:	e8 00 00 00 00       	callq  10ba <parse_args+0x53a>
    10ba:	85 c0                	test   %eax,%eax
    10bc:	75 23                	jne    10e1 <parse_args+0x561>
    10be:	44 8d 7d 01          	lea    0x1(%rbp),%r15d
    10c2:	45 39 fd             	cmp    %r15d,%r13d
    10c5:	7e 1a                	jle    10e1 <parse_args+0x561>
    10c7:	49 63 c7             	movslq %r15d,%rax
    10ca:	44 89 fd             	mov    %r15d,%ebp
    10cd:	49 8b 3c c6          	mov    (%r14,%rax,8),%rdi
    10d1:	e8 00 00 00 00       	callq  10d6 <parse_args+0x556>
    10d6:	89 05 00 00 00 00    	mov    %eax,0x0(%rip)        # 10dc <parse_args+0x55c>
    10dc:	e9 12 fc ff ff       	jmpq   cf3 <parse_args+0x173>
    10e1:	be 00 00 00 00       	mov    $0x0,%esi
    10e6:	48 89 df             	mov    %rbx,%rdi
    10e9:	e8 00 00 00 00       	callq  10ee <parse_args+0x56e>
    10ee:	85 c0                	test   %eax,%eax
    10f0:	75 0f                	jne    1101 <parse_args+0x581>
    10f2:	c7 05 00 00 00 00 01 	movl   $0x1,0x0(%rip)        # 10fc <parse_args+0x57c>
    10f9:	00 00 00 
    10fc:	e9 f2 fb ff ff       	jmpq   cf3 <parse_args+0x173>
    1101:	e8 00 00 00 00       	callq  1106 <parse_args+0x586>
    1106:	66 2e 0f 1f 84 00 00 	nopw   %cs:0x0(%rax,%rax,1)
    110d:	00 00 00 

0000000000001110 <read_throttlefile>:
    1110:	41 56                	push   %r14
    1112:	41 55                	push   %r13
    1114:	be 00 00 00 00       	mov    $0x0,%esi
    1119:	41 54                	push   %r12
    111b:	55                   	push   %rbp
    111c:	49 89 fc             	mov    %rdi,%r12
    111f:	53                   	push   %rbx
    1120:	48 81 ec 40 27 00 00 	sub    $0x2740,%rsp
    1127:	e8 00 00 00 00       	callq  112c <read_throttlefile+0x1c>
    112c:	48 85 c0             	test   %rax,%rax
    112f:	0f 84 d2 02 00 00    	je     1407 <read_throttlefile+0x2f7>
    1135:	48 8d 7c 24 10       	lea    0x10(%rsp),%rdi
    113a:	48 8d 5c 24 20       	lea    0x20(%rsp),%rbx
    113f:	4c 8d ac 24 b1 13 00 	lea    0x13b1(%rsp),%r13
    1146:	00 
    1147:	31 f6                	xor    %esi,%esi
    1149:	48 89 c5             	mov    %rax,%rbp
    114c:	e8 00 00 00 00       	callq  1151 <read_throttlefile+0x41>
    1151:	0f 1f 80 00 00 00 00 	nopl   0x0(%rax)
    1158:	48 89 ea             	mov    %rbp,%rdx
    115b:	be 88 13 00 00       	mov    $0x1388,%esi
    1160:	48 89 df             	mov    %rbx,%rdi
    1163:	e8 00 00 00 00       	callq  1168 <read_throttlefile+0x58>
    1168:	48 85 c0             	test   %rax,%rax
    116b:	0f 84 5e 02 00 00    	je     13cf <read_throttlefile+0x2bf>
    1171:	be 23 00 00 00       	mov    $0x23,%esi
    1176:	48 89 df             	mov    %rbx,%rdi
    1179:	e8 00 00 00 00       	callq  117e <read_throttlefile+0x6e>
    117e:	48 85 c0             	test   %rax,%rax
    1181:	74 03                	je     1186 <read_throttlefile+0x76>
    1183:	c6 00 00             	movb   $0x0,(%rax)
    1186:	48 89 d8             	mov    %rbx,%rax
    1189:	8b 08                	mov    (%rax),%ecx
    118b:	48 83 c0 04          	add    $0x4,%rax
    118f:	8d 91 ff fe fe fe    	lea    -0x1010101(%rcx),%edx
    1195:	f7 d1                	not    %ecx
    1197:	21 ca                	and    %ecx,%edx
    1199:	81 e2 80 80 80 80    	and    $0x80808080,%edx
    119f:	74 e8                	je     1189 <read_throttlefile+0x79>
    11a1:	89 d1                	mov    %edx,%ecx
    11a3:	c1 e9 10             	shr    $0x10,%ecx
    11a6:	f7 c2 80 80 00 00    	test   $0x8080,%edx
    11ac:	0f 44 d1             	cmove  %ecx,%edx
    11af:	48 8d 48 02          	lea    0x2(%rax),%rcx
    11b3:	48 0f 44 c1          	cmove  %rcx,%rax
    11b7:	00 d2                	add    %dl,%dl
    11b9:	48 83 d8 03          	sbb    $0x3,%rax
    11bd:	48 29 d8             	sub    %rbx,%rax
    11c0:	83 f8 00             	cmp    $0x0,%eax
    11c3:	0f 8e 1e 02 00 00    	jle    13e7 <read_throttlefile+0x2d7>
    11c9:	83 e8 01             	sub    $0x1,%eax
    11cc:	48 63 d0             	movslq %eax,%rdx
    11cf:	0f b6 4c 14 20       	movzbl 0x20(%rsp,%rdx,1),%ecx
    11d4:	80 f9 20             	cmp    $0x20,%cl
    11d7:	0f 86 43 01 00 00    	jbe    1320 <read_throttlefile+0x210>
    11dd:	0f 1f 00             	nopl   (%rax)
    11e0:	48 8d 4c 24 08       	lea    0x8(%rsp),%rcx
    11e5:	48 8d 94 24 b0 13 00 	lea    0x13b0(%rsp),%rdx
    11ec:	00 
    11ed:	31 c0                	xor    %eax,%eax
    11ef:	49 89 e0             	mov    %rsp,%r8
    11f2:	be 00 00 00 00       	mov    $0x0,%esi
    11f7:	48 89 df             	mov    %rbx,%rdi
    11fa:	e8 00 00 00 00       	callq  11ff <read_throttlefile+0xef>
    11ff:	83 f8 03             	cmp    $0x3,%eax
    1202:	74 2c                	je     1230 <read_throttlefile+0x120>
    1204:	48 8d 94 24 b0 13 00 	lea    0x13b0(%rsp),%rdx
    120b:	00 
    120c:	31 c0                	xor    %eax,%eax
    120e:	48 89 e1             	mov    %rsp,%rcx
    1211:	be 00 00 00 00       	mov    $0x0,%esi
    1216:	48 89 df             	mov    %rbx,%rdi
    1219:	e8 00 00 00 00       	callq  121e <read_throttlefile+0x10e>
    121e:	83 f8 02             	cmp    $0x2,%eax
    1221:	0f 85 36 01 00 00    	jne    135d <read_throttlefile+0x24d>
    1227:	48 c7 44 24 08 00 00 	movq   $0x0,0x8(%rsp)
    122e:	00 00 
    1230:	80 bc 24 b0 13 00 00 	cmpb   $0x2f,0x13b0(%rsp)
    1237:	2f 
    1238:	75 13                	jne    124d <read_throttlefile+0x13d>
    123a:	e9 b3 01 00 00       	jmpq   13f2 <read_throttlefile+0x2e2>
    123f:	90                   	nop
    1240:	48 8d 70 02          	lea    0x2(%rax),%rsi
    1244:	48 8d 78 01          	lea    0x1(%rax),%rdi
    1248:	e8 00 00 00 00       	callq  124d <read_throttlefile+0x13d>
    124d:	48 8d bc 24 b0 13 00 	lea    0x13b0(%rsp),%rdi
    1254:	00 
    1255:	be 00 00 00 00       	mov    $0x0,%esi
    125a:	e8 00 00 00 00       	callq  125f <read_throttlefile+0x14f>
    125f:	48 85 c0             	test   %rax,%rax
    1262:	75 dc                	jne    1240 <read_throttlefile+0x130>
    1264:	48 63 15 00 00 00 00 	movslq 0x0(%rip),%rdx        # 126b <read_throttlefile+0x15b>
    126b:	8b 05 00 00 00 00    	mov    0x0(%rip),%eax        # 1271 <read_throttlefile+0x161>
    1271:	39 c2                	cmp    %eax,%edx
    1273:	0f 8c 4a 01 00 00    	jl     13c3 <read_throttlefile+0x2b3>
    1279:	85 c0                	test   %eax,%eax
    127b:	0f 85 18 01 00 00    	jne    1399 <read_throttlefile+0x289>
    1281:	bf c0 12 00 00       	mov    $0x12c0,%edi
    1286:	c7 05 00 00 00 00 64 	movl   $0x64,0x0(%rip)        # 1290 <read_throttlefile+0x180>
    128d:	00 00 00 
    1290:	e8 00 00 00 00       	callq  1295 <read_throttlefile+0x185>
    1295:	48 89 05 00 00 00 00 	mov    %rax,0x0(%rip)        # 129c <read_throttlefile+0x18c>
    129c:	48 85 c0             	test   %rax,%rax
    129f:	0f 84 88 01 00 00    	je     142d <read_throttlefile+0x31d>
    12a5:	48 63 15 00 00 00 00 	movslq 0x0(%rip),%rdx        # 12ac <read_throttlefile+0x19c>
    12ac:	4c 8d 34 52          	lea    (%rdx,%rdx,2),%r14
    12b0:	48 8d bc 24 b0 13 00 	lea    0x13b0(%rsp),%rdi
    12b7:	00 
    12b8:	4c 89 f2             	mov    %r14,%rdx
    12bb:	48 c1 e2 04          	shl    $0x4,%rdx
    12bf:	4c 8d 34 10          	lea    (%rax,%rdx,1),%r14
    12c3:	e8 e8 f1 ff ff       	callq  4b0 <e_strdup>
    12c8:	49 89 06             	mov    %rax,(%r14)
    12cb:	48 63 05 00 00 00 00 	movslq 0x0(%rip),%rax        # 12d2 <read_throttlefile+0x1c2>
    12d2:	48 8b 0c 24          	mov    (%rsp),%rcx
    12d6:	48 89 c2             	mov    %rax,%rdx
    12d9:	48 8d 04 40          	lea    (%rax,%rax,2),%rax
    12dd:	83 c2 01             	add    $0x1,%edx
    12e0:	48 c1 e0 04          	shl    $0x4,%rax
    12e4:	48 03 05 00 00 00 00 	add    0x0(%rip),%rax        # 12eb <read_throttlefile+0x1db>
    12eb:	89 15 00 00 00 00    	mov    %edx,0x0(%rip)        # 12f1 <read_throttlefile+0x1e1>
    12f1:	48 89 48 08          	mov    %rcx,0x8(%rax)
    12f5:	48 8b 4c 24 08       	mov    0x8(%rsp),%rcx
    12fa:	48 c7 40 18 00 00 00 	movq   $0x0,0x18(%rax)
    1301:	00 
    1302:	48 c7 40 20 00 00 00 	movq   $0x0,0x20(%rax)
    1309:	00 
    130a:	c7 40 28 00 00 00 00 	movl   $0x0,0x28(%rax)
    1311:	48 89 48 10          	mov    %rcx,0x10(%rax)
    1315:	e9 3e fe ff ff       	jmpq   1158 <read_throttlefile+0x48>
    131a:	66 0f 1f 44 00 00    	nopw   0x0(%rax,%rax,1)
    1320:	48 be 00 26 00 00 01 	movabs $0x100002600,%rsi
    1327:	00 00 00 
    132a:	66 0f 1f 44 00 00    	nopw   0x0(%rax,%rax,1)
    1330:	48 0f a3 ce          	bt     %rcx,%rsi
    1334:	0f 83 a6 fe ff ff    	jae    11e0 <read_throttlefile+0xd0>
    133a:	85 c0                	test   %eax,%eax
    133c:	c6 44 14 20 00       	movb   $0x0,0x20(%rsp,%rdx,1)
    1341:	0f 84 11 fe ff ff    	je     1158 <read_throttlefile+0x48>
    1347:	83 e8 01             	sub    $0x1,%eax
    134a:	48 63 d0             	movslq %eax,%rdx
    134d:	0f b6 4c 14 20       	movzbl 0x20(%rsp,%rdx,1),%ecx
    1352:	80 f9 20             	cmp    $0x20,%cl
    1355:	0f 87 85 fe ff ff    	ja     11e0 <read_throttlefile+0xd0>
    135b:	eb d3                	jmp    1330 <read_throttlefile+0x220>
    135d:	48 89 d9             	mov    %rbx,%rcx
    1360:	4c 89 e2             	mov    %r12,%rdx
    1363:	31 c0                	xor    %eax,%eax
    1365:	be 00 00 00 00       	mov    $0x0,%esi
    136a:	bf 02 00 00 00       	mov    $0x2,%edi
    136f:	e8 00 00 00 00       	callq  1374 <read_throttlefile+0x264>
    1374:	48 8b 15 00 00 00 00 	mov    0x0(%rip),%rdx        # 137b <read_throttlefile+0x26b>
    137b:	48 8b 3d 00 00 00 00 	mov    0x0(%rip),%rdi        # 1382 <read_throttlefile+0x272>
    1382:	49 89 d8             	mov    %rbx,%r8
    1385:	4c 89 e1             	mov    %r12,%rcx
    1388:	be 00 00 00 00       	mov    $0x0,%esi
    138d:	31 c0                	xor    %eax,%eax
    138f:	e8 00 00 00 00       	callq  1394 <read_throttlefile+0x284>
    1394:	e9 bf fd ff ff       	jmpq   1158 <read_throttlefile+0x48>
    1399:	01 c0                	add    %eax,%eax
    139b:	48 8b 3d 00 00 00 00 	mov    0x0(%rip),%rdi        # 13a2 <read_throttlefile+0x292>
    13a2:	89 05 00 00 00 00    	mov    %eax,0x0(%rip)        # 13a8 <read_throttlefile+0x298>
    13a8:	48 98                	cltq   
    13aa:	48 8d 34 40          	lea    (%rax,%rax,2),%rsi
    13ae:	48 c1 e6 04          	shl    $0x4,%rsi
    13b2:	e8 00 00 00 00       	callq  13b7 <read_throttlefile+0x2a7>
    13b7:	48 89 05 00 00 00 00 	mov    %rax,0x0(%rip)        # 13be <read_throttlefile+0x2ae>
    13be:	e9 d9 fe ff ff       	jmpq   129c <read_throttlefile+0x18c>
    13c3:	48 8b 05 00 00 00 00 	mov    0x0(%rip),%rax        # 13ca <read_throttlefile+0x2ba>
    13ca:	e9 dd fe ff ff       	jmpq   12ac <read_throttlefile+0x19c>
    13cf:	48 89 ef             	mov    %rbp,%rdi
    13d2:	e8 00 00 00 00       	callq  13d7 <read_throttlefile+0x2c7>
    13d7:	48 81 c4 40 27 00 00 	add    $0x2740,%rsp
    13de:	5b                   	pop    %rbx
    13df:	5d                   	pop    %rbp
    13e0:	41 5c                	pop    %r12
    13e2:	41 5d                	pop    %r13
    13e4:	41 5e                	pop    %r14
    13e6:	c3                   	retq   
    13e7:	0f 85 f3 fd ff ff    	jne    11e0 <read_throttlefile+0xd0>
    13ed:	e9 66 fd ff ff       	jmpq   1158 <read_throttlefile+0x48>
    13f2:	48 8d bc 24 b0 13 00 	lea    0x13b0(%rsp),%rdi
    13f9:	00 
    13fa:	4c 89 ee             	mov    %r13,%rsi
    13fd:	e8 00 00 00 00       	callq  1402 <read_throttlefile+0x2f2>
    1402:	e9 46 fe ff ff       	jmpq   124d <read_throttlefile+0x13d>
    1407:	4c 89 e2             	mov    %r12,%rdx
    140a:	be 00 00 00 00       	mov    $0x0,%esi
    140f:	bf 02 00 00 00       	mov    $0x2,%edi
    1414:	31 c0                	xor    %eax,%eax
    1416:	e8 00 00 00 00       	callq  141b <read_throttlefile+0x30b>
    141b:	4c 89 e7             	mov    %r12,%rdi
    141e:	e8 00 00 00 00       	callq  1423 <read_throttlefile+0x313>
    1423:	bf 01 00 00 00       	mov    $0x1,%edi
    1428:	e8 00 00 00 00       	callq  142d <read_throttlefile+0x31d>
    142d:	be 00 00 00 00       	mov    $0x0,%esi
    1432:	bf 02 00 00 00       	mov    $0x2,%edi
    1437:	31 c0                	xor    %eax,%eax
    1439:	e8 00 00 00 00       	callq  143e <read_throttlefile+0x32e>
    143e:	48 8b 3d 00 00 00 00 	mov    0x0(%rip),%rdi        # 1445 <read_throttlefile+0x335>
    1445:	48 8b 15 00 00 00 00 	mov    0x0(%rip),%rdx        # 144c <read_throttlefile+0x33c>
    144c:	be 00 00 00 00       	mov    $0x0,%esi
    1451:	31 c0                	xor    %eax,%eax
    1453:	e8 00 00 00 00       	callq  1458 <read_throttlefile+0x348>
    1458:	bf 01 00 00 00       	mov    $0x1,%edi
    145d:	e8 00 00 00 00       	callq  1462 <read_throttlefile+0x352>
    1462:	66 66 66 66 66 2e 0f 	data32 data32 data32 data32 nopw %cs:0x0(%rax,%rax,1)
    1469:	1f 84 00 00 00 00 00 

0000000000001470 <re_open_logfile>:
    1470:	8b 05 00 00 00 00    	mov    0x0(%rip),%eax        # 1476 <re_open_logfile+0x6>
    1476:	85 c0                	test   %eax,%eax
    1478:	75 24                	jne    149e <re_open_logfile+0x2e>
    147a:	48 83 3d 00 00 00 00 	cmpq   $0x0,0x0(%rip)        # 1482 <re_open_logfile+0x12>
    1481:	00 
    1482:	74 1a                	je     149e <re_open_logfile+0x2e>
    1484:	48 8b 35 00 00 00 00 	mov    0x0(%rip),%rsi        # 148b <re_open_logfile+0x1b>
    148b:	48 85 f6             	test   %rsi,%rsi
    148e:	74 0e                	je     149e <re_open_logfile+0x2e>
    1490:	bf 00 00 00 00       	mov    $0x0,%edi
    1495:	b9 02 00 00 00       	mov    $0x2,%ecx
    149a:	f3 a6                	repz cmpsb %es:(%rdi),%ds:(%rsi)
    149c:	75 02                	jne    14a0 <re_open_logfile+0x30>
    149e:	f3 c3                	repz retq 
    14a0:	55                   	push   %rbp
    14a1:	53                   	push   %rbx
    14a2:	31 c0                	xor    %eax,%eax
    14a4:	be 00 00 00 00       	mov    $0x0,%esi
    14a9:	bf 05 00 00 00       	mov    $0x5,%edi
    14ae:	48 83 ec 08          	sub    $0x8,%rsp
    14b2:	e8 00 00 00 00       	callq  14b7 <re_open_logfile+0x47>
    14b7:	48 8b 3d 00 00 00 00 	mov    0x0(%rip),%rdi        # 14be <re_open_logfile+0x4e>
    14be:	be 00 00 00 00       	mov    $0x0,%esi
    14c3:	e8 00 00 00 00       	callq  14c8 <re_open_logfile+0x58>
    14c8:	48 8b 2d 00 00 00 00 	mov    0x0(%rip),%rbp        # 14cf <re_open_logfile+0x5f>
    14cf:	48 89 c3             	mov    %rax,%rbx
    14d2:	be 80 01 00 00       	mov    $0x180,%esi
    14d7:	48 89 ef             	mov    %rbp,%rdi
    14da:	e8 00 00 00 00       	callq  14df <re_open_logfile+0x6f>
    14df:	48 85 db             	test   %rbx,%rbx
    14e2:	74 3c                	je     1520 <re_open_logfile+0xb0>
    14e4:	85 c0                	test   %eax,%eax
    14e6:	75 38                	jne    1520 <re_open_logfile+0xb0>
    14e8:	48 89 df             	mov    %rbx,%rdi
    14eb:	e8 00 00 00 00       	callq  14f0 <re_open_logfile+0x80>
    14f0:	be 02 00 00 00       	mov    $0x2,%esi
    14f5:	89 c7                	mov    %eax,%edi
    14f7:	ba 01 00 00 00       	mov    $0x1,%edx
    14fc:	31 c0                	xor    %eax,%eax
    14fe:	e8 00 00 00 00       	callq  1503 <re_open_logfile+0x93>
    1503:	48 8b 3d 00 00 00 00 	mov    0x0(%rip),%rdi        # 150a <re_open_logfile+0x9a>
    150a:	48 83 c4 08          	add    $0x8,%rsp
    150e:	48 89 de             	mov    %rbx,%rsi
    1511:	5b                   	pop    %rbx
    1512:	5d                   	pop    %rbp
    1513:	e9 00 00 00 00       	jmpq   1518 <re_open_logfile+0xa8>
    1518:	0f 1f 84 00 00 00 00 	nopl   0x0(%rax,%rax,1)
    151f:	00 
    1520:	48 83 c4 08          	add    $0x8,%rsp
    1524:	48 89 ea             	mov    %rbp,%rdx
    1527:	be 00 00 00 00       	mov    $0x0,%esi
    152c:	5b                   	pop    %rbx
    152d:	5d                   	pop    %rbp
    152e:	bf 02 00 00 00       	mov    $0x2,%edi
    1533:	31 c0                	xor    %eax,%eax
    1535:	e9 00 00 00 00       	jmpq   153a <re_open_logfile+0xca>
    153a:	66 0f 1f 44 00 00    	nopw   0x0(%rax,%rax,1)

0000000000001540 <handle_newconnect>:
    1540:	41 54                	push   %r12
    1542:	55                   	push   %rbp
    1543:	49 89 fc             	mov    %rdi,%r12
    1546:	53                   	push   %rbx
    1547:	89 f5                	mov    %esi,%ebp
    1549:	48 83 ec 10          	sub    $0x10,%rsp
    154d:	8b 05 00 00 00 00    	mov    0x0(%rip),%eax        # 1553 <handle_newconnect+0x13>
    1553:	39 05 00 00 00 00    	cmp    %eax,0x0(%rip)        # 1559 <handle_newconnect+0x19>
    1559:	0f 8e 41 01 00 00    	jle    16a0 <handle_newconnect+0x160>
    155f:	48 63 05 00 00 00 00 	movslq 0x0(%rip),%rax        # 1566 <handle_newconnect+0x26>
    1566:	83 f8 ff             	cmp    $0xffffffff,%eax
    1569:	0f 84 51 01 00 00    	je     16c0 <handle_newconnect+0x180>
    156f:	48 8d 1c c0          	lea    (%rax,%rax,8),%rbx
    1573:	48 c1 e3 04          	shl    $0x4,%rbx
    1577:	48 03 1d 00 00 00 00 	add    0x0(%rip),%rbx        # 157e <handle_newconnect+0x3e>
    157e:	8b 03                	mov    (%rbx),%eax
    1580:	85 c0                	test   %eax,%eax
    1582:	0f 85 38 01 00 00    	jne    16c0 <handle_newconnect+0x180>
    1588:	48 8b 53 08          	mov    0x8(%rbx),%rdx
    158c:	48 85 d2             	test   %rdx,%rdx
    158f:	0f 84 db 00 00 00    	je     1670 <handle_newconnect+0x130>
    1595:	48 8b 3d 00 00 00 00 	mov    0x0(%rip),%rdi        # 159c <handle_newconnect+0x5c>
    159c:	89 ee                	mov    %ebp,%esi
    159e:	e8 00 00 00 00       	callq  15a3 <handle_newconnect+0x63>
    15a3:	85 c0                	test   %eax,%eax
    15a5:	0f 84 a5 00 00 00    	je     1650 <handle_newconnect+0x110>
    15ab:	83 f8 02             	cmp    $0x2,%eax
    15ae:	75 10                	jne    15c0 <handle_newconnect+0x80>
    15b0:	b8 01 00 00 00       	mov    $0x1,%eax
    15b5:	48 83 c4 10          	add    $0x10,%rsp
    15b9:	5b                   	pop    %rbx
    15ba:	5d                   	pop    %rbp
    15bb:	41 5c                	pop    %r12
    15bd:	c3                   	retq   
    15be:	66 90                	xchg   %ax,%ax
    15c0:	8b 43 04             	mov    0x4(%rbx),%eax
    15c3:	c7 03 01 00 00 00    	movl   $0x1,(%rbx)
    15c9:	c7 43 04 ff ff ff ff 	movl   $0xffffffff,0x4(%rbx)
    15d0:	83 05 00 00 00 00 01 	addl   $0x1,0x0(%rip)        # 15d7 <handle_newconnect+0x97>
    15d7:	89 05 00 00 00 00    	mov    %eax,0x0(%rip)        # 15dd <handle_newconnect+0x9d>
    15dd:	49 8b 04 24          	mov    (%r12),%rax
    15e1:	48 c7 43 60 00 00 00 	movq   $0x0,0x60(%rbx)
    15e8:	00 
    15e9:	48 c7 43 68 00 00 00 	movq   $0x0,0x68(%rbx)
    15f0:	00 
    15f1:	48 89 43 58          	mov    %rax,0x58(%rbx)
    15f5:	48 8b 43 08          	mov    0x8(%rbx),%rax
    15f9:	48 c7 83 88 00 00 00 	movq   $0x0,0x88(%rbx)
    1600:	00 00 00 00 
    1604:	c7 43 38 00 00 00 00 	movl   $0x0,0x38(%rbx)
    160b:	8b b8 c0 02 00 00    	mov    0x2c0(%rax),%edi
    1611:	e8 00 00 00 00       	callq  1616 <handle_newconnect+0xd6>
    1616:	48 8b 43 08          	mov    0x8(%rbx),%rax
    161a:	31 d2                	xor    %edx,%edx
    161c:	48 89 de             	mov    %rbx,%rsi
    161f:	8b b8 c0 02 00 00    	mov    0x2c0(%rax),%edi
    1625:	e8 00 00 00 00       	callq  162a <handle_newconnect+0xea>
    162a:	48 83 05 00 00 00 00 	addq   $0x1,0x0(%rip)        # 1632 <handle_newconnect+0xf2>
    1631:	01 
    1632:	8b 05 00 00 00 00    	mov    0x0(%rip),%eax        # 1638 <handle_newconnect+0xf8>
    1638:	3b 05 00 00 00 00    	cmp    0x0(%rip),%eax        # 163e <handle_newconnect+0xfe>
    163e:	0f 8e 0f ff ff ff    	jle    1553 <handle_newconnect+0x13>
    1644:	89 05 00 00 00 00    	mov    %eax,0x0(%rip)        # 164a <handle_newconnect+0x10a>
    164a:	e9 04 ff ff ff       	jmpq   1553 <handle_newconnect+0x13>
    164f:	90                   	nop
    1650:	4c 89 e7             	mov    %r12,%rdi
    1653:	89 44 24 0c          	mov    %eax,0xc(%rsp)
    1657:	e8 00 00 00 00       	callq  165c <handle_newconnect+0x11c>
    165c:	8b 44 24 0c          	mov    0xc(%rsp),%eax
    1660:	48 83 c4 10          	add    $0x10,%rsp
    1664:	5b                   	pop    %rbx
    1665:	5d                   	pop    %rbp
    1666:	41 5c                	pop    %r12
    1668:	c3                   	retq   
    1669:	0f 1f 80 00 00 00 00 	nopl   0x0(%rax)
    1670:	bf d0 02 00 00       	mov    $0x2d0,%edi
    1675:	e8 00 00 00 00       	callq  167a <handle_newconnect+0x13a>
    167a:	48 85 c0             	test   %rax,%rax
    167d:	48 89 43 08          	mov    %rax,0x8(%rbx)
    1681:	74 58                	je     16db <handle_newconnect+0x19b>
    1683:	c7 00 00 00 00 00    	movl   $0x0,(%rax)
    1689:	83 05 00 00 00 00 01 	addl   $0x1,0x0(%rip)        # 1690 <handle_newconnect+0x150>
    1690:	48 89 c2             	mov    %rax,%rdx
    1693:	e9 fd fe ff ff       	jmpq   1595 <handle_newconnect+0x55>
    1698:	0f 1f 84 00 00 00 00 	nopl   0x0(%rax,%rax,1)
    169f:	00 
    16a0:	31 c0                	xor    %eax,%eax
    16a2:	be 00 00 00 00       	mov    $0x0,%esi
    16a7:	bf 04 00 00 00       	mov    $0x4,%edi
    16ac:	e8 00 00 00 00       	callq  16b1 <handle_newconnect+0x171>
    16b1:	4c 89 e7             	mov    %r12,%rdi
    16b4:	e8 00 00 00 00       	callq  16b9 <handle_newconnect+0x179>
    16b9:	31 c0                	xor    %eax,%eax
    16bb:	e9 f5 fe ff ff       	jmpq   15b5 <handle_newconnect+0x75>
    16c0:	bf 02 00 00 00       	mov    $0x2,%edi
    16c5:	be 00 00 00 00       	mov    $0x0,%esi
    16ca:	31 c0                	xor    %eax,%eax
    16cc:	e8 00 00 00 00       	callq  16d1 <handle_newconnect+0x191>
    16d1:	bf 01 00 00 00       	mov    $0x1,%edi
    16d6:	e8 00 00 00 00       	callq  16db <handle_newconnect+0x19b>
    16db:	bf 02 00 00 00       	mov    $0x2,%edi
    16e0:	be 00 00 00 00       	mov    $0x0,%esi
    16e5:	e8 00 00 00 00       	callq  16ea <handle_newconnect+0x1aa>
    16ea:	bf 01 00 00 00       	mov    $0x1,%edi
    16ef:	e8 00 00 00 00       	callq  16f4 <handle_newconnect+0x1b4>
    16f4:	66 66 66 2e 0f 1f 84 	data32 data32 nopw %cs:0x0(%rax,%rax,1)
    16fb:	00 00 00 00 00 

0000000000001700 <check_throttles>:
    1700:	8b 05 00 00 00 00    	mov    0x0(%rip),%eax        # 1706 <check_throttles+0x6>
    1706:	c7 47 38 00 00 00 00 	movl   $0x0,0x38(%rdi)
    170d:	48 c7 47 48 ff ff ff 	movq   $0xffffffffffffffff,0x48(%rdi)
    1714:	ff 
    1715:	48 c7 47 40 ff ff ff 	movq   $0xffffffffffffffff,0x40(%rdi)
    171c:	ff 
    171d:	85 c0                	test   %eax,%eax
    171f:	0f 8e 3a 01 00 00    	jle    185f <check_throttles+0x15f>
    1725:	41 54                	push   %r12
    1727:	45 31 e4             	xor    %r12d,%r12d
    172a:	55                   	push   %rbp
    172b:	31 ed                	xor    %ebp,%ebp
    172d:	53                   	push   %rbx
    172e:	48 89 fb             	mov    %rdi,%rbx
    1731:	eb 2f                	jmp    1762 <check_throttles+0x62>
    1733:	0f 1f 44 00 00       	nopl   0x0(%rax,%rax,1)
    1738:	48 39 f8             	cmp    %rdi,%rax
    173b:	48 0f 4c c7          	cmovl  %rdi,%rax
    173f:	48 89 43 48          	mov    %rax,0x48(%rbx)
    1743:	41 83 c4 01          	add    $0x1,%r12d
    1747:	44 39 25 00 00 00 00 	cmp    %r12d,0x0(%rip)        # 174e <check_throttles+0x4e>
    174e:	0f 8e b7 00 00 00    	jle    180b <check_throttles+0x10b>
    1754:	48 83 c5 30          	add    $0x30,%rbp
    1758:	83 7b 38 09          	cmpl   $0x9,0x38(%rbx)
    175c:	0f 8f a9 00 00 00    	jg     180b <check_throttles+0x10b>
    1762:	48 8b 43 08          	mov    0x8(%rbx),%rax
    1766:	48 8b b0 f0 00 00 00 	mov    0xf0(%rax),%rsi
    176d:	48 8b 05 00 00 00 00 	mov    0x0(%rip),%rax        # 1774 <check_throttles+0x74>
    1774:	48 8b 3c 28          	mov    (%rax,%rbp,1),%rdi
    1778:	e8 00 00 00 00       	callq  177d <check_throttles+0x7d>
    177d:	85 c0                	test   %eax,%eax
    177f:	74 c2                	je     1743 <check_throttles+0x43>
    1781:	48 89 ea             	mov    %rbp,%rdx
    1784:	48 03 15 00 00 00 00 	add    0x0(%rip),%rdx        # 178b <check_throttles+0x8b>
    178b:	48 8b 42 08          	mov    0x8(%rdx),%rax
    178f:	48 8b 4a 18          	mov    0x18(%rdx),%rcx
    1793:	48 8d 34 00          	lea    (%rax,%rax,1),%rsi
    1797:	48 39 f1             	cmp    %rsi,%rcx
    179a:	0f 8f b8 00 00 00    	jg     1858 <check_throttles+0x158>
    17a0:	48 8b 7a 10          	mov    0x10(%rdx),%rdi
    17a4:	48 39 f9             	cmp    %rdi,%rcx
    17a7:	0f 8c ab 00 00 00    	jl     1858 <check_throttles+0x158>
    17ad:	8b 4a 28             	mov    0x28(%rdx),%ecx
    17b0:	85 c9                	test   %ecx,%ecx
    17b2:	78 64                	js     1818 <check_throttles+0x118>
    17b4:	83 c1 01             	add    $0x1,%ecx
    17b7:	4c 63 c1             	movslq %ecx,%r8
    17ba:	48 63 73 38          	movslq 0x38(%rbx),%rsi
    17be:	44 8d 4e 01          	lea    0x1(%rsi),%r9d
    17c2:	44 89 4b 38          	mov    %r9d,0x38(%rbx)
    17c6:	44 89 64 b3 10       	mov    %r12d,0x10(%rbx,%rsi,4)
    17cb:	89 4a 28             	mov    %ecx,0x28(%rdx)
    17ce:	48 99                	cqto   
    17d0:	49 f7 f8             	idiv   %r8
    17d3:	48 8b 53 40          	mov    0x40(%rbx),%rdx
    17d7:	48 83 fa ff          	cmp    $0xffffffffffffffff,%rdx
    17db:	74 07                	je     17e4 <check_throttles+0xe4>
    17dd:	48 39 d0             	cmp    %rdx,%rax
    17e0:	48 0f 4f c2          	cmovg  %rdx,%rax
    17e4:	48 89 43 40          	mov    %rax,0x40(%rbx)
    17e8:	48 8b 43 48          	mov    0x48(%rbx),%rax
    17ec:	48 83 f8 ff          	cmp    $0xffffffffffffffff,%rax
    17f0:	0f 85 42 ff ff ff    	jne    1738 <check_throttles+0x38>
    17f6:	41 83 c4 01          	add    $0x1,%r12d
    17fa:	44 39 25 00 00 00 00 	cmp    %r12d,0x0(%rip)        # 1801 <check_throttles+0x101>
    1801:	48 89 7b 48          	mov    %rdi,0x48(%rbx)
    1805:	0f 8f 49 ff ff ff    	jg     1754 <check_throttles+0x54>
    180b:	5b                   	pop    %rbx
    180c:	b8 01 00 00 00       	mov    $0x1,%eax
    1811:	5d                   	pop    %rbp
    1812:	41 5c                	pop    %r12
    1814:	c3                   	retq   
    1815:	0f 1f 00             	nopl   (%rax)
    1818:	bf 03 00 00 00       	mov    $0x3,%edi
    181d:	31 c0                	xor    %eax,%eax
    181f:	be 00 00 00 00       	mov    $0x0,%esi
    1824:	e8 00 00 00 00       	callq  1829 <check_throttles+0x129>
    1829:	48 89 ea             	mov    %rbp,%rdx
    182c:	48 03 15 00 00 00 00 	add    0x0(%rip),%rdx        # 1833 <check_throttles+0x133>
    1833:	41 b8 01 00 00 00    	mov    $0x1,%r8d
    1839:	b9 01 00 00 00       	mov    $0x1,%ecx
    183e:	c7 42 28 00 00 00 00 	movl   $0x0,0x28(%rdx)
    1845:	48 8b 42 08          	mov    0x8(%rdx),%rax
    1849:	48 8b 7a 10          	mov    0x10(%rdx),%rdi
    184d:	e9 68 ff ff ff       	jmpq   17ba <check_throttles+0xba>
    1852:	66 0f 1f 44 00 00    	nopw   0x0(%rax,%rax,1)
    1858:	5b                   	pop    %rbx
    1859:	31 c0                	xor    %eax,%eax
    185b:	5d                   	pop    %rbp
    185c:	41 5c                	pop    %r12
    185e:	c3                   	retq   
    185f:	b8 01 00 00 00       	mov    $0x1,%eax
    1864:	c3                   	retq   
    1865:	66 66 2e 0f 1f 84 00 	data32 nopw %cs:0x0(%rax,%rax,1)
    186c:	00 00 00 00 

0000000000001870 <shut_down>:
    1870:	41 54                	push   %r12
    1872:	55                   	push   %rbp
    1873:	31 f6                	xor    %esi,%esi
    1875:	53                   	push   %rbx
    1876:	31 ed                	xor    %ebp,%ebp
    1878:	31 db                	xor    %ebx,%ebx
    187a:	48 83 ec 10          	sub    $0x10,%rsp
    187e:	48 89 e7             	mov    %rsp,%rdi
    1881:	e8 00 00 00 00       	callq  1886 <shut_down+0x16>
    1886:	48 89 e7             	mov    %rsp,%rdi
    1889:	e8 72 ea ff ff       	callq  300 <logstats>
    188e:	8b 0d 00 00 00 00    	mov    0x0(%rip),%ecx        # 1894 <shut_down+0x24>
    1894:	85 c9                	test   %ecx,%ecx
    1896:	7f 4c                	jg     18e4 <shut_down+0x74>
    1898:	eb 76                	jmp    1910 <shut_down+0xa0>
    189a:	66 0f 1f 44 00 00    	nopw   0x0(%rax,%rax,1)
    18a0:	48 8b 78 08          	mov    0x8(%rax),%rdi
    18a4:	48 85 ff             	test   %rdi,%rdi
    18a7:	74 29                	je     18d2 <shut_down+0x62>
    18a9:	e8 00 00 00 00       	callq  18ae <shut_down+0x3e>
    18ae:	49 89 dc             	mov    %rbx,%r12
    18b1:	4c 03 25 00 00 00 00 	add    0x0(%rip),%r12        # 18b8 <shut_down+0x48>
    18b8:	49 8b 7c 24 08       	mov    0x8(%r12),%rdi
    18bd:	e8 00 00 00 00       	callq  18c2 <shut_down+0x52>
    18c2:	83 2d 00 00 00 00 01 	subl   $0x1,0x0(%rip)        # 18c9 <shut_down+0x59>
    18c9:	49 c7 44 24 08 00 00 	movq   $0x0,0x8(%r12)
    18d0:	00 00 
    18d2:	83 c5 01             	add    $0x1,%ebp
    18d5:	48 81 c3 90 00 00 00 	add    $0x90,%rbx
    18dc:	39 2d 00 00 00 00    	cmp    %ebp,0x0(%rip)        # 18e2 <shut_down+0x72>
    18e2:	7e 2c                	jle    1910 <shut_down+0xa0>
    18e4:	48 89 d8             	mov    %rbx,%rax
    18e7:	48 03 05 00 00 00 00 	add    0x0(%rip),%rax        # 18ee <shut_down+0x7e>
    18ee:	8b 10                	mov    (%rax),%edx
    18f0:	85 d2                	test   %edx,%edx
    18f2:	74 ac                	je     18a0 <shut_down+0x30>
    18f4:	48 8b 78 08          	mov    0x8(%rax),%rdi
    18f8:	48 89 e6             	mov    %rsp,%rsi
    18fb:	e8 00 00 00 00       	callq  1900 <shut_down+0x90>
    1900:	48 89 d8             	mov    %rbx,%rax
    1903:	48 03 05 00 00 00 00 	add    0x0(%rip),%rax        # 190a <shut_down+0x9a>
    190a:	eb 94                	jmp    18a0 <shut_down+0x30>
    190c:	0f 1f 40 00          	nopl   0x0(%rax)
    1910:	48 8b 1d 00 00 00 00 	mov    0x0(%rip),%rbx        # 1917 <shut_down+0xa7>
    1917:	48 85 db             	test   %rbx,%rbx
    191a:	74 2d                	je     1949 <shut_down+0xd9>
    191c:	8b 7b 48             	mov    0x48(%rbx),%edi
    191f:	48 c7 05 00 00 00 00 	movq   $0x0,0x0(%rip)        # 192a <shut_down+0xba>
    1926:	00 00 00 00 
    192a:	83 ff ff             	cmp    $0xffffffff,%edi
    192d:	74 05                	je     1934 <shut_down+0xc4>
    192f:	e8 00 00 00 00       	callq  1934 <shut_down+0xc4>
    1934:	8b 7b 4c             	mov    0x4c(%rbx),%edi
    1937:	83 ff ff             	cmp    $0xffffffff,%edi
    193a:	74 05                	je     1941 <shut_down+0xd1>
    193c:	e8 00 00 00 00       	callq  1941 <shut_down+0xd1>
    1941:	48 89 df             	mov    %rbx,%rdi
    1944:	e8 00 00 00 00       	callq  1949 <shut_down+0xd9>
    1949:	e8 00 00 00 00       	callq  194e <shut_down+0xde>
    194e:	e8 00 00 00 00       	callq  1953 <shut_down+0xe3>
    1953:	48 8b 3d 00 00 00 00 	mov    0x0(%rip),%rdi        # 195a <shut_down+0xea>
    195a:	e8 00 00 00 00       	callq  195f <shut_down+0xef>
    195f:	48 8b 3d 00 00 00 00 	mov    0x0(%rip),%rdi        # 1966 <shut_down+0xf6>
    1966:	48 85 ff             	test   %rdi,%rdi
    1969:	74 05                	je     1970 <shut_down+0x100>
    196b:	e8 00 00 00 00       	callq  1970 <shut_down+0x100>
    1970:	48 83 c4 10          	add    $0x10,%rsp
    1974:	5b                   	pop    %rbx
    1975:	5d                   	pop    %rbp
    1976:	41 5c                	pop    %r12
    1978:	c3                   	retq   
    1979:	0f 1f 80 00 00 00 00 	nopl   0x0(%rax)

0000000000001980 <handle_usr1>:
    1980:	8b 15 00 00 00 00    	mov    0x0(%rip),%edx        # 1986 <handle_usr1+0x6>
    1986:	85 d2                	test   %edx,%edx
    1988:	74 0b                	je     1995 <handle_usr1+0x15>
    198a:	c7 05 00 00 00 00 01 	movl   $0x1,0x0(%rip)        # 1994 <handle_usr1+0x14>
    1991:	00 00 00 
    1994:	c3                   	retq   
    1995:	50                   	push   %rax
    1996:	e8 d5 fe ff ff       	callq  1870 <shut_down>
    199b:	bf 05 00 00 00       	mov    $0x5,%edi
    19a0:	be 00 00 00 00       	mov    $0x0,%esi
    19a5:	31 c0                	xor    %eax,%eax
    19a7:	e8 00 00 00 00       	callq  19ac <handle_usr1+0x2c>
    19ac:	e8 00 00 00 00       	callq  19b1 <handle_usr1+0x31>
    19b1:	31 ff                	xor    %edi,%edi
    19b3:	e8 00 00 00 00       	callq  19b8 <handle_usr1+0x38>
    19b8:	0f 1f 84 00 00 00 00 	nopl   0x0(%rax,%rax,1)
    19bf:	00 

00000000000019c0 <handle_term>:
    19c0:	53                   	push   %rbx
    19c1:	89 fb                	mov    %edi,%ebx
    19c3:	e8 a8 fe ff ff       	callq  1870 <shut_down>
    19c8:	bf 05 00 00 00       	mov    $0x5,%edi
    19cd:	89 da                	mov    %ebx,%edx
    19cf:	be 00 00 00 00       	mov    $0x0,%esi
    19d4:	31 c0                	xor    %eax,%eax
    19d6:	e8 00 00 00 00       	callq  19db <handle_term+0x1b>
    19db:	e8 00 00 00 00       	callq  19e0 <handle_term+0x20>
    19e0:	bf 01 00 00 00       	mov    $0x1,%edi
    19e5:	e8 00 00 00 00       	callq  19ea <handle_term+0x2a>
    19ea:	66 0f 1f 44 00 00    	nopw   0x0(%rax,%rax,1)

00000000000019f0 <clear_throttles.isra.0>:
    19f0:	8b 47 38             	mov    0x38(%rdi),%eax
    19f3:	85 c0                	test   %eax,%eax
    19f5:	7e 32                	jle    1a29 <clear_throttles.isra.0+0x39>
    19f7:	83 e8 01             	sub    $0x1,%eax
    19fa:	48 8b 0d 00 00 00 00 	mov    0x0(%rip),%rcx        # 1a01 <clear_throttles.isra.0+0x11>
    1a01:	48 8d 57 10          	lea    0x10(%rdi),%rdx
    1a05:	48 8d 74 87 14       	lea    0x14(%rdi,%rax,4),%rsi
    1a0a:	66 0f 1f 44 00 00    	nopw   0x0(%rax,%rax,1)
    1a10:	48 63 02             	movslq (%rdx),%rax
    1a13:	48 83 c2 04          	add    $0x4,%rdx
    1a17:	48 8d 04 40          	lea    (%rax,%rax,2),%rax
    1a1b:	48 c1 e0 04          	shl    $0x4,%rax
    1a1f:	83 6c 01 28 01       	subl   $0x1,0x28(%rcx,%rax,1)
    1a24:	48 39 f2             	cmp    %rsi,%rdx
    1a27:	75 e7                	jne    1a10 <clear_throttles.isra.0+0x20>
    1a29:	f3 c3                	repz retq 
    1a2b:	0f 1f 44 00 00       	nopl   0x0(%rax,%rax,1)

0000000000001a30 <really_clear_connection>:
    1a30:	53                   	push   %rbx
    1a31:	48 89 fb             	mov    %rdi,%rbx
    1a34:	48 83 ec 10          	sub    $0x10,%rsp
    1a38:	48 8b 7f 08          	mov    0x8(%rdi),%rdi
    1a3c:	48 8b 87 c8 00 00 00 	mov    0xc8(%rdi),%rax
    1a43:	48 01 05 00 00 00 00 	add    %rax,0x0(%rip)        # 1a4a <really_clear_connection+0x1a>
    1a4a:	83 3b 03             	cmpl   $0x3,(%rbx)
    1a4d:	74 19                	je     1a68 <really_clear_connection+0x38>
    1a4f:	8b bf c0 02 00 00    	mov    0x2c0(%rdi),%edi
    1a55:	48 89 74 24 08       	mov    %rsi,0x8(%rsp)
    1a5a:	e8 00 00 00 00       	callq  1a5f <really_clear_connection+0x2f>
    1a5f:	48 8b 7b 08          	mov    0x8(%rbx),%rdi
    1a63:	48 8b 74 24 08       	mov    0x8(%rsp),%rsi
    1a68:	e8 00 00 00 00       	callq  1a6d <really_clear_connection+0x3d>
    1a6d:	48 89 df             	mov    %rbx,%rdi
    1a70:	e8 7b ff ff ff       	callq  19f0 <clear_throttles.isra.0>
    1a75:	48 8b 7b 68          	mov    0x68(%rbx),%rdi
    1a79:	48 85 ff             	test   %rdi,%rdi
    1a7c:	74 0d                	je     1a8b <really_clear_connection+0x5b>
    1a7e:	e8 00 00 00 00       	callq  1a83 <really_clear_connection+0x53>
    1a83:	48 c7 43 68 00 00 00 	movq   $0x0,0x68(%rbx)
    1a8a:	00 
    1a8b:	8b 05 00 00 00 00    	mov    0x0(%rip),%eax        # 1a91 <really_clear_connection+0x61>
    1a91:	c7 03 00 00 00 00    	movl   $0x0,(%rbx)
    1a97:	83 2d 00 00 00 00 01 	subl   $0x1,0x0(%rip)        # 1a9e <really_clear_connection+0x6e>
    1a9e:	89 43 04             	mov    %eax,0x4(%rbx)
    1aa1:	48 2b 1d 00 00 00 00 	sub    0x0(%rip),%rbx        # 1aa8 <really_clear_connection+0x78>
    1aa8:	48 b8 39 8e e3 38 8e 	movabs $0x8e38e38e38e38e39,%rax
    1aaf:	e3 38 8e 
    1ab2:	48 c1 fb 04          	sar    $0x4,%rbx
    1ab6:	48 0f af d8          	imul   %rax,%rbx
    1aba:	89 1d 00 00 00 00    	mov    %ebx,0x0(%rip)        # 1ac0 <really_clear_connection+0x90>
    1ac0:	48 83 c4 10          	add    $0x10,%rsp
    1ac4:	5b                   	pop    %rbx
    1ac5:	c3                   	retq   
    1ac6:	66 2e 0f 1f 84 00 00 	nopw   %cs:0x0(%rax,%rax,1)
    1acd:	00 00 00 

0000000000001ad0 <clear_connection>:
    1ad0:	55                   	push   %rbp
    1ad1:	53                   	push   %rbx
    1ad2:	48 89 fb             	mov    %rdi,%rbx
    1ad5:	48 89 f5             	mov    %rsi,%rbp
    1ad8:	48 83 ec 08          	sub    $0x8,%rsp
    1adc:	48 8b 7f 60          	mov    0x60(%rdi),%rdi
    1ae0:	48 85 ff             	test   %rdi,%rdi
    1ae3:	74 0d                	je     1af2 <clear_connection+0x22>
    1ae5:	e8 00 00 00 00       	callq  1aea <clear_connection+0x1a>
    1aea:	48 c7 43 60 00 00 00 	movq   $0x0,0x60(%rbx)
    1af1:	00 
    1af2:	8b 13                	mov    (%rbx),%edx
    1af4:	83 fa 04             	cmp    $0x4,%edx
    1af7:	0f 84 93 00 00 00    	je     1b90 <clear_connection+0xc0>
    1afd:	48 8b 43 08          	mov    0x8(%rbx),%rax
    1b01:	8b 88 2c 02 00 00    	mov    0x22c(%rax),%ecx
    1b07:	85 c9                	test   %ecx,%ecx
    1b09:	0f 84 a0 00 00 00    	je     1baf <clear_connection+0xdf>
    1b0f:	83 fa 03             	cmp    $0x3,%edx
    1b12:	74 0f                	je     1b23 <clear_connection+0x53>
    1b14:	8b b8 c0 02 00 00    	mov    0x2c0(%rax),%edi
    1b1a:	e8 00 00 00 00       	callq  1b1f <clear_connection+0x4f>
    1b1f:	48 8b 43 08          	mov    0x8(%rbx),%rax
    1b23:	8b b8 c0 02 00 00    	mov    0x2c0(%rax),%edi
    1b29:	be 01 00 00 00       	mov    $0x1,%esi
    1b2e:	c7 03 04 00 00 00    	movl   $0x4,(%rbx)
    1b34:	e8 00 00 00 00       	callq  1b39 <clear_connection+0x69>
    1b39:	48 8b 43 08          	mov    0x8(%rbx),%rax
    1b3d:	31 d2                	xor    %edx,%edx
    1b3f:	48 89 de             	mov    %rbx,%rsi
    1b42:	8b b8 c0 02 00 00    	mov    0x2c0(%rax),%edi
    1b48:	e8 00 00 00 00       	callq  1b4d <clear_connection+0x7d>
    1b4d:	48 83 7b 68 00       	cmpq   $0x0,0x68(%rbx)
    1b52:	74 11                	je     1b65 <clear_connection+0x95>
    1b54:	be 00 00 00 00       	mov    $0x0,%esi
    1b59:	bf 03 00 00 00       	mov    $0x3,%edi
    1b5e:	31 c0                	xor    %eax,%eax
    1b60:	e8 00 00 00 00       	callq  1b65 <clear_connection+0x95>
    1b65:	45 31 c0             	xor    %r8d,%r8d
    1b68:	b9 f4 01 00 00       	mov    $0x1f4,%ecx
    1b6d:	48 89 da             	mov    %rbx,%rdx
    1b70:	be 00 00 00 00       	mov    $0x0,%esi
    1b75:	48 89 ef             	mov    %rbp,%rdi
    1b78:	e8 00 00 00 00       	callq  1b7d <clear_connection+0xad>
    1b7d:	48 85 c0             	test   %rax,%rax
    1b80:	48 89 43 68          	mov    %rax,0x68(%rbx)
    1b84:	74 3a                	je     1bc0 <clear_connection+0xf0>
    1b86:	48 83 c4 08          	add    $0x8,%rsp
    1b8a:	5b                   	pop    %rbx
    1b8b:	5d                   	pop    %rbp
    1b8c:	c3                   	retq   
    1b8d:	0f 1f 00             	nopl   (%rax)
    1b90:	48 8b 7b 68          	mov    0x68(%rbx),%rdi
    1b94:	e8 00 00 00 00       	callq  1b99 <clear_connection+0xc9>
    1b99:	48 8b 43 08          	mov    0x8(%rbx),%rax
    1b9d:	48 c7 43 68 00 00 00 	movq   $0x0,0x68(%rbx)
    1ba4:	00 
    1ba5:	c7 80 2c 02 00 00 00 	movl   $0x0,0x22c(%rax)
    1bac:	00 00 00 
    1baf:	48 83 c4 08          	add    $0x8,%rsp
    1bb3:	48 89 ee             	mov    %rbp,%rsi
    1bb6:	48 89 df             	mov    %rbx,%rdi
    1bb9:	5b                   	pop    %rbx
    1bba:	5d                   	pop    %rbp
    1bbb:	e9 70 fe ff ff       	jmpq   1a30 <really_clear_connection>
    1bc0:	bf 02 00 00 00       	mov    $0x2,%edi
    1bc5:	be 00 00 00 00       	mov    $0x0,%esi
    1bca:	e8 00 00 00 00       	callq  1bcf <clear_connection+0xff>
    1bcf:	bf 01 00 00 00       	mov    $0x1,%edi
    1bd4:	e8 00 00 00 00       	callq  1bd9 <clear_connection+0x109>
    1bd9:	0f 1f 80 00 00 00 00 	nopl   0x0(%rax)

0000000000001be0 <finish_connection>:
    1be0:	55                   	push   %rbp
    1be1:	53                   	push   %rbx
    1be2:	48 89 fb             	mov    %rdi,%rbx
    1be5:	48 89 f5             	mov    %rsi,%rbp
    1be8:	48 83 ec 08          	sub    $0x8,%rsp
    1bec:	48 8b 7f 08          	mov    0x8(%rdi),%rdi
    1bf0:	e8 00 00 00 00       	callq  1bf5 <finish_connection+0x15>
    1bf5:	48 83 c4 08          	add    $0x8,%rsp
    1bf9:	48 89 ee             	mov    %rbp,%rsi
    1bfc:	48 89 df             	mov    %rbx,%rdi
    1bff:	5b                   	pop    %rbx
    1c00:	5d                   	pop    %rbp
    1c01:	e9 ca fe ff ff       	jmpq   1ad0 <clear_connection>
    1c06:	66 2e 0f 1f 84 00 00 	nopw   %cs:0x0(%rax,%rax,1)
    1c0d:	00 00 00 

0000000000001c10 <handle_read>:
    1c10:	41 54                	push   %r12
    1c12:	55                   	push   %rbp
    1c13:	49 89 f4             	mov    %rsi,%r12
    1c16:	53                   	push   %rbx
    1c17:	48 8b 5f 08          	mov    0x8(%rdi),%rbx
    1c1b:	48 89 fd             	mov    %rdi,%rbp
    1c1e:	48 8b b3 a0 00 00 00 	mov    0xa0(%rbx),%rsi
    1c25:	48 8b 93 98 00 00 00 	mov    0x98(%rbx),%rdx
    1c2c:	48 39 d6             	cmp    %rdx,%rsi
    1c2f:	72 67                	jb     1c98 <handle_read+0x88>
    1c31:	48 81 fa 88 13 00 00 	cmp    $0x1388,%rdx
    1c38:	76 36                	jbe    1c70 <handle_read+0x60>
    1c3a:	4c 8b 05 00 00 00 00 	mov    0x0(%rip),%r8        # 1c41 <handle_read+0x31>
    1c41:	48 8b 15 00 00 00 00 	mov    0x0(%rip),%rdx        # 1c48 <handle_read+0x38>
    1c48:	41 b9 00 00 00 00    	mov    $0x0,%r9d
    1c4e:	4c 89 c9             	mov    %r9,%rcx
    1c51:	be 90 01 00 00       	mov    $0x190,%esi
    1c56:	48 89 df             	mov    %rbx,%rdi
    1c59:	e8 00 00 00 00       	callq  1c5e <handle_read+0x4e>
    1c5e:	5b                   	pop    %rbx
    1c5f:	4c 89 e6             	mov    %r12,%rsi
    1c62:	48 89 ef             	mov    %rbp,%rdi
    1c65:	5d                   	pop    %rbp
    1c66:	41 5c                	pop    %r12
    1c68:	e9 73 ff ff ff       	jmpq   1be0 <finish_connection>
    1c6d:	0f 1f 00             	nopl   (%rax)
    1c70:	48 8d b3 98 00 00 00 	lea    0x98(%rbx),%rsi
    1c77:	48 8d bb 90 00 00 00 	lea    0x90(%rbx),%rdi
    1c7e:	48 81 c2 e8 03 00 00 	add    $0x3e8,%rdx
    1c85:	e8 00 00 00 00       	callq  1c8a <handle_read+0x7a>
    1c8a:	48 8b 93 98 00 00 00 	mov    0x98(%rbx),%rdx
    1c91:	48 8b b3 a0 00 00 00 	mov    0xa0(%rbx),%rsi
    1c98:	48 29 f2             	sub    %rsi,%rdx
    1c9b:	48 03 b3 90 00 00 00 	add    0x90(%rbx),%rsi
    1ca2:	8b bb c0 02 00 00    	mov    0x2c0(%rbx),%edi
    1ca8:	e8 00 00 00 00       	callq  1cad <handle_read+0x9d>
    1cad:	85 c0                	test   %eax,%eax
    1caf:	74 89                	je     1c3a <handle_read+0x2a>
    1cb1:	0f 88 e9 00 00 00    	js     1da0 <handle_read+0x190>
    1cb7:	48 98                	cltq   
    1cb9:	48 01 83 a0 00 00 00 	add    %rax,0xa0(%rbx)
    1cc0:	49 8b 04 24          	mov    (%r12),%rax
    1cc4:	48 89 df             	mov    %rbx,%rdi
    1cc7:	48 89 45 58          	mov    %rax,0x58(%rbp)
    1ccb:	e8 00 00 00 00       	callq  1cd0 <handle_read+0xc0>
    1cd0:	85 c0                	test   %eax,%eax
    1cd2:	0f 84 dd 00 00 00    	je     1db5 <handle_read+0x1a5>
    1cd8:	83 f8 02             	cmp    $0x2,%eax
    1cdb:	0f 84 59 ff ff ff    	je     1c3a <handle_read+0x2a>
    1ce1:	48 89 df             	mov    %rbx,%rdi
    1ce4:	e8 00 00 00 00       	callq  1ce9 <handle_read+0xd9>
    1ce9:	85 c0                	test   %eax,%eax
    1ceb:	0f 88 6d ff ff ff    	js     1c5e <handle_read+0x4e>
    1cf1:	48 89 ef             	mov    %rbp,%rdi
    1cf4:	e8 07 fa ff ff       	callq  1700 <check_throttles>
    1cf9:	85 c0                	test   %eax,%eax
    1cfb:	0f 84 bf 00 00 00    	je     1dc0 <handle_read+0x1b0>
    1d01:	4c 89 e6             	mov    %r12,%rsi
    1d04:	48 89 df             	mov    %rbx,%rdi
    1d07:	e8 00 00 00 00       	callq  1d0c <handle_read+0xfc>
    1d0c:	85 c0                	test   %eax,%eax
    1d0e:	0f 88 4a ff ff ff    	js     1c5e <handle_read+0x4e>
    1d14:	8b 83 10 02 00 00    	mov    0x210(%rbx),%eax
    1d1a:	85 c0                	test   %eax,%eax
    1d1c:	0f 84 ce 00 00 00    	je     1df0 <handle_read+0x1e0>
    1d22:	48 8b 83 18 02 00 00 	mov    0x218(%rbx),%rax
    1d29:	48 89 85 88 00 00 00 	mov    %rax,0x88(%rbp)
    1d30:	48 8b 83 20 02 00 00 	mov    0x220(%rbx),%rax
    1d37:	48 83 c0 01          	add    $0x1,%rax
    1d3b:	48 89 85 80 00 00 00 	mov    %rax,0x80(%rbp)
    1d42:	48 83 bb c8 02 00 00 	cmpq   $0x0,0x2c8(%rbx)
    1d49:	00 
    1d4a:	0f 84 bf 00 00 00    	je     1e0f <handle_read+0x1ff>
    1d50:	48 8b 85 80 00 00 00 	mov    0x80(%rbp),%rax
    1d57:	48 39 85 88 00 00 00 	cmp    %rax,0x88(%rbp)
    1d5e:	0f 8d fa fe ff ff    	jge    1c5e <handle_read+0x4e>
    1d64:	49 8b 04 24          	mov    (%r12),%rax
    1d68:	8b bb c0 02 00 00    	mov    0x2c0(%rbx),%edi
    1d6e:	c7 45 00 02 00 00 00 	movl   $0x2,0x0(%rbp)
    1d75:	48 c7 45 70 00 00 00 	movq   $0x0,0x70(%rbp)
    1d7c:	00 
    1d7d:	48 89 45 50          	mov    %rax,0x50(%rbp)
    1d81:	e8 00 00 00 00       	callq  1d86 <handle_read+0x176>
    1d86:	8b bb c0 02 00 00    	mov    0x2c0(%rbx),%edi
    1d8c:	48 89 ee             	mov    %rbp,%rsi
    1d8f:	ba 01 00 00 00       	mov    $0x1,%edx
    1d94:	5b                   	pop    %rbx
    1d95:	5d                   	pop    %rbp
    1d96:	41 5c                	pop    %r12
    1d98:	e9 00 00 00 00       	jmpq   1d9d <handle_read+0x18d>
    1d9d:	0f 1f 00             	nopl   (%rax)
    1da0:	e8 00 00 00 00       	callq  1da5 <handle_read+0x195>
    1da5:	8b 00                	mov    (%rax),%eax
    1da7:	83 f8 04             	cmp    $0x4,%eax
    1daa:	74 09                	je     1db5 <handle_read+0x1a5>
    1dac:	83 f8 0b             	cmp    $0xb,%eax
    1daf:	0f 85 85 fe ff ff    	jne    1c3a <handle_read+0x2a>
    1db5:	5b                   	pop    %rbx
    1db6:	5d                   	pop    %rbp
    1db7:	41 5c                	pop    %r12
    1db9:	c3                   	retq   
    1dba:	66 0f 1f 44 00 00    	nopw   0x0(%rax,%rax,1)
    1dc0:	4c 8b 8b d0 00 00 00 	mov    0xd0(%rbx),%r9
    1dc7:	4c 8b 05 00 00 00 00 	mov    0x0(%rip),%r8        # 1dce <handle_read+0x1be>
    1dce:	b9 00 00 00 00       	mov    $0x0,%ecx
    1dd3:	48 8b 15 00 00 00 00 	mov    0x0(%rip),%rdx        # 1dda <handle_read+0x1ca>
    1dda:	be f7 01 00 00       	mov    $0x1f7,%esi
    1ddf:	48 89 df             	mov    %rbx,%rdi
    1de2:	e8 00 00 00 00       	callq  1de7 <handle_read+0x1d7>
    1de7:	e9 72 fe ff ff       	jmpq   1c5e <handle_read+0x4e>
    1dec:	0f 1f 40 00          	nopl   0x0(%rax)
    1df0:	48 8b 83 c0 00 00 00 	mov    0xc0(%rbx),%rax
    1df7:	ba 00 00 00 00       	mov    $0x0,%edx
    1dfc:	48 85 c0             	test   %rax,%rax
    1dff:	48 0f 48 c2          	cmovs  %rdx,%rax
    1e03:	48 89 85 80 00 00 00 	mov    %rax,0x80(%rbp)
    1e0a:	e9 33 ff ff ff       	jmpq   1d42 <handle_read+0x132>
    1e0f:	8b 45 38             	mov    0x38(%rbp),%eax
    1e12:	85 c0                	test   %eax,%eax
    1e14:	7e 3f                	jle    1e55 <handle_read+0x245>
    1e16:	83 e8 01             	sub    $0x1,%eax
    1e19:	48 8b 0d 00 00 00 00 	mov    0x0(%rip),%rcx        # 1e20 <handle_read+0x210>
    1e20:	48 8b b3 c8 00 00 00 	mov    0xc8(%rbx),%rsi
    1e27:	48 8d 55 10          	lea    0x10(%rbp),%rdx
    1e2b:	48 8d 7c 85 14       	lea    0x14(%rbp,%rax,4),%rdi
    1e30:	48 63 02             	movslq (%rdx),%rax
    1e33:	48 83 c2 04          	add    $0x4,%rdx
    1e37:	48 8d 04 40          	lea    (%rax,%rax,2),%rax
    1e3b:	48 c1 e0 04          	shl    $0x4,%rax
    1e3f:	48 01 74 01 20       	add    %rsi,0x20(%rcx,%rax,1)
    1e44:	48 39 d7             	cmp    %rdx,%rdi
    1e47:	75 e7                	jne    1e30 <handle_read+0x220>
    1e49:	48 89 b5 88 00 00 00 	mov    %rsi,0x88(%rbp)
    1e50:	e9 09 fe ff ff       	jmpq   1c5e <handle_read+0x4e>
    1e55:	48 8b b3 c8 00 00 00 	mov    0xc8(%rbx),%rsi
    1e5c:	eb eb                	jmp    1e49 <handle_read+0x239>
    1e5e:	66 90                	xchg   %ax,%ax

0000000000001e60 <idle>:
    1e60:	8b 05 00 00 00 00    	mov    0x0(%rip),%eax        # 1e66 <idle+0x6>
    1e66:	85 c0                	test   %eax,%eax
    1e68:	0f 8e 04 01 00 00    	jle    1f72 <idle+0x112>
    1e6e:	41 55                	push   %r13
    1e70:	41 54                	push   %r12
    1e72:	49 89 f5             	mov    %rsi,%r13
    1e75:	55                   	push   %rbp
    1e76:	53                   	push   %rbx
    1e77:	45 31 e4             	xor    %r12d,%r12d
    1e7a:	31 ed                	xor    %ebp,%ebp
    1e7c:	48 83 ec 08          	sub    $0x8,%rsp
    1e80:	eb 37                	jmp    1eb9 <idle+0x59>
    1e82:	66 0f 1f 44 00 00    	nopw   0x0(%rax,%rax,1)
    1e88:	7c 19                	jl     1ea3 <idle+0x43>
    1e8a:	83 f8 03             	cmp    $0x3,%eax
    1e8d:	7f 14                	jg     1ea3 <idle+0x43>
    1e8f:	49 8b 45 00          	mov    0x0(%r13),%rax
    1e93:	48 2b 43 58          	sub    0x58(%rbx),%rax
    1e97:	48 3d 2b 01 00 00    	cmp    $0x12b,%rax
    1e9d:	0f 8f 8d 00 00 00    	jg     1f30 <idle+0xd0>
    1ea3:	83 c5 01             	add    $0x1,%ebp
    1ea6:	49 81 c4 90 00 00 00 	add    $0x90,%r12
    1ead:	39 2d 00 00 00 00    	cmp    %ebp,0x0(%rip)        # 1eb3 <idle+0x53>
    1eb3:	0f 8e af 00 00 00    	jle    1f68 <idle+0x108>
    1eb9:	4c 89 e3             	mov    %r12,%rbx
    1ebc:	48 03 1d 00 00 00 00 	add    0x0(%rip),%rbx        # 1ec3 <idle+0x63>
    1ec3:	8b 03                	mov    (%rbx),%eax
    1ec5:	83 f8 01             	cmp    $0x1,%eax
    1ec8:	75 be                	jne    1e88 <idle+0x28>
    1eca:	49 8b 45 00          	mov    0x0(%r13),%rax
    1ece:	48 2b 43 58          	sub    0x58(%rbx),%rax
    1ed2:	48 83 f8 3b          	cmp    $0x3b,%rax
    1ed6:	7e cb                	jle    1ea3 <idle+0x43>
    1ed8:	48 8b 43 08          	mov    0x8(%rbx),%rax
    1edc:	48 8d 78 10          	lea    0x10(%rax),%rdi
    1ee0:	e8 00 00 00 00       	callq  1ee5 <idle+0x85>
    1ee5:	be 00 00 00 00       	mov    $0x0,%esi
    1eea:	48 89 c2             	mov    %rax,%rdx
    1eed:	bf 06 00 00 00       	mov    $0x6,%edi
    1ef2:	31 c0                	xor    %eax,%eax
    1ef4:	e8 00 00 00 00       	callq  1ef9 <idle+0x99>
    1ef9:	48 8b 7b 08          	mov    0x8(%rbx),%rdi
    1efd:	4c 8b 05 00 00 00 00 	mov    0x0(%rip),%r8        # 1f04 <idle+0xa4>
    1f04:	41 b9 00 00 00 00    	mov    $0x0,%r9d
    1f0a:	48 8b 15 00 00 00 00 	mov    0x0(%rip),%rdx        # 1f11 <idle+0xb1>
    1f11:	4c 89 c9             	mov    %r9,%rcx
    1f14:	be 98 01 00 00       	mov    $0x198,%esi
    1f19:	e8 00 00 00 00       	callq  1f1e <idle+0xbe>
    1f1e:	4c 89 ee             	mov    %r13,%rsi
    1f21:	48 89 df             	mov    %rbx,%rdi
    1f24:	e8 b7 fc ff ff       	callq  1be0 <finish_connection>
    1f29:	e9 75 ff ff ff       	jmpq   1ea3 <idle+0x43>
    1f2e:	66 90                	xchg   %ax,%ax
    1f30:	48 8b 43 08          	mov    0x8(%rbx),%rax
    1f34:	48 8d 78 10          	lea    0x10(%rax),%rdi
    1f38:	e8 00 00 00 00       	callq  1f3d <idle+0xdd>
    1f3d:	be 00 00 00 00       	mov    $0x0,%esi
    1f42:	48 89 c2             	mov    %rax,%rdx
    1f45:	bf 06 00 00 00       	mov    $0x6,%edi
    1f4a:	31 c0                	xor    %eax,%eax
    1f4c:	e8 00 00 00 00       	callq  1f51 <idle+0xf1>
    1f51:	4c 89 ee             	mov    %r13,%rsi
    1f54:	48 89 df             	mov    %rbx,%rdi
    1f57:	e8 74 fb ff ff       	callq  1ad0 <clear_connection>
    1f5c:	e9 42 ff ff ff       	jmpq   1ea3 <idle+0x43>
    1f61:	0f 1f 80 00 00 00 00 	nopl   0x0(%rax)
    1f68:	48 83 c4 08          	add    $0x8,%rsp
    1f6c:	5b                   	pop    %rbx
    1f6d:	5d                   	pop    %rbp
    1f6e:	41 5c                	pop    %r12
    1f70:	41 5d                	pop    %r13
    1f72:	f3 c3                	repz retq 
    1f74:	66 66 66 2e 0f 1f 84 	data32 data32 nopw %cs:0x0(%rax,%rax,1)
    1f7b:	00 00 00 00 00 

0000000000001f80 <handle_send>:
    1f80:	41 55                	push   %r13
    1f82:	41 54                	push   %r12
    1f84:	ba 00 ca 9a 3b       	mov    $0x3b9aca00,%edx
    1f89:	55                   	push   %rbp
    1f8a:	53                   	push   %rbx
    1f8b:	48 89 f5             	mov    %rsi,%rbp
    1f8e:	48 89 fb             	mov    %rdi,%rbx
    1f91:	48 83 ec 28          	sub    $0x28,%rsp
    1f95:	48 8b 4f 40          	mov    0x40(%rdi),%rcx
    1f99:	4c 8b 67 08          	mov    0x8(%rdi),%r12
    1f9d:	48 83 f9 ff          	cmp    $0xffffffffffffffff,%rcx
    1fa1:	74 12                	je     1fb5 <handle_send+0x35>
    1fa3:	48 8d 41 03          	lea    0x3(%rcx),%rax
    1fa7:	48 85 c9             	test   %rcx,%rcx
    1faa:	48 89 ca             	mov    %rcx,%rdx
    1fad:	48 0f 48 d0          	cmovs  %rax,%rdx
    1fb1:	48 c1 fa 02          	sar    $0x2,%rdx
    1fb5:	49 8b 84 24 d8 01 00 	mov    0x1d8(%r12),%rax
    1fbc:	00 
    1fbd:	48 85 c0             	test   %rax,%rax
    1fc0:	0f 85 7a 01 00 00    	jne    2140 <handle_send+0x1c0>
    1fc6:	48 8b b3 88 00 00 00 	mov    0x88(%rbx),%rsi
    1fcd:	48 8b 83 80 00 00 00 	mov    0x80(%rbx),%rax
    1fd4:	41 8b bc 24 c0 02 00 	mov    0x2c0(%r12),%edi
    1fdb:	00 
    1fdc:	48 29 f0             	sub    %rsi,%rax
    1fdf:	48 39 d0             	cmp    %rdx,%rax
    1fe2:	48 0f 46 d0          	cmovbe %rax,%rdx
    1fe6:	49 03 b4 24 c8 02 00 	add    0x2c8(%r12),%rsi
    1fed:	00 
    1fee:	e8 00 00 00 00       	callq  1ff3 <handle_send+0x73>
    1ff3:	85 c0                	test   %eax,%eax
    1ff5:	0f 88 a0 01 00 00    	js     219b <handle_send+0x21b>
    1ffb:	0f 84 f7 01 00 00    	je     21f8 <handle_send+0x278>
    2001:	48 8b 55 00          	mov    0x0(%rbp),%rdx
    2005:	48 89 53 58          	mov    %rdx,0x58(%rbx)
    2009:	49 8b 94 24 d8 01 00 	mov    0x1d8(%r12),%rdx
    2010:	00 
    2011:	48 85 d2             	test   %rdx,%rdx
    2014:	74 1a                	je     2030 <handle_send+0xb0>
    2016:	48 63 c8             	movslq %eax,%rcx
    2019:	48 39 ca             	cmp    %rcx,%rdx
    201c:	0f 87 46 02 00 00    	ja     2268 <handle_send+0x2e8>
    2022:	29 d0                	sub    %edx,%eax
    2024:	49 c7 84 24 d8 01 00 	movq   $0x0,0x1d8(%r12)
    202b:	00 00 00 00 00 
    2030:	48 63 f8             	movslq %eax,%rdi
    2033:	48 8b 53 08          	mov    0x8(%rbx),%rdx
    2037:	49 89 fa             	mov    %rdi,%r10
    203a:	48 89 f8             	mov    %rdi,%rax
    203d:	4c 03 93 88 00 00 00 	add    0x88(%rbx),%r10
    2044:	48 03 82 c8 00 00 00 	add    0xc8(%rdx),%rax
    204b:	4c 89 93 88 00 00 00 	mov    %r10,0x88(%rbx)
    2052:	48 89 82 c8 00 00 00 	mov    %rax,0xc8(%rdx)
    2059:	8b 53 38             	mov    0x38(%rbx),%edx
    205c:	85 d2                	test   %edx,%edx
    205e:	7e 31                	jle    2091 <handle_send+0x111>
    2060:	83 ea 01             	sub    $0x1,%edx
    2063:	4c 8b 05 00 00 00 00 	mov    0x0(%rip),%r8        # 206a <handle_send+0xea>
    206a:	48 8d 73 10          	lea    0x10(%rbx),%rsi
    206e:	4c 8d 4c 93 14       	lea    0x14(%rbx,%rdx,4),%r9
    2073:	0f 1f 44 00 00       	nopl   0x0(%rax,%rax,1)
    2078:	48 63 0e             	movslq (%rsi),%rcx
    207b:	48 83 c6 04          	add    $0x4,%rsi
    207f:	48 8d 0c 49          	lea    (%rcx,%rcx,2),%rcx
    2083:	48 c1 e1 04          	shl    $0x4,%rcx
    2087:	49 01 7c 08 20       	add    %rdi,0x20(%r8,%rcx,1)
    208c:	49 39 f1             	cmp    %rsi,%r9
    208f:	75 e7                	jne    2078 <handle_send+0xf8>
    2091:	4c 3b 93 80 00 00 00 	cmp    0x80(%rbx),%r10
    2098:	0f 8d f2 01 00 00    	jge    2290 <handle_send+0x310>
    209e:	48 8b 53 70          	mov    0x70(%rbx),%rdx
    20a2:	48 83 fa 64          	cmp    $0x64,%rdx
    20a6:	0f 8f ac 01 00 00    	jg     2258 <handle_send+0x2d8>
    20ac:	48 8b 4b 40          	mov    0x40(%rbx),%rcx
    20b0:	48 83 f9 ff          	cmp    $0xffffffffffffffff,%rcx
    20b4:	0f 84 8e 01 00 00    	je     2248 <handle_send+0x2c8>
    20ba:	4c 8b 6d 00          	mov    0x0(%rbp),%r13
    20be:	4c 2b 6b 50          	sub    0x50(%rbx),%r13
    20c2:	ba 01 00 00 00       	mov    $0x1,%edx
    20c7:	4c 0f 44 ea          	cmove  %rdx,%r13
    20cb:	48 99                	cqto   
    20cd:	49 f7 fd             	idiv   %r13
    20d0:	48 39 c1             	cmp    %rax,%rcx
    20d3:	0f 8d 6f 01 00 00    	jge    2248 <handle_send+0x2c8>
    20d9:	41 8b bc 24 c0 02 00 	mov    0x2c0(%r12),%edi
    20e0:	00 
    20e1:	c7 03 03 00 00 00    	movl   $0x3,(%rbx)
    20e7:	e8 00 00 00 00       	callq  20ec <handle_send+0x16c>
    20ec:	48 8b 43 08          	mov    0x8(%rbx),%rax
    20f0:	48 8b 80 c8 00 00 00 	mov    0xc8(%rax),%rax
    20f7:	48 99                	cqto   
    20f9:	48 f7 7b 40          	idivq  0x40(%rbx)
    20fd:	41 89 c4             	mov    %eax,%r12d
    2100:	45 29 ec             	sub    %r13d,%r12d
    2103:	48 83 7b 60 00       	cmpq   $0x0,0x60(%rbx)
    2108:	74 11                	je     211b <handle_send+0x19b>
    210a:	be 00 00 00 00       	mov    $0x0,%esi
    210f:	bf 03 00 00 00       	mov    $0x3,%edi
    2114:	31 c0                	xor    %eax,%eax
    2116:	e8 00 00 00 00       	callq  211b <handle_send+0x19b>
    211b:	45 85 e4             	test   %r12d,%r12d
    211e:	b9 f4 01 00 00       	mov    $0x1f4,%ecx
    2123:	0f 8e 03 01 00 00    	jle    222c <handle_send+0x2ac>
    2129:	4d 63 e4             	movslq %r12d,%r12
    212c:	49 69 cc e8 03 00 00 	imul   $0x3e8,%r12,%rcx
    2133:	e9 f4 00 00 00       	jmpq   222c <handle_send+0x2ac>
    2138:	0f 1f 84 00 00 00 00 	nopl   0x0(%rax,%rax,1)
    213f:	00 
    2140:	48 89 44 24 08       	mov    %rax,0x8(%rsp)
    2145:	48 8b bb 80 00 00 00 	mov    0x80(%rbx),%rdi
    214c:	48 89 e6             	mov    %rsp,%rsi
    214f:	48 8b 83 88 00 00 00 	mov    0x88(%rbx),%rax
    2156:	49 8b 8c 24 70 01 00 	mov    0x170(%r12),%rcx
    215d:	00 
    215e:	48 29 c7             	sub    %rax,%rdi
    2161:	48 89 0c 24          	mov    %rcx,(%rsp)
    2165:	48 89 c1             	mov    %rax,%rcx
    2168:	49 03 8c 24 c8 02 00 	add    0x2c8(%r12),%rcx
    216f:	00 
    2170:	48 39 d7             	cmp    %rdx,%rdi
    2173:	48 0f 46 d7          	cmovbe %rdi,%rdx
    2177:	41 8b bc 24 c0 02 00 	mov    0x2c0(%r12),%edi
    217e:	00 
    217f:	48 89 54 24 18       	mov    %rdx,0x18(%rsp)
    2184:	ba 02 00 00 00       	mov    $0x2,%edx
    2189:	48 89 4c 24 10       	mov    %rcx,0x10(%rsp)
    218e:	e8 00 00 00 00       	callq  2193 <handle_send+0x213>
    2193:	85 c0                	test   %eax,%eax
    2195:	0f 89 60 fe ff ff    	jns    1ffb <handle_send+0x7b>
    219b:	e8 00 00 00 00       	callq  21a0 <handle_send+0x220>
    21a0:	8b 00                	mov    (%rax),%eax
    21a2:	83 f8 04             	cmp    $0x4,%eax
    21a5:	0f 84 9d 00 00 00    	je     2248 <handle_send+0x2c8>
    21ab:	83 f8 0b             	cmp    $0xb,%eax
    21ae:	74 48                	je     21f8 <handle_send+0x278>
    21b0:	83 f8 20             	cmp    $0x20,%eax
    21b3:	0f 95 c1             	setne  %cl
    21b6:	83 f8 16             	cmp    $0x16,%eax
    21b9:	0f 95 c2             	setne  %dl
    21bc:	84 d1                	test   %dl,%cl
    21be:	74 1e                	je     21de <handle_send+0x25e>
    21c0:	83 f8 68             	cmp    $0x68,%eax
    21c3:	74 19                	je     21de <handle_send+0x25e>
    21c5:	49 8b 94 24 d0 00 00 	mov    0xd0(%r12),%rdx
    21cc:	00 
    21cd:	be 00 00 00 00       	mov    $0x0,%esi
    21d2:	bf 03 00 00 00       	mov    $0x3,%edi
    21d7:	31 c0                	xor    %eax,%eax
    21d9:	e8 00 00 00 00       	callq  21de <handle_send+0x25e>
    21de:	48 89 ee             	mov    %rbp,%rsi
    21e1:	48 89 df             	mov    %rbx,%rdi
    21e4:	e8 e7 f8 ff ff       	callq  1ad0 <clear_connection>
    21e9:	48 83 c4 28          	add    $0x28,%rsp
    21ed:	5b                   	pop    %rbx
    21ee:	5d                   	pop    %rbp
    21ef:	41 5c                	pop    %r12
    21f1:	41 5d                	pop    %r13
    21f3:	c3                   	retq   
    21f4:	0f 1f 40 00          	nopl   0x0(%rax)
    21f8:	48 83 43 70 64       	addq   $0x64,0x70(%rbx)
    21fd:	41 8b bc 24 c0 02 00 	mov    0x2c0(%r12),%edi
    2204:	00 
    2205:	c7 03 03 00 00 00    	movl   $0x3,(%rbx)
    220b:	e8 00 00 00 00       	callq  2210 <handle_send+0x290>
    2210:	48 83 7b 60 00       	cmpq   $0x0,0x60(%rbx)
    2215:	74 11                	je     2228 <handle_send+0x2a8>
    2217:	be 00 00 00 00       	mov    $0x0,%esi
    221c:	bf 03 00 00 00       	mov    $0x3,%edi
    2221:	31 c0                	xor    %eax,%eax
    2223:	e8 00 00 00 00       	callq  2228 <handle_send+0x2a8>
    2228:	48 8b 4b 70          	mov    0x70(%rbx),%rcx
    222c:	45 31 c0             	xor    %r8d,%r8d
    222f:	48 89 da             	mov    %rbx,%rdx
    2232:	be 00 00 00 00       	mov    $0x0,%esi
    2237:	48 89 ef             	mov    %rbp,%rdi
    223a:	e8 00 00 00 00       	callq  223f <handle_send+0x2bf>
    223f:	48 85 c0             	test   %rax,%rax
    2242:	48 89 43 60          	mov    %rax,0x60(%rbx)
    2246:	74 5e                	je     22a6 <handle_send+0x326>
    2248:	48 83 c4 28          	add    $0x28,%rsp
    224c:	5b                   	pop    %rbx
    224d:	5d                   	pop    %rbp
    224e:	41 5c                	pop    %r12
    2250:	41 5d                	pop    %r13
    2252:	c3                   	retq   
    2253:	0f 1f 44 00 00       	nopl   0x0(%rax,%rax,1)
    2258:	48 83 ea 64          	sub    $0x64,%rdx
    225c:	48 89 53 70          	mov    %rdx,0x70(%rbx)
    2260:	e9 47 fe ff ff       	jmpq   20ac <handle_send+0x12c>
    2265:	0f 1f 00             	nopl   (%rax)
    2268:	49 8b bc 24 70 01 00 	mov    0x170(%r12),%rdi
    226f:	00 
    2270:	29 c2                	sub    %eax,%edx
    2272:	4c 63 ea             	movslq %edx,%r13
    2275:	4c 89 ea             	mov    %r13,%rdx
    2278:	48 8d 34 0f          	lea    (%rdi,%rcx,1),%rsi
    227c:	e8 00 00 00 00       	callq  2281 <handle_send+0x301>
    2281:	4d 89 ac 24 d8 01 00 	mov    %r13,0x1d8(%r12)
    2288:	00 
    2289:	31 ff                	xor    %edi,%edi
    228b:	e9 a3 fd ff ff       	jmpq   2033 <handle_send+0xb3>
    2290:	48 89 ee             	mov    %rbp,%rsi
    2293:	48 89 df             	mov    %rbx,%rdi
    2296:	e8 45 f9 ff ff       	callq  1be0 <finish_connection>
    229b:	48 83 c4 28          	add    $0x28,%rsp
    229f:	5b                   	pop    %rbx
    22a0:	5d                   	pop    %rbp
    22a1:	41 5c                	pop    %r12
    22a3:	41 5d                	pop    %r13
    22a5:	c3                   	retq   
    22a6:	bf 02 00 00 00       	mov    $0x2,%edi
    22ab:	be 00 00 00 00       	mov    $0x0,%esi
    22b0:	31 c0                	xor    %eax,%eax
    22b2:	e8 00 00 00 00       	callq  22b7 <handle_send+0x337>
    22b7:	bf 01 00 00 00       	mov    $0x1,%edi
    22bc:	e8 00 00 00 00       	callq  22c1 <handle_send+0x341>
    22c1:	66 66 66 66 66 66 2e 	data32 data32 data32 data32 data32 nopw %cs:0x0(%rax,%rax,1)
    22c8:	0f 1f 84 00 00 00 00 
    22cf:	00 

00000000000022d0 <linger_clear_connection>:
    22d0:	48 c7 47 68 00 00 00 	movq   $0x0,0x68(%rdi)
    22d7:	00 
    22d8:	e9 53 f7 ff ff       	jmpq   1a30 <really_clear_connection>
    22dd:	0f 1f 00             	nopl   (%rax)

00000000000022e0 <handle_linger>:
    22e0:	55                   	push   %rbp
    22e1:	53                   	push   %rbx
    22e2:	48 89 fb             	mov    %rdi,%rbx
    22e5:	48 89 f5             	mov    %rsi,%rbp
    22e8:	ba 00 10 00 00       	mov    $0x1000,%edx
    22ed:	48 81 ec 08 10 00 00 	sub    $0x1008,%rsp
    22f4:	48 8b 47 08          	mov    0x8(%rdi),%rax
    22f8:	48 89 e6             	mov    %rsp,%rsi
    22fb:	8b b8 c0 02 00 00    	mov    0x2c0(%rax),%edi
    2301:	e8 00 00 00 00       	callq  2306 <handle_linger+0x26>
    2306:	85 c0                	test   %eax,%eax
    2308:	78 16                	js     2320 <handle_linger+0x40>
    230a:	74 25                	je     2331 <handle_linger+0x51>
    230c:	48 81 c4 08 10 00 00 	add    $0x1008,%rsp
    2313:	5b                   	pop    %rbx
    2314:	5d                   	pop    %rbp
    2315:	c3                   	retq   
    2316:	66 2e 0f 1f 84 00 00 	nopw   %cs:0x0(%rax,%rax,1)
    231d:	00 00 00 
    2320:	e8 00 00 00 00       	callq  2325 <handle_linger+0x45>
    2325:	8b 00                	mov    (%rax),%eax
    2327:	83 f8 04             	cmp    $0x4,%eax
    232a:	74 e0                	je     230c <handle_linger+0x2c>
    232c:	83 f8 0b             	cmp    $0xb,%eax
    232f:	74 db                	je     230c <handle_linger+0x2c>
    2331:	48 89 ee             	mov    %rbp,%rsi
    2334:	48 89 df             	mov    %rbx,%rdi
    2337:	e8 f4 f6 ff ff       	callq  1a30 <really_clear_connection>
    233c:	48 81 c4 08 10 00 00 	add    $0x1008,%rsp
    2343:	5b                   	pop    %rbx
    2344:	5d                   	pop    %rbp
    2345:	c3                   	retq   
    2346:	66 2e 0f 1f 84 00 00 	nopw   %cs:0x0(%rax,%rax,1)
    234d:	00 00 00 

0000000000002350 <lookup_hostname.constprop.1>:
    2350:	41 56                	push   %r14
    2352:	41 55                	push   %r13
    2354:	31 c0                	xor    %eax,%eax
    2356:	41 54                	push   %r12
    2358:	55                   	push   %rbp
    2359:	49 89 cd             	mov    %rcx,%r13
    235c:	53                   	push   %rbx
    235d:	48 89 fd             	mov    %rdi,%rbp
    2360:	b9 06 00 00 00       	mov    $0x6,%ecx
    2365:	49 89 f4             	mov    %rsi,%r12
    2368:	49 89 d6             	mov    %rdx,%r14
    236b:	be 0a 00 00 00       	mov    $0xa,%esi
    2370:	48 83 ec 50          	sub    $0x50,%rsp
    2374:	ba 00 00 00 00       	mov    $0x0,%edx
    2379:	48 8d 5c 24 20       	lea    0x20(%rsp),%rbx
    237e:	48 89 df             	mov    %rbx,%rdi
    2381:	f3 48 ab             	rep stos %rax,%es:(%rdi)
    2384:	0f b7 0d 00 00 00 00 	movzwl 0x0(%rip),%ecx        # 238b <lookup_hostname.constprop.1+0x3b>
    238b:	48 8d 7c 24 10       	lea    0x10(%rsp),%rdi
    2390:	c7 44 24 20 01 00 00 	movl   $0x1,0x20(%rsp)
    2397:	00 
    2398:	c7 44 24 28 01 00 00 	movl   $0x1,0x28(%rsp)
    239f:	00 
    23a0:	e8 00 00 00 00       	callq  23a5 <lookup_hostname.constprop.1+0x55>
    23a5:	48 8b 3d 00 00 00 00 	mov    0x0(%rip),%rdi        # 23ac <lookup_hostname.constprop.1+0x5c>
    23ac:	48 8d 4c 24 08       	lea    0x8(%rsp),%rcx
    23b1:	48 8d 74 24 10       	lea    0x10(%rsp),%rsi
    23b6:	48 89 da             	mov    %rbx,%rdx
    23b9:	e8 00 00 00 00       	callq  23be <lookup_hostname.constprop.1+0x6e>
    23be:	85 c0                	test   %eax,%eax
    23c0:	0f 85 11 01 00 00    	jne    24d7 <lookup_hostname.constprop.1+0x187>
    23c6:	48 8b 44 24 08       	mov    0x8(%rsp),%rax
    23cb:	48 85 c0             	test   %rax,%rax
    23ce:	0f 84 c5 00 00 00    	je     2499 <lookup_hostname.constprop.1+0x149>
    23d4:	31 db                	xor    %ebx,%ebx
    23d6:	31 f6                	xor    %esi,%esi
    23d8:	eb 1b                	jmp    23f5 <lookup_hostname.constprop.1+0xa5>
    23da:	66 0f 1f 44 00 00    	nopw   0x0(%rax,%rax,1)
    23e0:	83 fa 0a             	cmp    $0xa,%edx
    23e3:	75 07                	jne    23ec <lookup_hostname.constprop.1+0x9c>
    23e5:	48 85 f6             	test   %rsi,%rsi
    23e8:	48 0f 44 f0          	cmove  %rax,%rsi
    23ec:	48 8b 40 28          	mov    0x28(%rax),%rax
    23f0:	48 85 c0             	test   %rax,%rax
    23f3:	74 18                	je     240d <lookup_hostname.constprop.1+0xbd>
    23f5:	8b 50 04             	mov    0x4(%rax),%edx
    23f8:	83 fa 02             	cmp    $0x2,%edx
    23fb:	75 e3                	jne    23e0 <lookup_hostname.constprop.1+0x90>
    23fd:	48 85 db             	test   %rbx,%rbx
    2400:	48 0f 44 d8          	cmove  %rax,%rbx
    2404:	48 8b 40 28          	mov    0x28(%rax),%rax
    2408:	48 85 c0             	test   %rax,%rax
    240b:	75 e8                	jne    23f5 <lookup_hostname.constprop.1+0xa5>
    240d:	48 85 f6             	test   %rsi,%rsi
    2410:	0f 84 80 00 00 00    	je     2496 <lookup_hostname.constprop.1+0x146>
    2416:	44 8b 46 10          	mov    0x10(%rsi),%r8d
    241a:	49 81 f8 80 00 00 00 	cmp    $0x80,%r8
    2421:	0f 87 89 00 00 00    	ja     24b0 <lookup_hostname.constprop.1+0x160>
    2427:	b9 10 00 00 00       	mov    $0x10,%ecx
    242c:	4c 89 f7             	mov    %r14,%rdi
    242f:	f3 48 ab             	rep stos %rax,%es:(%rdi)
    2432:	4c 89 f7             	mov    %r14,%rdi
    2435:	8b 56 10             	mov    0x10(%rsi),%edx
    2438:	48 8b 76 18          	mov    0x18(%rsi),%rsi
    243c:	e8 00 00 00 00       	callq  2441 <lookup_hostname.constprop.1+0xf1>
    2441:	41 c7 45 00 01 00 00 	movl   $0x1,0x0(%r13)
    2448:	00 
    2449:	48 85 db             	test   %rbx,%rbx
    244c:	74 58                	je     24a6 <lookup_hostname.constprop.1+0x156>
    244e:	44 8b 43 10          	mov    0x10(%rbx),%r8d
    2452:	49 81 f8 80 00 00 00 	cmp    $0x80,%r8
    2459:	77 55                	ja     24b0 <lookup_hostname.constprop.1+0x160>
    245b:	31 c0                	xor    %eax,%eax
    245d:	b9 10 00 00 00       	mov    $0x10,%ecx
    2462:	48 89 ef             	mov    %rbp,%rdi
    2465:	f3 48 ab             	rep stos %rax,%es:(%rdi)
    2468:	48 89 ef             	mov    %rbp,%rdi
    246b:	8b 53 10             	mov    0x10(%rbx),%edx
    246e:	48 8b 73 18          	mov    0x18(%rbx),%rsi
    2472:	e8 00 00 00 00       	callq  2477 <lookup_hostname.constprop.1+0x127>
    2477:	41 c7 04 24 01 00 00 	movl   $0x1,(%r12)
    247e:	00 
    247f:	48 8b 7c 24 08       	mov    0x8(%rsp),%rdi
    2484:	e8 00 00 00 00       	callq  2489 <lookup_hostname.constprop.1+0x139>
    2489:	48 83 c4 50          	add    $0x50,%rsp
    248d:	5b                   	pop    %rbx
    248e:	5d                   	pop    %rbp
    248f:	41 5c                	pop    %r12
    2491:	41 5d                	pop    %r13
    2493:	41 5e                	pop    %r14
    2495:	c3                   	retq   
    2496:	48 89 d8             	mov    %rbx,%rax
    2499:	41 c7 45 00 00 00 00 	movl   $0x0,0x0(%r13)
    24a0:	00 
    24a1:	48 89 c3             	mov    %rax,%rbx
    24a4:	eb a3                	jmp    2449 <lookup_hostname.constprop.1+0xf9>
    24a6:	41 c7 04 24 00 00 00 	movl   $0x0,(%r12)
    24ad:	00 
    24ae:	eb cf                	jmp    247f <lookup_hostname.constprop.1+0x12f>
    24b0:	48 8b 15 00 00 00 00 	mov    0x0(%rip),%rdx        # 24b7 <lookup_hostname.constprop.1+0x167>
    24b7:	bf 02 00 00 00       	mov    $0x2,%edi
    24bc:	b9 80 00 00 00       	mov    $0x80,%ecx
    24c1:	be 00 00 00 00       	mov    $0x0,%esi
    24c6:	31 c0                	xor    %eax,%eax
    24c8:	e8 00 00 00 00       	callq  24cd <lookup_hostname.constprop.1+0x17d>
    24cd:	bf 01 00 00 00       	mov    $0x1,%edi
    24d2:	e8 00 00 00 00       	callq  24d7 <lookup_hostname.constprop.1+0x187>
    24d7:	89 c7                	mov    %eax,%edi
    24d9:	89 c3                	mov    %eax,%ebx
    24db:	e8 00 00 00 00       	callq  24e0 <lookup_hostname.constprop.1+0x190>
    24e0:	48 8b 15 00 00 00 00 	mov    0x0(%rip),%rdx        # 24e7 <lookup_hostname.constprop.1+0x197>
    24e7:	48 89 c1             	mov    %rax,%rcx
    24ea:	be 00 00 00 00       	mov    $0x0,%esi
    24ef:	bf 02 00 00 00       	mov    $0x2,%edi
    24f4:	31 c0                	xor    %eax,%eax
    24f6:	e8 00 00 00 00       	callq  24fb <lookup_hostname.constprop.1+0x1ab>
    24fb:	89 df                	mov    %ebx,%edi
    24fd:	e8 00 00 00 00       	callq  2502 <lookup_hostname.constprop.1+0x1b2>
    2502:	48 8b 3d 00 00 00 00 	mov    0x0(%rip),%rdi        # 2509 <lookup_hostname.constprop.1+0x1b9>
    2509:	48 8b 0d 00 00 00 00 	mov    0x0(%rip),%rcx        # 2510 <lookup_hostname.constprop.1+0x1c0>
    2510:	49 89 c0             	mov    %rax,%r8
    2513:	48 8b 15 00 00 00 00 	mov    0x0(%rip),%rdx        # 251a <lookup_hostname.constprop.1+0x1ca>
    251a:	be 00 00 00 00       	mov    $0x0,%esi
    251f:	31 c0                	xor    %eax,%eax
    2521:	e8 00 00 00 00       	callq  2526 <lookup_hostname.constprop.1+0x1d6>
    2526:	bf 01 00 00 00       	mov    $0x1,%edi
    252b:	e8 00 00 00 00       	callq  2530 <lookup_hostname.constprop.1+0x1e0>

Disassembly of section .text.unlikely:

0000000000000000 <usage>:
   0:	50                   	push   %rax
   1:	48 8b 3d 00 00 00 00 	mov    0x0(%rip),%rdi        # 8 <usage+0x8>
   8:	be 00 00 00 00       	mov    $0x0,%esi
   d:	48 8b 15 00 00 00 00 	mov    0x0(%rip),%rdx        # 14 <usage+0x14>
  14:	31 c0                	xor    %eax,%eax
  16:	e8 00 00 00 00       	callq  1b <usage+0x1b>
  1b:	bf 01 00 00 00       	mov    $0x1,%edi
  20:	e8 00 00 00 00       	callq  25 <num_connects+0x1>

Disassembly of section .text.startup:

0000000000000000 <main>:
   0:	41 57                	push   %r15
   2:	41 56                	push   %r14
   4:	41 55                	push   %r13
   6:	41 54                	push   %r12
   8:	41 89 fc             	mov    %edi,%r12d
   b:	55                   	push   %rbp
   c:	53                   	push   %rbx
   d:	48 89 f5             	mov    %rsi,%rbp
  10:	48 81 ec 48 11 00 00 	sub    $0x1148,%rsp
  17:	48 8b 1e             	mov    (%rsi),%rbx
  1a:	be 2f 00 00 00       	mov    $0x2f,%esi
  1f:	48 89 df             	mov    %rbx,%rdi
  22:	48 89 1d 00 00 00 00 	mov    %rbx,0x0(%rip)        # 29 <main+0x29>
  29:	e8 00 00 00 00       	callq  2e <main+0x2e>
  2e:	48 8d 50 01          	lea    0x1(%rax),%rdx
  32:	48 85 c0             	test   %rax,%rax
  35:	be 09 00 00 00       	mov    $0x9,%esi
  3a:	48 0f 45 da          	cmovne %rdx,%rbx
  3e:	ba 18 00 00 00       	mov    $0x18,%edx
  43:	48 89 df             	mov    %rbx,%rdi
  46:	e8 00 00 00 00       	callq  4b <main+0x4b>
  4b:	48 89 ee             	mov    %rbp,%rsi
  4e:	44 89 e7             	mov    %r12d,%edi
  51:	48 8d ac 24 b0 00 00 	lea    0xb0(%rsp),%rbp
  58:	00 
  59:	4c 8d 64 24 30       	lea    0x30(%rsp),%r12
  5e:	e8 00 00 00 00       	callq  63 <main+0x63>
  63:	e8 00 00 00 00       	callq  68 <main+0x68>
  68:	48 8d 4c 24 1c       	lea    0x1c(%rsp),%rcx
  6d:	48 8d 74 24 18       	lea    0x18(%rsp),%rsi
  72:	48 89 ea             	mov    %rbp,%rdx
  75:	4c 89 e7             	mov    %r12,%rdi
  78:	e8 00 00 00 00       	callq  7d <main+0x7d>
  7d:	8b 4c 24 18          	mov    0x18(%rsp),%ecx
  81:	85 c9                	test   %ecx,%ecx
  83:	75 0b                	jne    90 <main+0x90>
  85:	83 7c 24 1c 00       	cmpl   $0x0,0x1c(%rsp)
  8a:	0f 84 7a 06 00 00    	je     70a <main+0x70a>
  90:	48 8b 3d 00 00 00 00 	mov    0x0(%rip),%rdi        # 97 <main+0x97>
  97:	c7 05 00 00 00 00 00 	movl   $0x0,0x0(%rip)        # a1 <main+0xa1>
  9e:	00 00 00 
  a1:	c7 05 00 00 00 00 00 	movl   $0x0,0x0(%rip)        # ab <main+0xab>
  a8:	00 00 00 
  ab:	48 c7 05 00 00 00 00 	movq   $0x0,0x0(%rip)        # b6 <main+0xb6>
  b2:	00 00 00 00 
  b6:	48 85 ff             	test   %rdi,%rdi
  b9:	74 05                	je     c0 <main+0xc0>
  bb:	e8 00 00 00 00       	callq  c0 <main+0xc0>
  c0:	e8 00 00 00 00       	callq  c5 <main+0xc5>
  c5:	85 c0                	test   %eax,%eax
  c7:	41 bf ff 7f 00 00    	mov    $0x7fff,%r15d
  cd:	c7 44 24 04 ff 7f 00 	movl   $0x7fff,0x4(%rsp)
  d4:	00 
  d5:	0f 84 0a 06 00 00    	je     6e5 <main+0x6e5>
  db:	48 8b 1d 00 00 00 00 	mov    0x0(%rip),%rbx        # e2 <main+0xe2>
  e2:	48 85 db             	test   %rbx,%rbx
  e5:	0f 84 fa 07 00 00    	je     8e5 <main+0x8e5>
  eb:	bf 00 00 00 00       	mov    $0x0,%edi
  f0:	b9 0a 00 00 00       	mov    $0xa,%ecx
  f5:	48 89 de             	mov    %rbx,%rsi
  f8:	f3 a6                	repz cmpsb %es:(%rdi),%ds:(%rsi)
  fa:	0f 84 ae 05 00 00    	je     6ae <main+0x6ae>
 100:	be 00 00 00 00       	mov    $0x0,%esi
 105:	48 89 df             	mov    %rbx,%rdi
 108:	e8 00 00 00 00       	callq  10d <main+0x10d>
 10d:	85 c0                	test   %eax,%eax
 10f:	0f 85 d8 07 00 00    	jne    8ed <main+0x8ed>
 115:	4c 8b 35 00 00 00 00 	mov    0x0(%rip),%r14        # 11c <main+0x11c>
 11c:	48 8b 3d 00 00 00 00 	mov    0x0(%rip),%rdi        # 123 <main+0x123>
 123:	48 85 ff             	test   %rdi,%rdi
 126:	74 0d                	je     135 <main+0x135>
 128:	e8 00 00 00 00       	callq  12d <main+0x12d>
 12d:	85 c0                	test   %eax,%eax
 12f:	0f 88 83 08 00 00    	js     9b8 <main+0x9b8>
 135:	48 8d 9c 24 30 01 00 	lea    0x130(%rsp),%rbx
 13c:	00 
 13d:	be 00 10 00 00       	mov    $0x1000,%esi
 142:	48 89 df             	mov    %rbx,%rdi
 145:	e8 00 00 00 00       	callq  14a <main+0x14a>
 14a:	48 89 da             	mov    %rbx,%rdx
 14d:	8b 0a                	mov    (%rdx),%ecx
 14f:	48 83 c2 04          	add    $0x4,%rdx
 153:	8d 81 ff fe fe fe    	lea    -0x1010101(%rcx),%eax
 159:	f7 d1                	not    %ecx
 15b:	21 c8                	and    %ecx,%eax
 15d:	25 80 80 80 80       	and    $0x80808080,%eax
 162:	74 e9                	je     14d <main+0x14d>
 164:	89 c1                	mov    %eax,%ecx
 166:	c1 e9 10             	shr    $0x10,%ecx
 169:	a9 80 80 00 00       	test   $0x8080,%eax
 16e:	0f 44 c1             	cmove  %ecx,%eax
 171:	48 8d 4a 02          	lea    0x2(%rdx),%rcx
 175:	48 0f 44 d1          	cmove  %rcx,%rdx
 179:	00 c0                	add    %al,%al
 17b:	48 83 da 03          	sbb    $0x3,%rdx
 17f:	48 29 da             	sub    %rbx,%rdx
 182:	80 bc 14 2f 01 00 00 	cmpb   $0x2f,0x12f(%rsp,%rdx,1)
 189:	2f 
 18a:	74 06                	je     192 <main+0x192>
 18c:	66 c7 04 13 2f 00    	movw   $0x2f,(%rbx,%rdx,1)
 192:	8b 15 00 00 00 00    	mov    0x0(%rip),%edx        # 198 <main+0x198>
 198:	85 d2                	test   %edx,%edx
 19a:	0f 85 20 05 00 00    	jne    6c0 <main+0x6c0>
 1a0:	48 8b 3d 00 00 00 00 	mov    0x0(%rip),%rdi        # 1a7 <main+0x1a7>
 1a7:	e8 00 00 00 00       	callq  1ac <main+0x1ac>
 1ac:	48 8b 3d 00 00 00 00 	mov    0x0(%rip),%rdi        # 1b3 <main+0x1b3>
 1b3:	49 39 fe             	cmp    %rdi,%r14
 1b6:	74 05                	je     1bd <main+0x1bd>
 1b8:	e8 00 00 00 00       	callq  1bd <main+0x1bd>
 1bd:	48 8b 3d 00 00 00 00 	mov    0x0(%rip),%rdi        # 1c4 <main+0x1c4>
 1c4:	e8 00 00 00 00       	callq  1c9 <main+0x1c9>
 1c9:	be 01 00 00 00       	mov    $0x1,%esi
 1ce:	bf 01 00 00 00       	mov    $0x1,%edi
 1d3:	e8 00 00 00 00       	callq  1d8 <main+0x1d8>
 1d8:	85 c0                	test   %eax,%eax
 1da:	be 00 00 00 00       	mov    $0x0,%esi
 1df:	0f 88 ea 04 00 00    	js     6cf <main+0x6cf>
 1e5:	48 8b 3d 00 00 00 00 	mov    0x0(%rip),%rdi        # 1ec <main+0x1ec>
 1ec:	48 85 ff             	test   %rdi,%rdi
 1ef:	74 34                	je     225 <main+0x225>
 1f1:	be 00 00 00 00       	mov    $0x0,%esi
 1f6:	e8 00 00 00 00       	callq  1fb <main+0x1fb>
 1fb:	48 85 c0             	test   %rax,%rax
 1fe:	49 89 c5             	mov    %rax,%r13
 201:	0f 84 d6 07 00 00    	je     9dd <main+0x9dd>
 207:	e8 00 00 00 00       	callq  20c <main+0x20c>
 20c:	4c 89 ef             	mov    %r13,%rdi
 20f:	89 c2                	mov    %eax,%edx
 211:	be 00 00 00 00       	mov    $0x0,%esi
 216:	31 c0                	xor    %eax,%eax
 218:	e8 00 00 00 00       	callq  21d <main+0x21d>
 21d:	4c 89 ef             	mov    %r13,%rdi
 220:	e8 00 00 00 00       	callq  225 <main+0x225>
 225:	e8 00 00 00 00       	callq  22a <main+0x22a>
 22a:	85 c0                	test   %eax,%eax
 22c:	89 05 00 00 00 00    	mov    %eax,0x0(%rip)        # 232 <main+0x232>
 232:	0f 88 92 04 00 00    	js     6ca <main+0x6ca>
 238:	83 e8 0a             	sub    $0xa,%eax
 23b:	83 3d 00 00 00 00 00 	cmpl   $0x0,0x0(%rip)        # 242 <main+0x242>
 242:	89 05 00 00 00 00    	mov    %eax,0x0(%rip)        # 248 <main+0x248>
 248:	0f 85 ef 05 00 00    	jne    83d <main+0x83d>
 24e:	48 8b 3d 00 00 00 00 	mov    0x0(%rip),%rdi        # 255 <main+0x255>
 255:	48 85 ff             	test   %rdi,%rdi
 258:	74 0d                	je     267 <main+0x267>
 25a:	e8 00 00 00 00       	callq  25f <main+0x25f>
 25f:	85 c0                	test   %eax,%eax
 261:	0f 88 b1 07 00 00    	js     a18 <main+0xa18>
 267:	be 00 00 00 00       	mov    $0x0,%esi
 26c:	bf 0f 00 00 00       	mov    $0xf,%edi
 271:	31 c0                	xor    %eax,%eax
 273:	e8 00 00 00 00       	callq  278 <main+0x278>
 278:	be 00 00 00 00       	mov    $0x0,%esi
 27d:	bf 02 00 00 00       	mov    $0x2,%edi
 282:	31 c0                	xor    %eax,%eax
 284:	e8 00 00 00 00       	callq  289 <main+0x289>
 289:	be 00 00 00 00       	mov    $0x0,%esi
 28e:	bf 11 00 00 00       	mov    $0x11,%edi
 293:	31 c0                	xor    %eax,%eax
 295:	e8 00 00 00 00       	callq  29a <main+0x29a>
 29a:	be 01 00 00 00       	mov    $0x1,%esi
 29f:	bf 0d 00 00 00       	mov    $0xd,%edi
 2a4:	31 c0                	xor    %eax,%eax
 2a6:	e8 00 00 00 00       	callq  2ab <main+0x2ab>
 2ab:	be 00 00 00 00       	mov    $0x0,%esi
 2b0:	bf 01 00 00 00       	mov    $0x1,%edi
 2b5:	31 c0                	xor    %eax,%eax
 2b7:	e8 00 00 00 00       	callq  2bc <main+0x2bc>
 2bc:	be 00 00 00 00       	mov    $0x0,%esi
 2c1:	bf 0a 00 00 00       	mov    $0xa,%edi
 2c6:	31 c0                	xor    %eax,%eax
 2c8:	e8 00 00 00 00       	callq  2cd <main+0x2cd>
 2cd:	be 00 00 00 00       	mov    $0x0,%esi
 2d2:	bf 0c 00 00 00       	mov    $0xc,%edi
 2d7:	31 c0                	xor    %eax,%eax
 2d9:	e8 00 00 00 00       	callq  2de <main+0x2de>
 2de:	be 00 00 00 00       	mov    $0x0,%esi
 2e3:	bf 0e 00 00 00       	mov    $0xe,%edi
 2e8:	31 c0                	xor    %eax,%eax
 2ea:	e8 00 00 00 00       	callq  2ef <main+0x2ef>
 2ef:	bf 68 01 00 00       	mov    $0x168,%edi
 2f4:	c7 05 00 00 00 00 00 	movl   $0x0,0x0(%rip)        # 2fe <main+0x2fe>
 2fb:	00 00 00 
 2fe:	c7 05 00 00 00 00 00 	movl   $0x0,0x0(%rip)        # 308 <main+0x308>
 305:	00 00 00 
 308:	c7 05 00 00 00 00 00 	movl   $0x0,0x0(%rip)        # 312 <main+0x312>
 30f:	00 00 00 
 312:	e8 00 00 00 00       	callq  317 <main+0x317>
 317:	e8 00 00 00 00       	callq  31c <main+0x31c>
 31c:	31 f6                	xor    %esi,%esi
 31e:	83 7c 24 1c 00       	cmpl   $0x0,0x1c(%rsp)
 323:	8b 05 00 00 00 00    	mov    0x0(%rip),%eax        # 329 <main+0x329>
 329:	48 89 ea             	mov    %rbp,%rdx
 32c:	0f b7 0d 00 00 00 00 	movzwl 0x0(%rip),%ecx        # 333 <main+0x333>
 333:	44 8b 0d 00 00 00 00 	mov    0x0(%rip),%r9d        # 33a <main+0x33a>
 33a:	4c 8b 05 00 00 00 00 	mov    0x0(%rip),%r8        # 341 <main+0x341>
 341:	48 8b 3d 00 00 00 00 	mov    0x0(%rip),%rdi        # 348 <main+0x348>
 348:	48 0f 44 d6          	cmove  %rsi,%rdx
 34c:	83 7c 24 18 00       	cmpl   $0x0,0x18(%rsp)
 351:	50                   	push   %rax
 352:	8b 05 00 00 00 00    	mov    0x0(%rip),%eax        # 358 <main+0x358>
 358:	ff 35 00 00 00 00    	pushq  0x0(%rip)        # 35e <main+0x35e>
 35e:	ff 35 00 00 00 00    	pushq  0x0(%rip)        # 364 <main+0x364>
 364:	50                   	push   %rax
 365:	8b 05 00 00 00 00    	mov    0x0(%rip),%eax        # 36b <main+0x36b>
 36b:	49 0f 45 f4          	cmovne %r12,%rsi
 36f:	50                   	push   %rax
 370:	8b 05 00 00 00 00    	mov    0x0(%rip),%eax        # 376 <main+0x376>
 376:	50                   	push   %rax
 377:	8b 05 00 00 00 00    	mov    0x0(%rip),%eax        # 37d <main+0x37d>
 37d:	41 56                	push   %r14
 37f:	50                   	push   %rax
 380:	8b 05 00 00 00 00    	mov    0x0(%rip),%eax        # 386 <main+0x386>
 386:	53                   	push   %rbx
 387:	50                   	push   %rax
 388:	ff 35 00 00 00 00    	pushq  0x0(%rip)        # 38e <main+0x38e>
 38e:	ff 35 00 00 00 00    	pushq  0x0(%rip)        # 394 <main+0x394>
 394:	e8 00 00 00 00       	callq  399 <main+0x399>
 399:	48 83 c4 60          	add    $0x60,%rsp
 39d:	48 85 c0             	test   %rax,%rax
 3a0:	48 89 05 00 00 00 00 	mov    %rax,0x0(%rip)        # 3a7 <main+0x3a7>
 3a7:	0f 84 2e 03 00 00    	je     6db <main+0x6db>
 3ad:	48 8b 15 00 00 00 00 	mov    0x0(%rip),%rdx        # 3b4 <main+0x3b4>
 3b4:	31 ff                	xor    %edi,%edi
 3b6:	41 b8 01 00 00 00    	mov    $0x1,%r8d
 3bc:	b9 c0 d4 01 00       	mov    $0x1d4c0,%ecx
 3c1:	be 00 00 00 00       	mov    $0x0,%esi
 3c6:	e8 00 00 00 00       	callq  3cb <main+0x3cb>
 3cb:	48 85 c0             	test   %rax,%rax
 3ce:	0f 84 2b 06 00 00    	je     9ff <main+0x9ff>
 3d4:	48 8b 15 00 00 00 00 	mov    0x0(%rip),%rdx        # 3db <main+0x3db>
 3db:	31 ff                	xor    %edi,%edi
 3dd:	41 b8 01 00 00 00    	mov    $0x1,%r8d
 3e3:	b9 88 13 00 00       	mov    $0x1388,%ecx
 3e8:	be 00 00 00 00       	mov    $0x0,%esi
 3ed:	e8 00 00 00 00       	callq  3f2 <main+0x3f2>
 3f2:	48 85 c0             	test   %rax,%rax
 3f5:	0f 84 48 07 00 00    	je     b43 <main+0xb43>
 3fb:	83 3d 00 00 00 00 00 	cmpl   $0x0,0x0(%rip)        # 402 <main+0x402>
 402:	7e 27                	jle    42b <main+0x42b>
 404:	48 8b 15 00 00 00 00 	mov    0x0(%rip),%rdx        # 40b <main+0x40b>
 40b:	31 ff                	xor    %edi,%edi
 40d:	41 b8 01 00 00 00    	mov    $0x1,%r8d
 413:	b9 d0 07 00 00       	mov    $0x7d0,%ecx
 418:	be 00 00 00 00       	mov    $0x0,%esi
 41d:	e8 00 00 00 00       	callq  422 <main+0x422>
 422:	48 85 c0             	test   %rax,%rax
 425:	0f 84 58 06 00 00    	je     a83 <main+0xa83>
 42b:	48 8b 15 00 00 00 00 	mov    0x0(%rip),%rdx        # 432 <main+0x432>
 432:	31 ff                	xor    %edi,%edi
 434:	41 b8 01 00 00 00    	mov    $0x1,%r8d
 43a:	b9 80 ee 36 00       	mov    $0x36ee80,%ecx
 43f:	be 00 00 00 00       	mov    $0x0,%esi
 444:	e8 00 00 00 00       	callq  449 <main+0x449>
 449:	48 85 c0             	test   %rax,%rax
 44c:	0f 84 8c 06 00 00    	je     ade <main+0xade>
 452:	31 ff                	xor    %edi,%edi
 454:	e8 00 00 00 00       	callq  459 <main+0x459>
 459:	48 c7 05 00 00 00 00 	movq   $0x0,0x0(%rip)        # 464 <main+0x464>
 460:	00 00 00 00 
 464:	48 89 05 00 00 00 00 	mov    %rax,0x0(%rip)        # 46b <main+0x46b>
 46b:	48 89 05 00 00 00 00 	mov    %rax,0x0(%rip)        # 472 <main+0x472>
 472:	48 c7 05 00 00 00 00 	movq   $0x0,0x0(%rip)        # 47d <main+0x47d>
 479:	00 00 00 00 
 47d:	c7 05 00 00 00 00 00 	movl   $0x0,0x0(%rip)        # 487 <main+0x487>
 484:	00 00 00 
 487:	e8 00 00 00 00       	callq  48c <main+0x48c>
 48c:	85 c0                	test   %eax,%eax
 48e:	75 65                	jne    4f5 <main+0x4f5>
 490:	31 f6                	xor    %esi,%esi
 492:	31 ff                	xor    %edi,%edi
 494:	e8 00 00 00 00       	callq  499 <main+0x499>
 499:	85 c0                	test   %eax,%eax
 49b:	be 00 00 00 00       	mov    $0x0,%esi
 4a0:	0f 88 29 02 00 00    	js     6cf <main+0x6cf>
 4a6:	44 89 ff             	mov    %r15d,%edi
 4a9:	e8 00 00 00 00       	callq  4ae <main+0x4ae>
 4ae:	85 c0                	test   %eax,%eax
 4b0:	be 00 00 00 00       	mov    $0x0,%esi
 4b5:	0f 88 14 02 00 00    	js     6cf <main+0x6cf>
 4bb:	48 8b 3d 00 00 00 00 	mov    0x0(%rip),%rdi        # 4c2 <main+0x4c2>
 4c2:	44 89 fe             	mov    %r15d,%esi
 4c5:	e8 00 00 00 00       	callq  4ca <main+0x4ca>
 4ca:	85 c0                	test   %eax,%eax
 4cc:	0f 88 fa 06 00 00    	js     bcc <main+0xbcc>
 4d2:	8b 7c 24 04          	mov    0x4(%rsp),%edi
 4d6:	e8 00 00 00 00       	callq  4db <main+0x4db>
 4db:	85 c0                	test   %eax,%eax
 4dd:	be 00 00 00 00       	mov    $0x0,%esi
 4e2:	0f 88 e7 01 00 00    	js     6cf <main+0x6cf>
 4e8:	83 3d 00 00 00 00 00 	cmpl   $0x0,0x0(%rip)        # 4ef <main+0x4ef>
 4ef:	0f 84 78 05 00 00    	je     a6d <main+0xa6d>
 4f5:	48 63 2d 00 00 00 00 	movslq 0x0(%rip),%rbp        # 4fc <main+0x4fc>
 4fc:	48 89 eb             	mov    %rbp,%rbx
 4ff:	48 69 ed 90 00 00 00 	imul   $0x90,%rbp,%rbp
 506:	48 89 ef             	mov    %rbp,%rdi
 509:	e8 00 00 00 00       	callq  50e <main+0x50e>
 50e:	48 85 c0             	test   %rax,%rax
 511:	48 89 05 00 00 00 00 	mov    %rax,0x0(%rip)        # 518 <main+0x518>
 518:	0f 84 a4 06 00 00    	je     bc2 <main+0xbc2>
 51e:	31 c9                	xor    %ecx,%ecx
 520:	85 db                	test   %ebx,%ebx
 522:	48 89 c2             	mov    %rax,%rdx
 525:	7e 28                	jle    54f <main+0x54f>
 527:	66 0f 1f 84 00 00 00 	nopw   0x0(%rax,%rax,1)
 52e:	00 00 
 530:	83 c1 01             	add    $0x1,%ecx
 533:	c7 02 00 00 00 00    	movl   $0x0,(%rdx)
 539:	48 c7 42 08 00 00 00 	movq   $0x0,0x8(%rdx)
 540:	00 
 541:	89 4a 04             	mov    %ecx,0x4(%rdx)
 544:	48 81 c2 90 00 00 00 	add    $0x90,%rdx
 54b:	39 cb                	cmp    %ecx,%ebx
 54d:	75 e1                	jne    530 <main+0x530>
 54f:	c7 84 28 74 ff ff ff 	movl   $0xffffffff,-0x8c(%rax,%rbp,1)
 556:	ff ff ff ff 
 55a:	48 8b 05 00 00 00 00 	mov    0x0(%rip),%rax        # 561 <main+0x561>
 561:	c7 05 00 00 00 00 00 	movl   $0x0,0x0(%rip)        # 56b <main+0x56b>
 568:	00 00 00 
 56b:	c7 05 00 00 00 00 00 	movl   $0x0,0x0(%rip)        # 575 <main+0x575>
 572:	00 00 00 
 575:	c7 05 00 00 00 00 00 	movl   $0x0,0x0(%rip)        # 57f <main+0x57f>
 57c:	00 00 00 
 57f:	48 85 c0             	test   %rax,%rax
 582:	74 29                	je     5ad <main+0x5ad>
 584:	8b 78 48             	mov    0x48(%rax),%edi
 587:	83 ff ff             	cmp    $0xffffffff,%edi
 58a:	74 10                	je     59c <main+0x59c>
 58c:	31 d2                	xor    %edx,%edx
 58e:	31 f6                	xor    %esi,%esi
 590:	e8 00 00 00 00       	callq  595 <main+0x595>
 595:	48 8b 05 00 00 00 00 	mov    0x0(%rip),%rax        # 59c <main+0x59c>
 59c:	8b 78 4c             	mov    0x4c(%rax),%edi
 59f:	83 ff ff             	cmp    $0xffffffff,%edi
 5a2:	74 09                	je     5ad <main+0x5ad>
 5a4:	31 d2                	xor    %edx,%edx
 5a6:	31 f6                	xor    %esi,%esi
 5a8:	e8 00 00 00 00       	callq  5ad <main+0x5ad>
 5ad:	48 8d 7c 24 20       	lea    0x20(%rsp),%rdi
 5b2:	e8 00 00 00 00       	callq  5b7 <main+0x5b7>
 5b7:	66 0f 1f 84 00 00 00 	nopw   0x0(%rax,%rax,1)
 5be:	00 00 
 5c0:	8b 05 00 00 00 00    	mov    0x0(%rip),%eax        # 5c6 <main+0x5c6>
 5c6:	85 c0                	test   %eax,%eax
 5c8:	74 0d                	je     5d7 <main+0x5d7>
 5ca:	83 3d 00 00 00 00 00 	cmpl   $0x0,0x0(%rip)        # 5d1 <main+0x5d1>
 5d1:	0f 8e 4a 05 00 00    	jle    b21 <main+0xb21>
 5d7:	8b 05 00 00 00 00    	mov    0x0(%rip),%eax        # 5dd <main+0x5dd>
 5dd:	85 c0                	test   %eax,%eax
 5df:	0f 85 35 02 00 00    	jne    81a <main+0x81a>
 5e5:	48 8d 7c 24 20       	lea    0x20(%rsp),%rdi
 5ea:	e8 00 00 00 00       	callq  5ef <main+0x5ef>
 5ef:	48 89 c7             	mov    %rax,%rdi
 5f2:	e8 00 00 00 00       	callq  5f7 <main+0x5f7>
 5f7:	85 c0                	test   %eax,%eax
 5f9:	89 c3                	mov    %eax,%ebx
 5fb:	0f 88 50 01 00 00    	js     751 <main+0x751>
 601:	48 8d 7c 24 20       	lea    0x20(%rsp),%rdi
 606:	e8 00 00 00 00       	callq  60b <main+0x60b>
 60b:	85 db                	test   %ebx,%ebx
 60d:	0f 84 1b 02 00 00    	je     82e <main+0x82e>
 613:	48 8b 05 00 00 00 00 	mov    0x0(%rip),%rax        # 61a <main+0x61a>
 61a:	48 85 c0             	test   %rax,%rax
 61d:	74 39                	je     658 <main+0x658>
 61f:	8b 78 4c             	mov    0x4c(%rax),%edi
 622:	83 ff ff             	cmp    $0xffffffff,%edi
 625:	74 19                	je     640 <main+0x640>
 627:	e8 00 00 00 00       	callq  62c <main+0x62c>
 62c:	85 c0                	test   %eax,%eax
 62e:	0f 85 68 04 00 00    	jne    a9c <main+0xa9c>
 634:	48 8b 05 00 00 00 00 	mov    0x0(%rip),%rax        # 63b <main+0x63b>
 63b:	48 85 c0             	test   %rax,%rax
 63e:	74 18                	je     658 <main+0x658>
 640:	8b 78 48             	mov    0x48(%rax),%edi
 643:	83 ff ff             	cmp    $0xffffffff,%edi
 646:	74 10                	je     658 <main+0x658>
 648:	e8 00 00 00 00       	callq  64d <main+0x64d>
 64d:	85 c0                	test   %eax,%eax
 64f:	0f 85 68 04 00 00    	jne    abd <main+0xabd>
 655:	0f 1f 00             	nopl   (%rax)
 658:	e8 00 00 00 00       	callq  65d <main+0x65d>
 65d:	48 83 f8 ff          	cmp    $0xffffffffffffffff,%rax
 661:	48 89 c3             	mov    %rax,%rbx
 664:	0f 84 3f 01 00 00    	je     7a9 <main+0x7a9>
 66a:	48 85 db             	test   %rbx,%rbx
 66d:	74 e9                	je     658 <main+0x658>
 66f:	48 8b 43 08          	mov    0x8(%rbx),%rax
 673:	8b b8 c0 02 00 00    	mov    0x2c0(%rax),%edi
 679:	e8 00 00 00 00       	callq  67e <main+0x67e>
 67e:	85 c0                	test   %eax,%eax
 680:	0f 84 b9 00 00 00    	je     73f <main+0x73f>
 686:	8b 03                	mov    (%rbx),%eax
 688:	83 f8 02             	cmp    $0x2,%eax
 68b:	0f 84 06 01 00 00    	je     797 <main+0x797>
 691:	83 f8 04             	cmp    $0x4,%eax
 694:	0f 84 eb 00 00 00    	je     785 <main+0x785>
 69a:	83 f8 01             	cmp    $0x1,%eax
 69d:	75 b9                	jne    658 <main+0x658>
 69f:	48 8d 74 24 20       	lea    0x20(%rsp),%rsi
 6a4:	48 89 df             	mov    %rbx,%rdi
 6a7:	e8 00 00 00 00       	callq  6ac <main+0x6ac>
 6ac:	eb aa                	jmp    658 <main+0x658>
 6ae:	c7 05 00 00 00 00 01 	movl   $0x1,0x0(%rip)        # 6b8 <main+0x6b8>
 6b5:	00 00 00 
 6b8:	45 31 f6             	xor    %r14d,%r14d
 6bb:	e9 5c fa ff ff       	jmpq   11c <main+0x11c>
 6c0:	e8 00 00 00 00       	callq  6c5 <main+0x6c5>
 6c5:	e9 1b fb ff ff       	jmpq   1e5 <main+0x1e5>
 6ca:	be 00 00 00 00       	mov    $0x0,%esi
 6cf:	bf 02 00 00 00       	mov    $0x2,%edi
 6d4:	31 c0                	xor    %eax,%eax
 6d6:	e8 00 00 00 00       	callq  6db <main+0x6db>
 6db:	bf 01 00 00 00       	mov    $0x1,%edi
 6e0:	e8 00 00 00 00       	callq  6e5 <main+0x6e5>
 6e5:	48 8b 3d 00 00 00 00 	mov    0x0(%rip),%rdi        # 6ec <main+0x6ec>
 6ec:	e8 00 00 00 00       	callq  6f1 <main+0x6f1>
 6f1:	48 85 c0             	test   %rax,%rax
 6f4:	0f 84 87 04 00 00    	je     b81 <main+0xb81>
 6fa:	8b 48 10             	mov    0x10(%rax),%ecx
 6fd:	44 8b 78 14          	mov    0x14(%rax),%r15d
 701:	89 4c 24 04          	mov    %ecx,0x4(%rsp)
 705:	e9 d1 f9 ff ff       	jmpq   db <main+0xdb>
 70a:	be 00 00 00 00       	mov    $0x0,%esi
 70f:	bf 03 00 00 00       	mov    $0x3,%edi
 714:	31 c0                	xor    %eax,%eax
 716:	e8 00 00 00 00       	callq  71b <main+0x71b>
 71b:	48 8b 3d 00 00 00 00 	mov    0x0(%rip),%rdi        # 722 <main+0x722>
 722:	48 8b 15 00 00 00 00 	mov    0x0(%rip),%rdx        # 729 <main+0x729>
 729:	be 00 00 00 00       	mov    $0x0,%esi
 72e:	31 c0                	xor    %eax,%eax
 730:	e8 00 00 00 00       	callq  735 <main+0x735>
 735:	bf 01 00 00 00       	mov    $0x1,%edi
 73a:	e8 00 00 00 00       	callq  73f <main+0x73f>
 73f:	48 8d 74 24 20       	lea    0x20(%rsp),%rsi
 744:	48 89 df             	mov    %rbx,%rdi
 747:	e8 00 00 00 00       	callq  74c <main+0x74c>
 74c:	e9 07 ff ff ff       	jmpq   658 <main+0x658>
 751:	e8 00 00 00 00       	callq  756 <main+0x756>
 756:	8b 00                	mov    (%rax),%eax
 758:	83 f8 04             	cmp    $0x4,%eax
 75b:	0f 84 5f fe ff ff    	je     5c0 <main+0x5c0>
 761:	83 f8 0b             	cmp    $0xb,%eax
 764:	0f 84 56 fe ff ff    	je     5c0 <main+0x5c0>
 76a:	bf 03 00 00 00       	mov    $0x3,%edi
 76f:	be 00 00 00 00       	mov    $0x0,%esi
 774:	31 c0                	xor    %eax,%eax
 776:	e8 00 00 00 00       	callq  77b <main+0x77b>
 77b:	bf 01 00 00 00       	mov    $0x1,%edi
 780:	e8 00 00 00 00       	callq  785 <main+0x785>
 785:	48 8d 74 24 20       	lea    0x20(%rsp),%rsi
 78a:	48 89 df             	mov    %rbx,%rdi
 78d:	e8 00 00 00 00       	callq  792 <main+0x792>
 792:	e9 c1 fe ff ff       	jmpq   658 <main+0x658>
 797:	48 8d 74 24 20       	lea    0x20(%rsp),%rsi
 79c:	48 89 df             	mov    %rbx,%rdi
 79f:	e8 00 00 00 00       	callq  7a4 <main+0x7a4>
 7a4:	e9 af fe ff ff       	jmpq   658 <main+0x658>
 7a9:	48 8d 7c 24 20       	lea    0x20(%rsp),%rdi
 7ae:	e8 00 00 00 00       	callq  7b3 <main+0x7b3>
 7b3:	8b 05 00 00 00 00    	mov    0x0(%rip),%eax        # 7b9 <main+0x7b9>
 7b9:	85 c0                	test   %eax,%eax
 7bb:	0f 84 ff fd ff ff    	je     5c0 <main+0x5c0>
 7c1:	83 3d 00 00 00 00 00 	cmpl   $0x0,0x0(%rip)        # 7c8 <main+0x7c8>
 7c8:	0f 85 f2 fd ff ff    	jne    5c0 <main+0x5c0>
 7ce:	48 8b 05 00 00 00 00 	mov    0x0(%rip),%rax        # 7d5 <main+0x7d5>
 7d5:	c7 05 00 00 00 00 01 	movl   $0x1,0x0(%rip)        # 7df <main+0x7df>
 7dc:	00 00 00 
 7df:	48 85 c0             	test   %rax,%rax
 7e2:	0f 84 d8 fd ff ff    	je     5c0 <main+0x5c0>
 7e8:	8b 78 48             	mov    0x48(%rax),%edi
 7eb:	83 ff ff             	cmp    $0xffffffff,%edi
 7ee:	74 0c                	je     7fc <main+0x7fc>
 7f0:	e8 00 00 00 00       	callq  7f5 <main+0x7f5>
 7f5:	48 8b 05 00 00 00 00 	mov    0x0(%rip),%rax        # 7fc <main+0x7fc>
 7fc:	8b 78 4c             	mov    0x4c(%rax),%edi
 7ff:	83 ff ff             	cmp    $0xffffffff,%edi
 802:	74 05                	je     809 <main+0x809>
 804:	e8 00 00 00 00       	callq  809 <main+0x809>
 809:	48 8b 3d 00 00 00 00 	mov    0x0(%rip),%rdi        # 810 <main+0x810>
 810:	e8 00 00 00 00       	callq  815 <main+0x815>
 815:	e9 a6 fd ff ff       	jmpq   5c0 <main+0x5c0>
 81a:	e8 00 00 00 00       	callq  81f <main+0x81f>
 81f:	c7 05 00 00 00 00 00 	movl   $0x0,0x0(%rip)        # 829 <main+0x829>
 826:	00 00 00 
 829:	e9 b7 fd ff ff       	jmpq   5e5 <main+0x5e5>
 82e:	48 8d 7c 24 20       	lea    0x20(%rsp),%rdi
 833:	e8 00 00 00 00       	callq  838 <main+0x838>
 838:	e9 83 fd ff ff       	jmpq   5c0 <main+0x5c0>
 83d:	48 89 df             	mov    %rbx,%rdi
 840:	e8 00 00 00 00       	callq  845 <main+0x845>
 845:	85 c0                	test   %eax,%eax
 847:	0f 88 0f 03 00 00    	js     b5c <main+0xb5c>
 84d:	4c 8b 2d 00 00 00 00 	mov    0x0(%rip),%r13        # 854 <main+0x854>
 854:	4d 85 ed             	test   %r13,%r13
 857:	74 4d                	je     8a6 <main+0x8a6>
 859:	be 00 00 00 00       	mov    $0x0,%esi
 85e:	4c 89 ef             	mov    %r13,%rdi
 861:	e8 00 00 00 00       	callq  866 <main+0x866>
 866:	85 c0                	test   %eax,%eax
 868:	74 3c                	je     8a6 <main+0x8a6>
 86a:	31 c0                	xor    %eax,%eax
 86c:	48 83 c9 ff          	or     $0xffffffffffffffff,%rcx
 870:	48 89 df             	mov    %rbx,%rdi
 873:	f2 ae                	repnz scas %es:(%rdi),%al
 875:	48 89 de             	mov    %rbx,%rsi
 878:	4c 89 ef             	mov    %r13,%rdi
 87b:	48 f7 d1             	not    %rcx
 87e:	48 8d 51 ff          	lea    -0x1(%rcx),%rdx
 882:	48 89 4c 24 08       	mov    %rcx,0x8(%rsp)
 887:	e8 00 00 00 00       	callq  88c <main+0x88c>
 88c:	85 c0                	test   %eax,%eax
 88e:	0f 85 a9 01 00 00    	jne    a3d <main+0xa3d>
 894:	48 8b 4c 24 08       	mov    0x8(%rsp),%rcx
 899:	4c 89 ef             	mov    %r13,%rdi
 89c:	49 8d 74 0d fe       	lea    -0x2(%r13,%rcx,1),%rsi
 8a1:	e8 00 00 00 00       	callq  8a6 <main+0x8a6>
 8a6:	48 89 df             	mov    %rbx,%rdi
 8a9:	66 c7 84 24 30 01 00 	movw   $0x2f,0x130(%rsp)
 8b0:	00 2f 00 
 8b3:	e8 00 00 00 00       	callq  8b8 <main+0x8b8>
 8b8:	85 c0                	test   %eax,%eax
 8ba:	0f 89 8e f9 ff ff    	jns    24e <main+0x24e>
 8c0:	be 00 00 00 00       	mov    $0x0,%esi
 8c5:	bf 02 00 00 00       	mov    $0x2,%edi
 8ca:	31 c0                	xor    %eax,%eax
 8cc:	e8 00 00 00 00       	callq  8d1 <main+0x8d1>
 8d1:	bf 00 00 00 00       	mov    $0x0,%edi
 8d6:	e8 00 00 00 00       	callq  8db <main+0x8db>
 8db:	bf 01 00 00 00       	mov    $0x1,%edi
 8e0:	e8 00 00 00 00       	callq  8e5 <main+0x8e5>
 8e5:	45 31 f6             	xor    %r14d,%r14d
 8e8:	e9 2f f8 ff ff       	jmpq   11c <main+0x11c>
 8ed:	48 89 df             	mov    %rbx,%rdi
 8f0:	be 00 00 00 00       	mov    $0x0,%esi
 8f5:	e8 00 00 00 00       	callq  8fa <main+0x8fa>
 8fa:	48 8b 1d 00 00 00 00 	mov    0x0(%rip),%rbx        # 901 <main+0x901>
 901:	49 89 c6             	mov    %rax,%r14
 904:	be 80 01 00 00       	mov    $0x180,%esi
 909:	48 89 df             	mov    %rbx,%rdi
 90c:	e8 00 00 00 00       	callq  911 <main+0x911>
 911:	4d 85 f6             	test   %r14,%r14
 914:	0f 84 dd 01 00 00    	je     af7 <main+0xaf7>
 91a:	85 c0                	test   %eax,%eax
 91c:	0f 85 d5 01 00 00    	jne    af7 <main+0xaf7>
 922:	80 3b 2f             	cmpb   $0x2f,(%rbx)
 925:	74 2b                	je     952 <main+0x952>
 927:	be 00 00 00 00       	mov    $0x0,%esi
 92c:	bf 04 00 00 00       	mov    $0x4,%edi
 931:	31 c0                	xor    %eax,%eax
 933:	e8 00 00 00 00       	callq  938 <main+0x938>
 938:	48 8b 15 00 00 00 00 	mov    0x0(%rip),%rdx        # 93f <main+0x93f>
 93f:	48 8b 3d 00 00 00 00 	mov    0x0(%rip),%rdi        # 946 <main+0x946>
 946:	be 00 00 00 00       	mov    $0x0,%esi
 94b:	31 c0                	xor    %eax,%eax
 94d:	e8 00 00 00 00       	callq  952 <main+0x952>
 952:	4c 89 f7             	mov    %r14,%rdi
 955:	e8 00 00 00 00       	callq  95a <main+0x95a>
 95a:	ba 01 00 00 00       	mov    $0x1,%edx
 95f:	89 c7                	mov    %eax,%edi
 961:	be 02 00 00 00       	mov    $0x2,%esi
 966:	31 c0                	xor    %eax,%eax
 968:	e8 00 00 00 00       	callq  96d <main+0x96d>
 96d:	e8 00 00 00 00       	callq  972 <main+0x972>
 972:	85 c0                	test   %eax,%eax
 974:	0f 85 a2 f7 ff ff    	jne    11c <main+0x11c>
 97a:	4c 89 f7             	mov    %r14,%rdi
 97d:	e8 00 00 00 00       	callq  982 <main+0x982>
 982:	8b 74 24 04          	mov    0x4(%rsp),%esi
 986:	44 89 fa             	mov    %r15d,%edx
 989:	89 c7                	mov    %eax,%edi
 98b:	e8 00 00 00 00       	callq  990 <main+0x990>
 990:	85 c0                	test   %eax,%eax
 992:	0f 89 84 f7 ff ff    	jns    11c <main+0x11c>
 998:	be 00 00 00 00       	mov    $0x0,%esi
 99d:	bf 04 00 00 00       	mov    $0x4,%edi
 9a2:	31 c0                	xor    %eax,%eax
 9a4:	e8 00 00 00 00       	callq  9a9 <main+0x9a9>
 9a9:	bf 00 00 00 00       	mov    $0x0,%edi
 9ae:	e8 00 00 00 00       	callq  9b3 <main+0x9b3>
 9b3:	e9 64 f7 ff ff       	jmpq   11c <main+0x11c>
 9b8:	be 00 00 00 00       	mov    $0x0,%esi
 9bd:	bf 02 00 00 00       	mov    $0x2,%edi
 9c2:	31 c0                	xor    %eax,%eax
 9c4:	e8 00 00 00 00       	callq  9c9 <main+0x9c9>
 9c9:	bf 00 00 00 00       	mov    $0x0,%edi
 9ce:	e8 00 00 00 00       	callq  9d3 <main+0x9d3>
 9d3:	bf 01 00 00 00       	mov    $0x1,%edi
 9d8:	e8 00 00 00 00       	callq  9dd <main+0x9dd>
 9dd:	48 8b 15 00 00 00 00 	mov    0x0(%rip),%rdx        # 9e4 <main+0x9e4>
 9e4:	bf 02 00 00 00       	mov    $0x2,%edi
 9e9:	be 00 00 00 00       	mov    $0x0,%esi
 9ee:	31 c0                	xor    %eax,%eax
 9f0:	e8 00 00 00 00       	callq  9f5 <main+0x9f5>
 9f5:	bf 01 00 00 00       	mov    $0x1,%edi
 9fa:	e8 00 00 00 00       	callq  9ff <main+0x9ff>
 9ff:	bf 02 00 00 00       	mov    $0x2,%edi
 a04:	be 00 00 00 00       	mov    $0x0,%esi
 a09:	e8 00 00 00 00       	callq  a0e <main+0xa0e>
 a0e:	bf 01 00 00 00       	mov    $0x1,%edi
 a13:	e8 00 00 00 00       	callq  a18 <main+0xa18>
 a18:	be 00 00 00 00       	mov    $0x0,%esi
 a1d:	bf 02 00 00 00       	mov    $0x2,%edi
 a22:	31 c0                	xor    %eax,%eax
 a24:	e8 00 00 00 00       	callq  a29 <main+0xa29>
 a29:	bf 00 00 00 00       	mov    $0x0,%edi
 a2e:	e8 00 00 00 00       	callq  a33 <main+0xa33>
 a33:	bf 01 00 00 00       	mov    $0x1,%edi
 a38:	e8 00 00 00 00       	callq  a3d <main+0xa3d>
 a3d:	31 c0                	xor    %eax,%eax
 a3f:	be 00 00 00 00       	mov    $0x0,%esi
 a44:	bf 04 00 00 00       	mov    $0x4,%edi
 a49:	e8 00 00 00 00       	callq  a4e <main+0xa4e>
 a4e:	48 8b 15 00 00 00 00 	mov    0x0(%rip),%rdx        # a55 <main+0xa55>
 a55:	48 8b 3d 00 00 00 00 	mov    0x0(%rip),%rdi        # a5c <main+0xa5c>
 a5c:	be 00 00 00 00       	mov    $0x0,%esi
 a61:	31 c0                	xor    %eax,%eax
 a63:	e8 00 00 00 00       	callq  a68 <main+0xa68>
 a68:	e9 39 fe ff ff       	jmpq   8a6 <main+0x8a6>
 a6d:	be 00 00 00 00       	mov    $0x0,%esi
 a72:	bf 04 00 00 00       	mov    $0x4,%edi
 a77:	31 c0                	xor    %eax,%eax
 a79:	e8 00 00 00 00       	callq  a7e <main+0xa7e>
 a7e:	e9 72 fa ff ff       	jmpq   4f5 <main+0x4f5>
 a83:	bf 02 00 00 00       	mov    $0x2,%edi
 a88:	be 00 00 00 00       	mov    $0x0,%esi
 a8d:	e8 00 00 00 00       	callq  a92 <main+0xa92>
 a92:	bf 01 00 00 00       	mov    $0x1,%edi
 a97:	e8 00 00 00 00       	callq  a9c <main+0xa9c>
 a9c:	48 8b 05 00 00 00 00 	mov    0x0(%rip),%rax        # aa3 <main+0xaa3>
 aa3:	48 8d 7c 24 20       	lea    0x20(%rsp),%rdi
 aa8:	8b 70 4c             	mov    0x4c(%rax),%esi
 aab:	e8 00 00 00 00       	callq  ab0 <main+0xab0>
 ab0:	85 c0                	test   %eax,%eax
 ab2:	0f 85 08 fb ff ff    	jne    5c0 <main+0x5c0>
 ab8:	e9 77 fb ff ff       	jmpq   634 <main+0x634>
 abd:	48 8b 05 00 00 00 00 	mov    0x0(%rip),%rax        # ac4 <main+0xac4>
 ac4:	48 8d 7c 24 20       	lea    0x20(%rsp),%rdi
 ac9:	8b 70 48             	mov    0x48(%rax),%esi
 acc:	e8 00 00 00 00       	callq  ad1 <main+0xad1>
 ad1:	85 c0                	test   %eax,%eax
 ad3:	0f 85 e7 fa ff ff    	jne    5c0 <main+0x5c0>
 ad9:	e9 7a fb ff ff       	jmpq   658 <main+0x658>
 ade:	bf 02 00 00 00       	mov    $0x2,%edi
 ae3:	be 00 00 00 00       	mov    $0x0,%esi
 ae8:	e8 00 00 00 00       	callq  aed <main+0xaed>
 aed:	bf 01 00 00 00       	mov    $0x1,%edi
 af2:	e8 00 00 00 00       	callq  af7 <main+0xaf7>
 af7:	48 89 da             	mov    %rbx,%rdx
 afa:	be 00 00 00 00       	mov    $0x0,%esi
 aff:	bf 02 00 00 00       	mov    $0x2,%edi
 b04:	31 c0                	xor    %eax,%eax
 b06:	e8 00 00 00 00       	callq  b0b <main+0xb0b>
 b0b:	48 8b 3d 00 00 00 00 	mov    0x0(%rip),%rdi        # b12 <main+0xb12>
 b12:	e8 00 00 00 00       	callq  b17 <main+0xb17>
 b17:	bf 01 00 00 00       	mov    $0x1,%edi
 b1c:	e8 00 00 00 00       	callq  b21 <main+0xb21>
 b21:	e8 00 00 00 00       	callq  b26 <main+0xb26>
 b26:	bf 05 00 00 00       	mov    $0x5,%edi
 b2b:	be 00 00 00 00       	mov    $0x0,%esi
 b30:	31 c0                	xor    %eax,%eax
 b32:	e8 00 00 00 00       	callq  b37 <main+0xb37>
 b37:	e8 00 00 00 00       	callq  b3c <main+0xb3c>
 b3c:	31 ff                	xor    %edi,%edi
 b3e:	e8 00 00 00 00       	callq  b43 <main+0xb43>
 b43:	bf 02 00 00 00       	mov    $0x2,%edi
 b48:	be 00 00 00 00       	mov    $0x0,%esi
 b4d:	e8 00 00 00 00       	callq  b52 <main+0xb52>
 b52:	bf 01 00 00 00       	mov    $0x1,%edi
 b57:	e8 00 00 00 00       	callq  b5c <main+0xb5c>
 b5c:	be 00 00 00 00       	mov    $0x0,%esi
 b61:	bf 02 00 00 00       	mov    $0x2,%edi
 b66:	31 c0                	xor    %eax,%eax
 b68:	e8 00 00 00 00       	callq  b6d <main+0xb6d>
 b6d:	bf 00 00 00 00       	mov    $0x0,%edi
 b72:	e8 00 00 00 00       	callq  b77 <main+0xb77>
 b77:	bf 01 00 00 00       	mov    $0x1,%edi
 b7c:	e8 00 00 00 00       	callq  b81 <main+0xb81>
 b81:	48 8b 15 00 00 00 00 	mov    0x0(%rip),%rdx        # b88 <main+0xb88>
 b88:	be 00 00 00 00       	mov    $0x0,%esi
 b8d:	bf 02 00 00 00       	mov    $0x2,%edi
 b92:	e8 00 00 00 00       	callq  b97 <main+0xb97>
 b97:	48 8b 3d 00 00 00 00 	mov    0x0(%rip),%rdi        # b9e <main+0xb9e>
 b9e:	48 8b 0d 00 00 00 00 	mov    0x0(%rip),%rcx        # ba5 <main+0xba5>
 ba5:	be 00 00 00 00       	mov    $0x0,%esi
 baa:	48 8b 15 00 00 00 00 	mov    0x0(%rip),%rdx        # bb1 <main+0xbb1>
 bb1:	31 c0                	xor    %eax,%eax
 bb3:	e8 00 00 00 00       	callq  bb8 <main+0xbb8>
 bb8:	bf 01 00 00 00       	mov    $0x1,%edi
 bbd:	e8 00 00 00 00       	callq  bc2 <main+0xbc2>
 bc2:	be 00 00 00 00       	mov    $0x0,%esi
 bc7:	e9 03 fb ff ff       	jmpq   6cf <main+0x6cf>
 bcc:	be 00 00 00 00       	mov    $0x0,%esi
 bd1:	bf 04 00 00 00       	mov    $0x4,%edi
 bd6:	31 c0                	xor    %eax,%eax
 bd8:	e8 00 00 00 00       	callq  bdd <main+0xbdd>
 bdd:	e9 f0 f8 ff ff       	jmpq   4d2 <main+0x4d2>
