
thttpd.o:     file format elf64-x86-64


Disassembly of section .text:

0000000000000000 <handle_hup>:
       0:	c7 05 00 00 00 00 01 	movl   $0x1,0x0(%rip)        # a <handle_hup+0xa>
       7:	00 00 00 
       a:	c3                   	retq   
       b:	0f 1f 44 00 00       	nopl   0x0(%rax,%rax,1)

0000000000000010 <thttpd_logstats>:
      10:	48 83 ec 08          	sub    $0x8,%rsp
      14:	48 85 ff             	test   %rdi,%rdi
      17:	7e 5a                	jle    73 <thttpd_logstats+0x63>
      19:	4c 8b 05 00 00 00 00 	mov    0x0(%rip),%r8        # 20 <thttpd_logstats+0x10>
      20:	66 0f ef d2          	pxor   %xmm2,%xmm2
      24:	48 8b 15 00 00 00 00 	mov    0x0(%rip),%rdx        # 2b <thttpd_logstats+0x1b>
      2b:	66 0f ef c9          	pxor   %xmm1,%xmm1
      2f:	66 0f ef c0          	pxor   %xmm0,%xmm0
      33:	44 8b 0d 00 00 00 00 	mov    0x0(%rip),%r9d        # 3a <thttpd_logstats+0x2a>
      3a:	f3 48 0f 2a d7       	cvtsi2ss %rdi,%xmm2
      3f:	8b 0d 00 00 00 00    	mov    0x0(%rip),%ecx        # 45 <thttpd_logstats+0x35>
      45:	be 00 00 00 00       	mov    $0x0,%esi
      4a:	bf 06 00 00 00       	mov    $0x6,%edi
      4f:	f3 49 0f 2a c8       	cvtsi2ss %r8,%xmm1
      54:	b8 02 00 00 00       	mov    $0x2,%eax
      59:	f3 48 0f 2a c2       	cvtsi2ss %rdx,%xmm0
      5e:	f3 0f 5e ca          	divss  %xmm2,%xmm1
      62:	f3 0f 5e c2          	divss  %xmm2,%xmm0
      66:	f3 0f 5a c9          	cvtss2sd %xmm1,%xmm1
      6a:	f3 0f 5a c0          	cvtss2sd %xmm0,%xmm0
      6e:	e8 00 00 00 00       	callq  73 <thttpd_logstats+0x63>
      73:	48 c7 05 00 00 00 00 	movq   $0x0,0x0(%rip)        # 7e <thttpd_logstats+0x6e>
      7a:	00 00 00 00 
      7e:	48 c7 05 00 00 00 00 	movq   $0x0,0x0(%rip)        # 89 <thttpd_logstats+0x79>
      85:	00 00 00 00 
      89:	c7 05 00 00 00 00 00 	movl   $0x0,0x0(%rip)        # 93 <thttpd_logstats+0x83>
      90:	00 00 00 
      93:	48 83 c4 08          	add    $0x8,%rsp
      97:	c3                   	retq   
      98:	0f 1f 84 00 00 00 00 	nopl   0x0(%rax,%rax,1)
      9f:	00 

00000000000000a0 <update_throttles>:
      a0:	44 8b 1d 00 00 00 00 	mov    0x0(%rip),%r11d        # a7 <update_throttles+0x7>
      a7:	41 54                	push   %r12
      a9:	55                   	push   %rbp
      aa:	53                   	push   %rbx
      ab:	31 db                	xor    %ebx,%ebx
      ad:	48 bd 56 55 55 55 55 	movabs $0x5555555555555556,%rbp
      b4:	55 55 55 
      b7:	45 85 db             	test   %r11d,%r11d
      ba:	0f 8f c7 00 00 00    	jg     187 <update_throttles+0xe7>
      c0:	e9 eb 01 00 00       	jmpq   2b0 <update_throttles+0x210>
      c5:	0f 1f 00             	nopl   (%rax)
      c8:	4b 8d 14 09          	lea    (%r9,%r9,1),%rdx
      cc:	49 39 d0             	cmp    %rdx,%r8
      cf:	48 89 ca             	mov    %rcx,%rdx
      d2:	0f 8e 50 03 00 00    	jle    428 <update_throttles+0x388>
      d8:	48 c1 ea 03          	shr    $0x3,%rdx
      dc:	80 ba 00 80 ff 7f 00 	cmpb   $0x0,0x7fff8000(%rdx)
      e3:	0f 85 d3 03 00 00    	jne    4bc <update_throttles+0x41c>
      e9:	48 83 ec 08          	sub    $0x8,%rsp
      ed:	48 8b 09             	mov    (%rcx),%rcx
      f0:	bf 05 00 00 00       	mov    $0x5,%edi
      f5:	50                   	push   %rax
      f6:	89 da                	mov    %ebx,%edx
      f8:	31 c0                	xor    %eax,%eax
      fa:	be 00 00 00 00       	mov    $0x0,%esi
      ff:	e8 00 00 00 00       	callq  104 <update_throttles+0x64>
     104:	4c 89 e1             	mov    %r12,%rcx
     107:	48 03 0d 00 00 00 00 	add    0x0(%rip),%rcx        # 10e <update_throttles+0x6e>
     10e:	41 59                	pop    %r9
     110:	41 5a                	pop    %r10
     112:	48 8d 79 18          	lea    0x18(%rcx),%rdi
     116:	48 89 f8             	mov    %rdi,%rax
     119:	48 c1 e8 03          	shr    $0x3,%rax
     11d:	80 b8 00 80 ff 7f 00 	cmpb   $0x0,0x7fff8000(%rax)
     124:	0f 85 8d 03 00 00    	jne    4b7 <update_throttles+0x417>
     12a:	4c 8b 41 18          	mov    0x18(%rcx),%r8
     12e:	48 8d 79 10          	lea    0x10(%rcx),%rdi
     132:	48 89 f8             	mov    %rdi,%rax
     135:	48 c1 e8 03          	shr    $0x3,%rax
     139:	80 b8 00 80 ff 7f 00 	cmpb   $0x0,0x7fff8000(%rax)
     140:	0f 85 6c 03 00 00    	jne    4b2 <update_throttles+0x412>
     146:	4c 8b 49 10          	mov    0x10(%rcx),%r9
     14a:	4d 39 c1             	cmp    %r8,%r9
     14d:	7e 29                	jle    178 <update_throttles+0xd8>
     14f:	48 8d 79 28          	lea    0x28(%rcx),%rdi
     153:	48 89 f8             	mov    %rdi,%rax
     156:	48 c1 e8 03          	shr    $0x3,%rax
     15a:	0f b6 80 00 80 ff 7f 	movzbl 0x7fff8000(%rax),%eax
     161:	84 c0                	test   %al,%al
     163:	74 08                	je     16d <update_throttles+0xcd>
     165:	3c 03                	cmp    $0x3,%al
     167:	0f 8e 40 03 00 00    	jle    4ad <update_throttles+0x40d>
     16d:	8b 41 28             	mov    0x28(%rcx),%eax
     170:	85 c0                	test   %eax,%eax
     172:	0f 85 f8 00 00 00    	jne    270 <update_throttles+0x1d0>
     178:	83 c3 01             	add    $0x1,%ebx
     17b:	39 1d 00 00 00 00    	cmp    %ebx,0x0(%rip)        # 181 <update_throttles+0xe1>
     181:	0f 8e 29 01 00 00    	jle    2b0 <update_throttles+0x210>
     187:	48 63 c3             	movslq %ebx,%rax
     18a:	4c 8d 24 40          	lea    (%rax,%rax,2),%r12
     18e:	49 c1 e4 04          	shl    $0x4,%r12
     192:	4c 89 e1             	mov    %r12,%rcx
     195:	48 03 0d 00 00 00 00 	add    0x0(%rip),%rcx        # 19c <update_throttles+0xfc>
     19c:	48 8d 79 18          	lea    0x18(%rcx),%rdi
     1a0:	48 89 f8             	mov    %rdi,%rax
     1a3:	48 c1 e8 03          	shr    $0x3,%rax
     1a7:	80 b8 00 80 ff 7f 00 	cmpb   $0x0,0x7fff8000(%rax)
     1ae:	0f 85 1f 03 00 00    	jne    4d3 <update_throttles+0x433>
     1b4:	48 8d 79 20          	lea    0x20(%rcx),%rdi
     1b8:	48 8b 41 18          	mov    0x18(%rcx),%rax
     1bc:	48 89 fa             	mov    %rdi,%rdx
     1bf:	48 c1 ea 03          	shr    $0x3,%rdx
     1c3:	48 01 c0             	add    %rax,%rax
     1c6:	80 ba 00 80 ff 7f 00 	cmpb   $0x0,0x7fff8000(%rdx)
     1cd:	0f 85 fb 02 00 00    	jne    4ce <update_throttles+0x42e>
     1d3:	48 8b 51 20          	mov    0x20(%rcx),%rdx
     1d7:	48 8d 79 08          	lea    0x8(%rcx),%rdi
     1db:	48 c7 41 20 00 00 00 	movq   $0x0,0x20(%rcx)
     1e2:	00 
     1e3:	48 89 d6             	mov    %rdx,%rsi
     1e6:	48 c1 ee 3f          	shr    $0x3f,%rsi
     1ea:	48 01 f2             	add    %rsi,%rdx
     1ed:	48 d1 fa             	sar    %rdx
     1f0:	48 8d 34 02          	lea    (%rdx,%rax,1),%rsi
     1f4:	48 89 f0             	mov    %rsi,%rax
     1f7:	48 c1 fe 3f          	sar    $0x3f,%rsi
     1fb:	48 f7 ed             	imul   %rbp
     1fe:	48 89 f8             	mov    %rdi,%rax
     201:	48 c1 e8 03          	shr    $0x3,%rax
     205:	48 29 f2             	sub    %rsi,%rdx
     208:	80 b8 00 80 ff 7f 00 	cmpb   $0x0,0x7fff8000(%rax)
     20f:	49 89 d0             	mov    %rdx,%r8
     212:	48 89 51 18          	mov    %rdx,0x18(%rcx)
     216:	0f 85 ad 02 00 00    	jne    4c9 <update_throttles+0x429>
     21c:	4c 8b 49 08          	mov    0x8(%rcx),%r9
     220:	4c 39 ca             	cmp    %r9,%rdx
     223:	0f 8e 05 ff ff ff    	jle    12e <update_throttles+0x8e>
     229:	48 8d 79 28          	lea    0x28(%rcx),%rdi
     22d:	48 89 f8             	mov    %rdi,%rax
     230:	48 c1 e8 03          	shr    $0x3,%rax
     234:	0f b6 80 00 80 ff 7f 	movzbl 0x7fff8000(%rax),%eax
     23b:	84 c0                	test   %al,%al
     23d:	74 08                	je     247 <update_throttles+0x1a7>
     23f:	3c 03                	cmp    $0x3,%al
     241:	0f 8e 7d 02 00 00    	jle    4c4 <update_throttles+0x424>
     247:	8b 41 28             	mov    0x28(%rcx),%eax
     24a:	85 c0                	test   %eax,%eax
     24c:	0f 85 76 fe ff ff    	jne    c8 <update_throttles+0x28>
     252:	48 8d 79 10          	lea    0x10(%rcx),%rdi
     256:	48 89 f8             	mov    %rdi,%rax
     259:	48 c1 e8 03          	shr    $0x3,%rax
     25d:	80 b8 00 80 ff 7f 00 	cmpb   $0x0,0x7fff8000(%rax)
     264:	0f 84 0e ff ff ff    	je     178 <update_throttles+0xd8>
     26a:	e8 00 00 00 00       	callq  26f <update_throttles+0x1cf>
     26f:	90                   	nop
     270:	48 89 ca             	mov    %rcx,%rdx
     273:	48 c1 ea 03          	shr    $0x3,%rdx
     277:	80 ba 00 80 ff 7f 00 	cmpb   $0x0,0x7fff8000(%rdx)
     27e:	0f 85 21 02 00 00    	jne    4a5 <update_throttles+0x405>
     284:	48 83 ec 08          	sub    $0x8,%rsp
     288:	48 8b 09             	mov    (%rcx),%rcx
     28b:	89 da                	mov    %ebx,%edx
     28d:	50                   	push   %rax
     28e:	be 00 00 00 00       	mov    $0x0,%esi
     293:	31 c0                	xor    %eax,%eax
     295:	bf 05 00 00 00       	mov    $0x5,%edi
     29a:	83 c3 01             	add    $0x1,%ebx
     29d:	e8 00 00 00 00       	callq  2a2 <update_throttles+0x202>
     2a2:	39 1d 00 00 00 00    	cmp    %ebx,0x0(%rip)        # 2a8 <update_throttles+0x208>
     2a8:	58                   	pop    %rax
     2a9:	5a                   	pop    %rdx
     2aa:	0f 8f d7 fe ff ff    	jg     187 <update_throttles+0xe7>
     2b0:	8b 05 00 00 00 00    	mov    0x0(%rip),%eax        # 2b6 <update_throttles+0x216>
     2b6:	85 c0                	test   %eax,%eax
     2b8:	0f 8e c2 01 00 00    	jle    480 <update_throttles+0x3e0>
     2be:	83 e8 01             	sub    $0x1,%eax
     2c1:	4c 8b 0d 00 00 00 00 	mov    0x0(%rip),%r9        # 2c8 <update_throttles+0x228>
     2c8:	48 8d 04 c0          	lea    (%rax,%rax,8),%rax
     2cc:	48 c1 e0 04          	shl    $0x4,%rax
     2d0:	4d 8d 41 40          	lea    0x40(%r9),%r8
     2d4:	49 8d bc 01 d0 00 00 	lea    0xd0(%r9,%rax,1),%rdi
     2db:	00 
     2dc:	eb 19                	jmp    2f7 <update_throttles+0x257>
     2de:	66 90                	xchg   %ax,%ax
     2e0:	49 81 c0 90 00 00 00 	add    $0x90,%r8
     2e7:	49 81 c1 90 00 00 00 	add    $0x90,%r9
     2ee:	49 39 f8             	cmp    %rdi,%r8
     2f1:	0f 84 89 01 00 00    	je     480 <update_throttles+0x3e0>
     2f7:	4c 89 c8             	mov    %r9,%rax
     2fa:	48 c1 e8 03          	shr    $0x3,%rax
     2fe:	0f b6 80 00 80 ff 7f 	movzbl 0x7fff8000(%rax),%eax
     305:	84 c0                	test   %al,%al
     307:	74 08                	je     311 <update_throttles+0x271>
     309:	3c 03                	cmp    $0x3,%al
     30b:	0f 8e 84 01 00 00    	jle    495 <update_throttles+0x3f5>
     311:	41 8b 01             	mov    (%r9),%eax
     314:	83 e8 02             	sub    $0x2,%eax
     317:	83 f8 01             	cmp    $0x1,%eax
     31a:	77 c4                	ja     2e0 <update_throttles+0x240>
     31c:	4c 89 c0             	mov    %r8,%rax
     31f:	48 c1 e8 03          	shr    $0x3,%rax
     323:	80 b8 00 80 ff 7f 00 	cmpb   $0x0,0x7fff8000(%rax)
     32a:	0f 85 5d 01 00 00    	jne    48d <update_throttles+0x3ed>
     330:	49 8d 50 f8          	lea    -0x8(%r8),%rdx
     334:	49 c7 00 ff ff ff ff 	movq   $0xffffffffffffffff,(%r8)
     33b:	48 89 d0             	mov    %rdx,%rax
     33e:	48 c1 e8 03          	shr    $0x3,%rax
     342:	0f b6 80 00 80 ff 7f 	movzbl 0x7fff8000(%rax),%eax
     349:	84 c0                	test   %al,%al
     34b:	74 08                	je     355 <update_throttles+0x2b5>
     34d:	3c 03                	cmp    $0x3,%al
     34f:	0f 8e 30 01 00 00    	jle    485 <update_throttles+0x3e5>
     355:	41 8b 40 f8          	mov    -0x8(%r8),%eax
     359:	85 c0                	test   %eax,%eax
     35b:	7e 83                	jle    2e0 <update_throttles+0x240>
     35d:	83 e8 01             	sub    $0x1,%eax
     360:	4c 8b 1d 00 00 00 00 	mov    0x0(%rip),%r11        # 367 <update_throttles+0x2c7>
     367:	49 8d 70 d0          	lea    -0x30(%r8),%rsi
     36b:	4d 8d 54 81 14       	lea    0x14(%r9,%rax,4),%r10
     370:	48 c7 c3 ff ff ff ff 	mov    $0xffffffffffffffff,%rbx
     377:	eb 79                	jmp    3f2 <update_throttles+0x352>
     379:	0f 1f 80 00 00 00 00 	nopl   0x0(%rax)
     380:	48 63 06             	movslq (%rsi),%rax
     383:	48 8d 0c 40          	lea    (%rax,%rax,2),%rcx
     387:	48 c1 e1 04          	shl    $0x4,%rcx
     38b:	4c 01 d9             	add    %r11,%rcx
     38e:	48 8d 41 08          	lea    0x8(%rcx),%rax
     392:	48 89 c2             	mov    %rax,%rdx
     395:	48 c1 ea 03          	shr    $0x3,%rdx
     399:	80 ba 00 80 ff 7f 00 	cmpb   $0x0,0x7fff8000(%rdx)
     3a0:	0f 85 3a 01 00 00    	jne    4e0 <update_throttles+0x440>
     3a6:	48 8d 69 28          	lea    0x28(%rcx),%rbp
     3aa:	48 8b 41 08          	mov    0x8(%rcx),%rax
     3ae:	48 89 ea             	mov    %rbp,%rdx
     3b1:	48 c1 ea 03          	shr    $0x3,%rdx
     3b5:	0f b6 92 00 80 ff 7f 	movzbl 0x7fff8000(%rdx),%edx
     3bc:	84 d2                	test   %dl,%dl
     3be:	74 09                	je     3c9 <update_throttles+0x329>
     3c0:	80 fa 03             	cmp    $0x3,%dl
     3c3:	0f 8e 0f 01 00 00    	jle    4d8 <update_throttles+0x438>
     3c9:	48 63 49 28          	movslq 0x28(%rcx),%rcx
     3cd:	48 99                	cqto   
     3cf:	48 f7 f9             	idiv   %rcx
     3d2:	48 83 fb ff          	cmp    $0xffffffffffffffff,%rbx
     3d6:	74 07                	je     3df <update_throttles+0x33f>
     3d8:	48 39 d8             	cmp    %rbx,%rax
     3db:	48 0f 4f c3          	cmovg  %rbx,%rax
     3df:	48 83 c6 04          	add    $0x4,%rsi
     3e3:	49 89 00             	mov    %rax,(%r8)
     3e6:	4c 39 d6             	cmp    %r10,%rsi
     3e9:	0f 84 f1 fe ff ff    	je     2e0 <update_throttles+0x240>
     3ef:	49 8b 18             	mov    (%r8),%rbx
     3f2:	48 89 f0             	mov    %rsi,%rax
     3f5:	48 c1 e8 03          	shr    $0x3,%rax
     3f9:	0f b6 90 00 80 ff 7f 	movzbl 0x7fff8000(%rax),%edx
     400:	48 89 f0             	mov    %rsi,%rax
     403:	83 e0 07             	and    $0x7,%eax
     406:	83 c0 03             	add    $0x3,%eax
     409:	38 d0                	cmp    %dl,%al
     40b:	0f 8c 6f ff ff ff    	jl     380 <update_throttles+0x2e0>
     411:	84 d2                	test   %dl,%dl
     413:	0f 84 67 ff ff ff    	je     380 <update_throttles+0x2e0>
     419:	48 89 f7             	mov    %rsi,%rdi
     41c:	e8 00 00 00 00       	callq  421 <update_throttles+0x381>
     421:	0f 1f 80 00 00 00 00 	nopl   0x0(%rax)
     428:	48 c1 ea 03          	shr    $0x3,%rdx
     42c:	80 ba 00 80 ff 7f 00 	cmpb   $0x0,0x7fff8000(%rdx)
     433:	75 68                	jne    49d <update_throttles+0x3fd>
     435:	48 83 ec 08          	sub    $0x8,%rsp
     439:	48 8b 09             	mov    (%rcx),%rcx
     43c:	be 00 00 00 00       	mov    $0x0,%esi
     441:	50                   	push   %rax
     442:	bf 06 00 00 00       	mov    $0x6,%edi
     447:	31 c0                	xor    %eax,%eax
     449:	89 da                	mov    %ebx,%edx
     44b:	e8 00 00 00 00       	callq  450 <update_throttles+0x3b0>
     450:	4c 89 e1             	mov    %r12,%rcx
     453:	48 03 0d 00 00 00 00 	add    0x0(%rip),%rcx        # 45a <update_throttles+0x3ba>
     45a:	5e                   	pop    %rsi
     45b:	41 58                	pop    %r8
     45d:	48 8d 79 18          	lea    0x18(%rcx),%rdi
     461:	48 89 f8             	mov    %rdi,%rax
     464:	48 c1 e8 03          	shr    $0x3,%rax
     468:	80 b8 00 80 ff 7f 00 	cmpb   $0x0,0x7fff8000(%rax)
     46f:	0f 84 b5 fc ff ff    	je     12a <update_throttles+0x8a>
     475:	e8 00 00 00 00       	callq  47a <update_throttles+0x3da>
     47a:	66 0f 1f 44 00 00    	nopw   0x0(%rax,%rax,1)
     480:	5b                   	pop    %rbx
     481:	5d                   	pop    %rbp
     482:	41 5c                	pop    %r12
     484:	c3                   	retq   
     485:	48 89 d7             	mov    %rdx,%rdi
     488:	e8 00 00 00 00       	callq  48d <update_throttles+0x3ed>
     48d:	4c 89 c7             	mov    %r8,%rdi
     490:	e8 00 00 00 00       	callq  495 <update_throttles+0x3f5>
     495:	4c 89 cf             	mov    %r9,%rdi
     498:	e8 00 00 00 00       	callq  49d <update_throttles+0x3fd>
     49d:	48 89 cf             	mov    %rcx,%rdi
     4a0:	e8 00 00 00 00       	callq  4a5 <update_throttles+0x405>
     4a5:	48 89 cf             	mov    %rcx,%rdi
     4a8:	e8 00 00 00 00       	callq  4ad <update_throttles+0x40d>
     4ad:	e8 00 00 00 00       	callq  4b2 <update_throttles+0x412>
     4b2:	e8 00 00 00 00       	callq  4b7 <update_throttles+0x417>
     4b7:	e8 00 00 00 00       	callq  4bc <update_throttles+0x41c>
     4bc:	48 89 cf             	mov    %rcx,%rdi
     4bf:	e8 00 00 00 00       	callq  4c4 <update_throttles+0x424>
     4c4:	e8 00 00 00 00       	callq  4c9 <update_throttles+0x429>
     4c9:	e8 00 00 00 00       	callq  4ce <update_throttles+0x42e>
     4ce:	e8 00 00 00 00       	callq  4d3 <update_throttles+0x433>
     4d3:	e8 00 00 00 00       	callq  4d8 <update_throttles+0x438>
     4d8:	48 89 ef             	mov    %rbp,%rdi
     4db:	e8 00 00 00 00       	callq  4e0 <update_throttles+0x440>
     4e0:	48 89 c7             	mov    %rax,%rdi
     4e3:	e8 00 00 00 00       	callq  4e8 <update_throttles+0x448>
     4e8:	0f 1f 84 00 00 00 00 	nopl   0x0(%rax,%rax,1)
     4ef:	00 

00000000000004f0 <no_value_required>:
     4f0:	48 85 f6             	test   %rsi,%rsi
     4f3:	75 02                	jne    4f7 <no_value_required+0x7>
     4f5:	f3 c3                	repz retq 
     4f7:	50                   	push   %rax
     4f8:	b8 00 00 00 00       	mov    $0x0,%eax
     4fd:	48 89 f9             	mov    %rdi,%rcx
     500:	48 c1 e8 03          	shr    $0x3,%rax
     504:	48 8b 15 00 00 00 00 	mov    0x0(%rip),%rdx        # 50b <no_value_required+0x1b>
     50b:	80 b8 00 80 ff 7f 00 	cmpb   $0x0,0x7fff8000(%rax)
     512:	75 22                	jne    536 <no_value_required+0x46>
     514:	48 8b 3d 00 00 00 00 	mov    0x0(%rip),%rdi        # 51b <no_value_required+0x2b>
     51b:	be 00 00 00 00       	mov    $0x0,%esi
     520:	31 c0                	xor    %eax,%eax
     522:	e8 00 00 00 00       	callq  527 <no_value_required+0x37>
     527:	e8 00 00 00 00       	callq  52c <no_value_required+0x3c>
     52c:	bf 01 00 00 00       	mov    $0x1,%edi
     531:	e8 00 00 00 00       	callq  536 <no_value_required+0x46>
     536:	bf 00 00 00 00       	mov    $0x0,%edi
     53b:	e8 00 00 00 00       	callq  540 <value_required>

0000000000000540 <value_required>:
     540:	48 85 f6             	test   %rsi,%rsi
     543:	74 02                	je     547 <value_required+0x7>
     545:	f3 c3                	repz retq 
     547:	50                   	push   %rax
     548:	b8 00 00 00 00       	mov    $0x0,%eax
     54d:	48 89 f9             	mov    %rdi,%rcx
     550:	48 c1 e8 03          	shr    $0x3,%rax
     554:	48 8b 15 00 00 00 00 	mov    0x0(%rip),%rdx        # 55b <value_required+0x1b>
     55b:	80 b8 00 80 ff 7f 00 	cmpb   $0x0,0x7fff8000(%rax)
     562:	75 22                	jne    586 <value_required+0x46>
     564:	48 8b 3d 00 00 00 00 	mov    0x0(%rip),%rdi        # 56b <value_required+0x2b>
     56b:	be 00 00 00 00       	mov    $0x0,%esi
     570:	31 c0                	xor    %eax,%eax
     572:	e8 00 00 00 00       	callq  577 <value_required+0x37>
     577:	e8 00 00 00 00       	callq  57c <value_required+0x3c>
     57c:	bf 01 00 00 00       	mov    $0x1,%edi
     581:	e8 00 00 00 00       	callq  586 <value_required+0x46>
     586:	bf 00 00 00 00       	mov    $0x0,%edi
     58b:	e8 00 00 00 00       	callq  590 <wakeup_connection>

0000000000000590 <wakeup_connection>:
     590:	48 83 ec 18          	sub    $0x18,%rsp
     594:	48 89 e0             	mov    %rsp,%rax
     597:	48 89 3c 24          	mov    %rdi,(%rsp)
     59b:	48 c1 e8 03          	shr    $0x3,%rax
     59f:	80 b8 00 80 ff 7f 00 	cmpb   $0x0,0x7fff8000(%rax)
     5a6:	0f 85 a2 00 00 00    	jne    64e <wakeup_connection+0xbe>
     5ac:	48 8b 34 24          	mov    (%rsp),%rsi
     5b0:	48 8d 7e 60          	lea    0x60(%rsi),%rdi
     5b4:	48 89 f8             	mov    %rdi,%rax
     5b7:	48 c1 e8 03          	shr    $0x3,%rax
     5bb:	80 b8 00 80 ff 7f 00 	cmpb   $0x0,0x7fff8000(%rax)
     5c2:	0f 85 81 00 00 00    	jne    649 <wakeup_connection+0xb9>
     5c8:	48 89 f0             	mov    %rsi,%rax
     5cb:	48 c7 46 60 00 00 00 	movq   $0x0,0x60(%rsi)
     5d2:	00 
     5d3:	48 c1 e8 03          	shr    $0x3,%rax
     5d7:	0f b6 80 00 80 ff 7f 	movzbl 0x7fff8000(%rax),%eax
     5de:	84 c0                	test   %al,%al
     5e0:	74 04                	je     5e6 <wakeup_connection+0x56>
     5e2:	3c 03                	cmp    $0x3,%al
     5e4:	7e 5b                	jle    641 <wakeup_connection+0xb1>
     5e6:	83 3e 03             	cmpl   $0x3,(%rsi)
     5e9:	74 05                	je     5f0 <wakeup_connection+0x60>
     5eb:	48 83 c4 18          	add    $0x18,%rsp
     5ef:	c3                   	retq   
     5f0:	48 8d 7e 08          	lea    0x8(%rsi),%rdi
     5f4:	c7 06 02 00 00 00    	movl   $0x2,(%rsi)
     5fa:	48 89 f8             	mov    %rdi,%rax
     5fd:	48 c1 e8 03          	shr    $0x3,%rax
     601:	80 b8 00 80 ff 7f 00 	cmpb   $0x0,0x7fff8000(%rax)
     608:	75 51                	jne    65b <wakeup_connection+0xcb>
     60a:	48 8b 46 08          	mov    0x8(%rsi),%rax
     60e:	48 8d b8 c0 02 00 00 	lea    0x2c0(%rax),%rdi
     615:	48 89 fa             	mov    %rdi,%rdx
     618:	48 c1 ea 03          	shr    $0x3,%rdx
     61c:	0f b6 92 00 80 ff 7f 	movzbl 0x7fff8000(%rdx),%edx
     623:	84 d2                	test   %dl,%dl
     625:	74 05                	je     62c <wakeup_connection+0x9c>
     627:	80 fa 03             	cmp    $0x3,%dl
     62a:	7e 2a                	jle    656 <wakeup_connection+0xc6>
     62c:	8b b8 c0 02 00 00    	mov    0x2c0(%rax),%edi
     632:	ba 01 00 00 00       	mov    $0x1,%edx
     637:	e8 00 00 00 00       	callq  63c <wakeup_connection+0xac>
     63c:	48 83 c4 18          	add    $0x18,%rsp
     640:	c3                   	retq   
     641:	48 89 f7             	mov    %rsi,%rdi
     644:	e8 00 00 00 00       	callq  649 <wakeup_connection+0xb9>
     649:	e8 00 00 00 00       	callq  64e <wakeup_connection+0xbe>
     64e:	48 89 e7             	mov    %rsp,%rdi
     651:	e8 00 00 00 00       	callq  656 <wakeup_connection+0xc6>
     656:	e8 00 00 00 00       	callq  65b <wakeup_connection+0xcb>
     65b:	e8 00 00 00 00       	callq  660 <logstats>

0000000000000660 <logstats>:
     660:	41 55                	push   %r13
     662:	41 54                	push   %r12
     664:	55                   	push   %rbp
     665:	53                   	push   %rbx
     666:	48 89 fb             	mov    %rdi,%rbx
     669:	48 83 ec 68          	sub    $0x68,%rsp
     66d:	8b 05 00 00 00 00    	mov    0x0(%rip),%eax        # 673 <logstats+0x13>
     673:	48 89 e5             	mov    %rsp,%rbp
     676:	49 89 e5             	mov    %rsp,%r13
     679:	85 c0                	test   %eax,%eax
     67b:	0f 85 2a 01 00 00    	jne    7ab <logstats+0x14b>
     681:	49 89 ec             	mov    %rbp,%r12
     684:	48 c7 45 00 b3 8a b5 	movq   $0x41b58ab3,0x0(%rbp)
     68b:	41 
     68c:	48 c7 45 08 00 00 00 	movq   $0x0,0x8(%rbp)
     693:	00 
     694:	49 c1 ec 03          	shr    $0x3,%r12
     698:	48 85 db             	test   %rbx,%rbx
     69b:	48 c7 45 10 00 00 00 	movq   $0x0,0x10(%rbp)
     6a2:	00 
     6a3:	41 c7 84 24 00 80 ff 	movl   $0xf1f1f1f1,0x7fff8000(%r12)
     6aa:	7f f1 f1 f1 f1 
     6af:	41 c7 84 24 04 80 ff 	movl   $0xf4f40000,0x7fff8004(%r12)
     6b6:	7f 00 00 f4 f4 
     6bb:	41 c7 84 24 08 80 ff 	movl   $0xf3f3f3f3,0x7fff8008(%r12)
     6c2:	7f f3 f3 f3 f3 
     6c7:	0f 84 a3 00 00 00    	je     770 <logstats+0x110>
     6cd:	48 89 d8             	mov    %rbx,%rax
     6d0:	48 c1 e8 03          	shr    $0x3,%rax
     6d4:	80 b8 00 80 ff 7f 00 	cmpb   $0x0,0x7fff8000(%rax)
     6db:	0f 85 df 00 00 00    	jne    7c0 <logstats+0x160>
     6e1:	48 8b 03             	mov    (%rbx),%rax
     6e4:	b9 01 00 00 00       	mov    $0x1,%ecx
     6e9:	be 00 00 00 00       	mov    $0x0,%esi
     6ee:	bf 06 00 00 00       	mov    $0x6,%edi
     6f3:	48 89 c2             	mov    %rax,%rdx
     6f6:	48 89 c3             	mov    %rax,%rbx
     6f9:	48 2b 15 00 00 00 00 	sub    0x0(%rip),%rdx        # 700 <logstats+0xa0>
     700:	48 2b 1d 00 00 00 00 	sub    0x0(%rip),%rbx        # 707 <logstats+0xa7>
     707:	48 89 05 00 00 00 00 	mov    %rax,0x0(%rip)        # 70e <logstats+0xae>
     70e:	48 0f 44 d9          	cmove  %rcx,%rbx
     712:	31 c0                	xor    %eax,%eax
     714:	48 89 d9             	mov    %rbx,%rcx
     717:	e8 00 00 00 00       	callq  71c <logstats+0xbc>
     71c:	48 89 df             	mov    %rbx,%rdi
     71f:	e8 ec f8 ff ff       	callq  10 <thttpd_logstats>
     724:	48 89 df             	mov    %rbx,%rdi
     727:	e8 00 00 00 00       	callq  72c <logstats+0xcc>
     72c:	48 89 df             	mov    %rbx,%rdi
     72f:	e8 00 00 00 00       	callq  734 <logstats+0xd4>
     734:	48 89 df             	mov    %rbx,%rdi
     737:	e8 00 00 00 00       	callq  73c <logstats+0xdc>
     73c:	48 89 df             	mov    %rbx,%rdi
     73f:	e8 00 00 00 00       	callq  744 <logstats+0xe4>
     744:	49 39 ed             	cmp    %rbp,%r13
     747:	75 3a                	jne    783 <logstats+0x123>
     749:	49 c7 84 24 00 80 ff 	movq   $0x0,0x7fff8000(%r12)
     750:	7f 00 00 00 00 
     755:	41 c7 84 24 08 80 ff 	movl   $0x0,0x7fff8008(%r12)
     75c:	7f 00 00 00 00 
     761:	48 83 c4 68          	add    $0x68,%rsp
     765:	5b                   	pop    %rbx
     766:	5d                   	pop    %rbp
     767:	41 5c                	pop    %r12
     769:	41 5d                	pop    %r13
     76b:	c3                   	retq   
     76c:	0f 1f 40 00          	nopl   0x0(%rax)
     770:	48 8d 5d 20          	lea    0x20(%rbp),%rbx
     774:	31 f6                	xor    %esi,%esi
     776:	48 89 df             	mov    %rbx,%rdi
     779:	e8 00 00 00 00       	callq  77e <logstats+0x11e>
     77e:	e9 4a ff ff ff       	jmpq   6cd <logstats+0x6d>
     783:	48 b8 f5 f5 f5 f5 f5 	movabs $0xf5f5f5f5f5f5f5f5,%rax
     78a:	f5 f5 f5 
     78d:	48 c7 45 00 0e 36 e0 	movq   $0x45e0360e,0x0(%rbp)
     794:	45 
     795:	41 c7 84 24 08 80 ff 	movl   $0xf5f5f5f5,0x7fff8008(%r12)
     79c:	7f f5 f5 f5 f5 
     7a1:	49 89 84 24 00 80 ff 	mov    %rax,0x7fff8000(%r12)
     7a8:	7f 
     7a9:	eb b6                	jmp    761 <logstats+0x101>
     7ab:	48 89 e6             	mov    %rsp,%rsi
     7ae:	bf 60 00 00 00       	mov    $0x60,%edi
     7b3:	e8 00 00 00 00       	callq  7b8 <logstats+0x158>
     7b8:	48 89 c5             	mov    %rax,%rbp
     7bb:	e9 c1 fe ff ff       	jmpq   681 <logstats+0x21>
     7c0:	48 89 df             	mov    %rbx,%rdi
     7c3:	e8 00 00 00 00       	callq  7c8 <logstats+0x168>
     7c8:	0f 1f 84 00 00 00 00 	nopl   0x0(%rax,%rax,1)
     7cf:	00 

00000000000007d0 <show_stats>:
     7d0:	48 89 f7             	mov    %rsi,%rdi
     7d3:	e9 88 fe ff ff       	jmpq   660 <logstats>
     7d8:	0f 1f 84 00 00 00 00 	nopl   0x0(%rax,%rax,1)
     7df:	00 

00000000000007e0 <handle_usr2>:
     7e0:	55                   	push   %rbp
     7e1:	53                   	push   %rbx
     7e2:	48 83 ec 08          	sub    $0x8,%rsp
     7e6:	e8 00 00 00 00       	callq  7eb <handle_usr2+0xb>
     7eb:	48 89 c3             	mov    %rax,%rbx
     7ee:	48 c1 e8 03          	shr    $0x3,%rax
     7f2:	0f b6 90 00 80 ff 7f 	movzbl 0x7fff8000(%rax),%edx
     7f9:	48 89 d8             	mov    %rbx,%rax
     7fc:	83 e0 07             	and    $0x7,%eax
     7ff:	83 c0 03             	add    $0x3,%eax
     802:	38 d0                	cmp    %dl,%al
     804:	7c 04                	jl     80a <handle_usr2+0x2a>
     806:	84 d2                	test   %dl,%dl
     808:	75 39                	jne    843 <handle_usr2+0x63>
     80a:	31 ff                	xor    %edi,%edi
     80c:	8b 2b                	mov    (%rbx),%ebp
     80e:	e8 4d fe ff ff       	callq  660 <logstats>
     813:	48 89 d8             	mov    %rbx,%rax
     816:	48 c1 e8 03          	shr    $0x3,%rax
     81a:	0f b6 90 00 80 ff 7f 	movzbl 0x7fff8000(%rax),%edx
     821:	48 89 d8             	mov    %rbx,%rax
     824:	83 e0 07             	and    $0x7,%eax
     827:	83 c0 03             	add    $0x3,%eax
     82a:	38 d0                	cmp    %dl,%al
     82c:	7c 04                	jl     832 <handle_usr2+0x52>
     82e:	84 d2                	test   %dl,%dl
     830:	75 09                	jne    83b <handle_usr2+0x5b>
     832:	89 2b                	mov    %ebp,(%rbx)
     834:	48 83 c4 08          	add    $0x8,%rsp
     838:	5b                   	pop    %rbx
     839:	5d                   	pop    %rbp
     83a:	c3                   	retq   
     83b:	48 89 df             	mov    %rbx,%rdi
     83e:	e8 00 00 00 00       	callq  843 <handle_usr2+0x63>
     843:	48 89 df             	mov    %rbx,%rdi
     846:	e8 00 00 00 00       	callq  84b <handle_usr2+0x6b>
     84b:	0f 1f 44 00 00       	nopl   0x0(%rax,%rax,1)

0000000000000850 <occasional>:
     850:	48 83 ec 08          	sub    $0x8,%rsp
     854:	48 89 f7             	mov    %rsi,%rdi
     857:	e8 00 00 00 00       	callq  85c <occasional+0xc>
     85c:	e8 00 00 00 00       	callq  861 <occasional+0x11>
     861:	c7 05 00 00 00 00 01 	movl   $0x1,0x0(%rip)        # 86b <occasional+0x1b>
     868:	00 00 00 
     86b:	48 83 c4 08          	add    $0x8,%rsp
     86f:	c3                   	retq   

0000000000000870 <handle_alrm>:
     870:	55                   	push   %rbp
     871:	53                   	push   %rbx
     872:	48 83 ec 08          	sub    $0x8,%rsp
     876:	e8 00 00 00 00       	callq  87b <handle_alrm+0xb>
     87b:	48 89 c3             	mov    %rax,%rbx
     87e:	48 c1 e8 03          	shr    $0x3,%rax
     882:	0f b6 90 00 80 ff 7f 	movzbl 0x7fff8000(%rax),%edx
     889:	48 89 d8             	mov    %rbx,%rax
     88c:	83 e0 07             	and    $0x7,%eax
     88f:	83 c0 03             	add    $0x3,%eax
     892:	38 d0                	cmp    %dl,%al
     894:	7c 04                	jl     89a <handle_alrm+0x2a>
     896:	84 d2                	test   %dl,%dl
     898:	75 50                	jne    8ea <handle_alrm+0x7a>
     89a:	8b 05 00 00 00 00    	mov    0x0(%rip),%eax        # 8a0 <handle_alrm+0x30>
     8a0:	8b 2b                	mov    (%rbx),%ebp
     8a2:	85 c0                	test   %eax,%eax
     8a4:	74 4c                	je     8f2 <handle_alrm+0x82>
     8a6:	bf 68 01 00 00       	mov    $0x168,%edi
     8ab:	c7 05 00 00 00 00 00 	movl   $0x0,0x0(%rip)        # 8b5 <handle_alrm+0x45>
     8b2:	00 00 00 
     8b5:	e8 00 00 00 00       	callq  8ba <handle_alrm+0x4a>
     8ba:	48 89 d8             	mov    %rbx,%rax
     8bd:	48 c1 e8 03          	shr    $0x3,%rax
     8c1:	0f b6 90 00 80 ff 7f 	movzbl 0x7fff8000(%rax),%edx
     8c8:	48 89 d8             	mov    %rbx,%rax
     8cb:	83 e0 07             	and    $0x7,%eax
     8ce:	83 c0 03             	add    $0x3,%eax
     8d1:	38 d0                	cmp    %dl,%al
     8d3:	7c 04                	jl     8d9 <handle_alrm+0x69>
     8d5:	84 d2                	test   %dl,%dl
     8d7:	75 09                	jne    8e2 <handle_alrm+0x72>
     8d9:	89 2b                	mov    %ebp,(%rbx)
     8db:	48 83 c4 08          	add    $0x8,%rsp
     8df:	5b                   	pop    %rbx
     8e0:	5d                   	pop    %rbp
     8e1:	c3                   	retq   
     8e2:	48 89 df             	mov    %rbx,%rdi
     8e5:	e8 00 00 00 00       	callq  8ea <handle_alrm+0x7a>
     8ea:	48 89 df             	mov    %rbx,%rdi
     8ed:	e8 00 00 00 00       	callq  8f2 <handle_alrm+0x82>
     8f2:	bf 00 00 00 00       	mov    $0x0,%edi
     8f7:	e8 00 00 00 00       	callq  8fc <handle_alrm+0x8c>
     8fc:	e8 00 00 00 00       	callq  901 <handle_alrm+0x91>
     901:	e8 00 00 00 00       	callq  906 <handle_alrm+0x96>
     906:	66 2e 0f 1f 84 00 00 	nopw   %cs:0x0(%rax,%rax,1)
     90d:	00 00 00 

0000000000000910 <handle_chld>:
     910:	41 57                	push   %r15
     912:	41 56                	push   %r14
     914:	41 55                	push   %r13
     916:	41 54                	push   %r12
     918:	55                   	push   %rbp
     919:	53                   	push   %rbx
     91a:	48 83 ec 78          	sub    $0x78,%rsp
     91e:	8b 05 00 00 00 00    	mov    0x0(%rip),%eax        # 924 <handle_chld+0x14>
     924:	48 8d 6c 24 10       	lea    0x10(%rsp),%rbp
     929:	85 c0                	test   %eax,%eax
     92b:	0f 85 7f 01 00 00    	jne    ab0 <handle_chld+0x1a0>
     931:	49 89 ed             	mov    %rbp,%r13
     934:	48 c7 45 00 b3 8a b5 	movq   $0x41b58ab3,0x0(%rbp)
     93b:	41 
     93c:	48 c7 45 08 00 00 00 	movq   $0x0,0x8(%rbp)
     943:	00 
     944:	49 c1 ed 03          	shr    $0x3,%r13
     948:	48 c7 45 10 00 00 00 	movq   $0x0,0x10(%rbp)
     94f:	00 
     950:	4c 8d 65 60          	lea    0x60(%rbp),%r12
     954:	41 c7 85 00 80 ff 7f 	movl   $0xf1f1f1f1,0x7fff8000(%r13)
     95b:	f1 f1 f1 f1 
     95f:	41 c7 85 04 80 ff 7f 	movl   $0xf4f4f404,0x7fff8004(%r13)
     966:	04 f4 f4 f4 
     96a:	41 c7 85 08 80 ff 7f 	movl   $0xf3f3f3f3,0x7fff8008(%r13)
     971:	f3 f3 f3 f3 
     975:	e8 00 00 00 00       	callq  97a <handle_chld+0x6a>
     97a:	48 89 c3             	mov    %rax,%rbx
     97d:	48 c1 e8 03          	shr    $0x3,%rax
     981:	0f b6 90 00 80 ff 7f 	movzbl 0x7fff8000(%rax),%edx
     988:	48 89 d8             	mov    %rbx,%rax
     98b:	83 e0 07             	and    $0x7,%eax
     98e:	83 c0 03             	add    $0x3,%eax
     991:	38 d0                	cmp    %dl,%al
     993:	7c 08                	jl     99d <handle_chld+0x8d>
     995:	84 d2                	test   %dl,%dl
     997:	0f 85 63 01 00 00    	jne    b00 <handle_chld+0x1f0>
     99d:	8b 03                	mov    (%rbx),%eax
     99f:	49 89 df             	mov    %rbx,%r15
     9a2:	49 83 ec 40          	sub    $0x40,%r12
     9a6:	45 31 f6             	xor    %r14d,%r14d
     9a9:	49 c1 ef 03          	shr    $0x3,%r15
     9ad:	89 44 24 0c          	mov    %eax,0xc(%rsp)
     9b1:	48 89 d8             	mov    %rbx,%rax
     9b4:	83 e0 07             	and    $0x7,%eax
     9b7:	83 c0 03             	add    $0x3,%eax
     9ba:	88 44 24 0b          	mov    %al,0xb(%rsp)
     9be:	66 90                	xchg   %ax,%ax
     9c0:	ba 01 00 00 00       	mov    $0x1,%edx
     9c5:	4c 89 e6             	mov    %r12,%rsi
     9c8:	bf ff ff ff ff       	mov    $0xffffffff,%edi
     9cd:	e8 00 00 00 00       	callq  9d2 <handle_chld+0xc2>
     9d2:	85 c0                	test   %eax,%eax
     9d4:	0f 84 82 00 00 00    	je     a5c <handle_chld+0x14c>
     9da:	78 44                	js     a20 <handle_chld+0x110>
     9dc:	48 8b 15 00 00 00 00 	mov    0x0(%rip),%rdx        # 9e3 <handle_chld+0xd3>
     9e3:	48 85 d2             	test   %rdx,%rdx
     9e6:	74 d8                	je     9c0 <handle_chld+0xb0>
     9e8:	48 8d 7a 24          	lea    0x24(%rdx),%rdi
     9ec:	48 89 f8             	mov    %rdi,%rax
     9ef:	48 c1 e8 03          	shr    $0x3,%rax
     9f3:	0f b6 88 00 80 ff 7f 	movzbl 0x7fff8000(%rax),%ecx
     9fa:	48 89 f8             	mov    %rdi,%rax
     9fd:	83 e0 07             	and    $0x7,%eax
     a00:	83 c0 03             	add    $0x3,%eax
     a03:	38 c8                	cmp    %cl,%al
     a05:	7c 08                	jl     a0f <handle_chld+0xff>
     a07:	84 c9                	test   %cl,%cl
     a09:	0f 85 e4 00 00 00    	jne    af3 <handle_chld+0x1e3>
     a0f:	8b 42 24             	mov    0x24(%rdx),%eax
     a12:	83 e8 01             	sub    $0x1,%eax
     a15:	41 0f 48 c6          	cmovs  %r14d,%eax
     a19:	89 42 24             	mov    %eax,0x24(%rdx)
     a1c:	eb a2                	jmp    9c0 <handle_chld+0xb0>
     a1e:	66 90                	xchg   %ax,%ax
     a20:	41 0f b6 87 00 80 ff 	movzbl 0x7fff8000(%r15),%eax
     a27:	7f 
     a28:	38 44 24 0b          	cmp    %al,0xb(%rsp)
     a2c:	7c 08                	jl     a36 <handle_chld+0x126>
     a2e:	84 c0                	test   %al,%al
     a30:	0f 85 c2 00 00 00    	jne    af8 <handle_chld+0x1e8>
     a36:	8b 03                	mov    (%rbx),%eax
     a38:	83 f8 04             	cmp    $0x4,%eax
     a3b:	74 83                	je     9c0 <handle_chld+0xb0>
     a3d:	83 f8 0b             	cmp    $0xb,%eax
     a40:	0f 84 7a ff ff ff    	je     9c0 <handle_chld+0xb0>
     a46:	83 f8 0a             	cmp    $0xa,%eax
     a49:	74 11                	je     a5c <handle_chld+0x14c>
     a4b:	be 00 00 00 00       	mov    $0x0,%esi
     a50:	bf 03 00 00 00       	mov    $0x3,%edi
     a55:	31 c0                	xor    %eax,%eax
     a57:	e8 00 00 00 00       	callq  a5c <handle_chld+0x14c>
     a5c:	48 89 d8             	mov    %rbx,%rax
     a5f:	48 c1 e8 03          	shr    $0x3,%rax
     a63:	0f b6 90 00 80 ff 7f 	movzbl 0x7fff8000(%rax),%edx
     a6a:	48 89 d8             	mov    %rbx,%rax
     a6d:	83 e0 07             	and    $0x7,%eax
     a70:	83 c0 03             	add    $0x3,%eax
     a73:	38 d0                	cmp    %dl,%al
     a75:	7c 04                	jl     a7b <handle_chld+0x16b>
     a77:	84 d2                	test   %dl,%dl
     a79:	75 70                	jne    aeb <handle_chld+0x1db>
     a7b:	8b 44 24 0c          	mov    0xc(%rsp),%eax
     a7f:	89 03                	mov    %eax,(%rbx)
     a81:	48 8d 44 24 10       	lea    0x10(%rsp),%rax
     a86:	48 39 e8             	cmp    %rbp,%rax
     a89:	75 3a                	jne    ac5 <handle_chld+0x1b5>
     a8b:	49 c7 85 00 80 ff 7f 	movq   $0x0,0x7fff8000(%r13)
     a92:	00 00 00 00 
     a96:	41 c7 85 08 80 ff 7f 	movl   $0x0,0x7fff8008(%r13)
     a9d:	00 00 00 00 
     aa1:	48 83 c4 78          	add    $0x78,%rsp
     aa5:	5b                   	pop    %rbx
     aa6:	5d                   	pop    %rbp
     aa7:	41 5c                	pop    %r12
     aa9:	41 5d                	pop    %r13
     aab:	41 5e                	pop    %r14
     aad:	41 5f                	pop    %r15
     aaf:	c3                   	retq   
     ab0:	48 89 ee             	mov    %rbp,%rsi
     ab3:	bf 60 00 00 00       	mov    $0x60,%edi
     ab8:	e8 00 00 00 00       	callq  abd <handle_chld+0x1ad>
     abd:	48 89 c5             	mov    %rax,%rbp
     ac0:	e9 6c fe ff ff       	jmpq   931 <handle_chld+0x21>
     ac5:	48 b8 f5 f5 f5 f5 f5 	movabs $0xf5f5f5f5f5f5f5f5,%rax
     acc:	f5 f5 f5 
     acf:	48 c7 45 00 0e 36 e0 	movq   $0x45e0360e,0x0(%rbp)
     ad6:	45 
     ad7:	41 c7 85 08 80 ff 7f 	movl   $0xf5f5f5f5,0x7fff8008(%r13)
     ade:	f5 f5 f5 f5 
     ae2:	49 89 85 00 80 ff 7f 	mov    %rax,0x7fff8000(%r13)
     ae9:	eb b6                	jmp    aa1 <handle_chld+0x191>
     aeb:	48 89 df             	mov    %rbx,%rdi
     aee:	e8 00 00 00 00       	callq  af3 <handle_chld+0x1e3>
     af3:	e8 00 00 00 00       	callq  af8 <handle_chld+0x1e8>
     af8:	48 89 df             	mov    %rbx,%rdi
     afb:	e8 00 00 00 00       	callq  b00 <handle_chld+0x1f0>
     b00:	48 89 df             	mov    %rbx,%rdi
     b03:	e8 00 00 00 00       	callq  b08 <handle_chld+0x1f8>
     b08:	0f 1f 84 00 00 00 00 	nopl   0x0(%rax,%rax,1)
     b0f:	00 

0000000000000b10 <e_strdup>:
     b10:	48 83 ec 08          	sub    $0x8,%rsp
     b14:	e8 00 00 00 00       	callq  b19 <e_strdup+0x9>
     b19:	48 85 c0             	test   %rax,%rax
     b1c:	74 05                	je     b23 <e_strdup+0x13>
     b1e:	48 83 c4 08          	add    $0x8,%rsp
     b22:	c3                   	retq   
     b23:	be 00 00 00 00       	mov    $0x0,%esi
     b28:	bf 02 00 00 00       	mov    $0x2,%edi
     b2d:	e8 00 00 00 00       	callq  b32 <e_strdup+0x22>
     b32:	b8 00 00 00 00       	mov    $0x0,%eax
     b37:	48 8b 15 00 00 00 00 	mov    0x0(%rip),%rdx        # b3e <e_strdup+0x2e>
     b3e:	48 c1 e8 03          	shr    $0x3,%rax
     b42:	80 b8 00 80 ff 7f 00 	cmpb   $0x0,0x7fff8000(%rax)
     b49:	75 22                	jne    b6d <e_strdup+0x5d>
     b4b:	48 8b 3d 00 00 00 00 	mov    0x0(%rip),%rdi        # b52 <e_strdup+0x42>
     b52:	be 00 00 00 00       	mov    $0x0,%esi
     b57:	31 c0                	xor    %eax,%eax
     b59:	e8 00 00 00 00       	callq  b5e <e_strdup+0x4e>
     b5e:	e8 00 00 00 00       	callq  b63 <e_strdup+0x53>
     b63:	bf 01 00 00 00       	mov    $0x1,%edi
     b68:	e8 00 00 00 00       	callq  b6d <e_strdup+0x5d>
     b6d:	bf 00 00 00 00       	mov    $0x0,%edi
     b72:	e8 00 00 00 00       	callq  b77 <e_strdup+0x67>
     b77:	66 0f 1f 84 00 00 00 	nopw   0x0(%rax,%rax,1)
     b7e:	00 00 

0000000000000b80 <read_config>:
     b80:	41 57                	push   %r15
     b82:	41 56                	push   %r14
     b84:	41 55                	push   %r13
     b86:	41 54                	push   %r12
     b88:	55                   	push   %rbp
     b89:	53                   	push   %rbx
     b8a:	48 89 fb             	mov    %rdi,%rbx
     b8d:	48 81 ec d8 00 00 00 	sub    $0xd8,%rsp
     b94:	8b 05 00 00 00 00    	mov    0x0(%rip),%eax        # b9a <read_config+0x1a>
     b9a:	4c 8d 64 24 10       	lea    0x10(%rsp),%r12
     b9f:	85 c0                	test   %eax,%eax
     ba1:	0f 85 0e 07 00 00    	jne    12b5 <read_config+0x735>
     ba7:	4d 89 e5             	mov    %r12,%r13
     baa:	49 c7 04 24 b3 8a b5 	movq   $0x41b58ab3,(%r12)
     bb1:	41 
     bb2:	49 c7 44 24 08 00 00 	movq   $0x0,0x8(%r12)
     bb9:	00 00 
     bbb:	49 c1 ed 03          	shr    $0x3,%r13
     bbf:	49 c7 44 24 10 00 00 	movq   $0x0,0x10(%r12)
     bc6:	00 00 
     bc8:	be 00 00 00 00       	mov    $0x0,%esi
     bcd:	41 c7 85 00 80 ff 7f 	movl   $0xf1f1f1f1,0x7fff8000(%r13)
     bd4:	f1 f1 f1 f1 
     bd8:	41 c7 85 10 80 ff 7f 	movl   $0xf4f4f404,0x7fff8010(%r13)
     bdf:	04 f4 f4 f4 
     be3:	48 89 df             	mov    %rbx,%rdi
     be6:	41 c7 85 14 80 ff 7f 	movl   $0xf3f3f3f3,0x7fff8014(%r13)
     bed:	f3 f3 f3 f3 
     bf1:	e8 00 00 00 00       	callq  bf6 <read_config+0x76>
     bf6:	48 85 c0             	test   %rax,%rax
     bf9:	48 89 44 24 08       	mov    %rax,0x8(%rsp)
     bfe:	0f 84 9a 06 00 00    	je     129e <read_config+0x71e>
     c04:	49 8d 44 24 20       	lea    0x20(%r12),%rax
     c09:	49 be 00 26 00 00 01 	movabs $0x100002600,%r14
     c10:	00 00 00 
     c13:	48 89 04 24          	mov    %rax,(%rsp)
     c17:	48 8b 54 24 08       	mov    0x8(%rsp),%rdx
     c1c:	48 8b 3c 24          	mov    (%rsp),%rdi
     c20:	be e8 03 00 00       	mov    $0x3e8,%esi
     c25:	e8 00 00 00 00       	callq  c2a <read_config+0xaa>
     c2a:	48 85 c0             	test   %rax,%rax
     c2d:	0f 84 b0 05 00 00    	je     11e3 <read_config+0x663>
     c33:	48 8b 3c 24          	mov    (%rsp),%rdi
     c37:	be 23 00 00 00       	mov    $0x23,%esi
     c3c:	e8 00 00 00 00       	callq  c41 <read_config+0xc1>
     c41:	48 85 c0             	test   %rax,%rax
     c44:	74 24                	je     c6a <read_config+0xea>
     c46:	48 89 c2             	mov    %rax,%rdx
     c49:	48 89 c6             	mov    %rax,%rsi
     c4c:	48 c1 ea 03          	shr    $0x3,%rdx
     c50:	83 e6 07             	and    $0x7,%esi
     c53:	0f b6 92 00 80 ff 7f 	movzbl 0x7fff8000(%rdx),%edx
     c5a:	40 38 f2             	cmp    %sil,%dl
     c5d:	7f 08                	jg     c67 <read_config+0xe7>
     c5f:	84 d2                	test   %dl,%dl
     c61:	0f 85 63 06 00 00    	jne    12ca <read_config+0x74a>
     c67:	c6 00 00             	movb   $0x0,(%rax)
     c6a:	48 8b 1c 24          	mov    (%rsp),%rbx
     c6e:	be 00 00 00 00       	mov    $0x0,%esi
     c73:	48 89 df             	mov    %rbx,%rdi
     c76:	e8 00 00 00 00       	callq  c7b <read_config+0xfb>
     c7b:	48 8d 1c 03          	lea    (%rbx,%rax,1),%rbx
     c7f:	48 89 d8             	mov    %rbx,%rax
     c82:	48 89 da             	mov    %rbx,%rdx
     c85:	48 c1 e8 03          	shr    $0x3,%rax
     c89:	83 e2 07             	and    $0x7,%edx
     c8c:	0f b6 80 00 80 ff 7f 	movzbl 0x7fff8000(%rax),%eax
     c93:	38 d0                	cmp    %dl,%al
     c95:	7f 09                	jg     ca0 <read_config+0x120>
     c97:	84 c0                	test   %al,%al
     c99:	0f 85 33 06 00 00    	jne    12d2 <read_config+0x752>
     c9f:	90                   	nop
     ca0:	80 3b 00             	cmpb   $0x0,(%rbx)
     ca3:	0f 84 6e ff ff ff    	je     c17 <read_config+0x97>
     ca9:	be 00 00 00 00       	mov    $0x0,%esi
     cae:	48 89 df             	mov    %rbx,%rdi
     cb1:	e8 00 00 00 00       	callq  cb6 <read_config+0x136>
     cb6:	4c 8d 3c 03          	lea    (%rbx,%rax,1),%r15
     cba:	4c 89 f8             	mov    %r15,%rax
     cbd:	4c 89 fe             	mov    %r15,%rsi
     cc0:	48 c1 e8 03          	shr    $0x3,%rax
     cc4:	83 e6 07             	and    $0x7,%esi
     cc7:	0f b6 80 00 80 ff 7f 	movzbl 0x7fff8000(%rax),%eax
     cce:	40 38 f0             	cmp    %sil,%al
     cd1:	7f 08                	jg     cdb <read_config+0x15b>
     cd3:	84 c0                	test   %al,%al
     cd5:	0f 85 ff 05 00 00    	jne    12da <read_config+0x75a>
     cdb:	41 0f b6 07          	movzbl (%r15),%eax
     cdf:	3c 20                	cmp    $0x20,%al
     ce1:	77 64                	ja     d47 <read_config+0x1c7>
     ce3:	49 0f a3 c6          	bt     %rax,%r14
     ce7:	73 5e                	jae    d47 <read_config+0x1c7>
     ce9:	4c 89 ff             	mov    %r15,%rdi
     cec:	0f 1f 40 00          	nopl   0x0(%rax)
     cf0:	48 89 f8             	mov    %rdi,%rax
     cf3:	48 89 fe             	mov    %rdi,%rsi
     cf6:	49 83 c7 01          	add    $0x1,%r15
     cfa:	48 c1 e8 03          	shr    $0x3,%rax
     cfe:	83 e6 07             	and    $0x7,%esi
     d01:	0f b6 80 00 80 ff 7f 	movzbl 0x7fff8000(%rax),%eax
     d08:	40 38 f0             	cmp    %sil,%al
     d0b:	7f 08                	jg     d15 <read_config+0x195>
     d0d:	84 c0                	test   %al,%al
     d0f:	0f 85 84 05 00 00    	jne    1299 <read_config+0x719>
     d15:	4c 89 f8             	mov    %r15,%rax
     d18:	41 c6 47 ff 00       	movb   $0x0,-0x1(%r15)
     d1d:	4c 89 fe             	mov    %r15,%rsi
     d20:	48 c1 e8 03          	shr    $0x3,%rax
     d24:	83 e6 07             	and    $0x7,%esi
     d27:	0f b6 80 00 80 ff 7f 	movzbl 0x7fff8000(%rax),%eax
     d2e:	40 38 f0             	cmp    %sil,%al
     d31:	7f 08                	jg     d3b <read_config+0x1bb>
     d33:	84 c0                	test   %al,%al
     d35:	0f 85 e4 04 00 00    	jne    121f <read_config+0x69f>
     d3b:	41 0f b6 07          	movzbl (%r15),%eax
     d3f:	3c 20                	cmp    $0x20,%al
     d41:	0f 86 d9 02 00 00    	jbe    1020 <read_config+0x4a0>
     d47:	be 3d 00 00 00       	mov    $0x3d,%esi
     d4c:	48 89 df             	mov    %rbx,%rdi
     d4f:	e8 00 00 00 00       	callq  d54 <read_config+0x1d4>
     d54:	48 85 c0             	test   %rax,%rax
     d57:	0f 84 11 03 00 00    	je     106e <read_config+0x4ee>
     d5d:	48 89 c6             	mov    %rax,%rsi
     d60:	48 89 c7             	mov    %rax,%rdi
     d63:	48 8d 68 01          	lea    0x1(%rax),%rbp
     d67:	48 c1 ee 03          	shr    $0x3,%rsi
     d6b:	83 e7 07             	and    $0x7,%edi
     d6e:	0f b6 b6 00 80 ff 7f 	movzbl 0x7fff8000(%rsi),%esi
     d75:	40 38 fe             	cmp    %dil,%sil
     d78:	7f 09                	jg     d83 <read_config+0x203>
     d7a:	40 84 f6             	test   %sil,%sil
     d7d:	0f 85 e2 04 00 00    	jne    1265 <read_config+0x6e5>
     d83:	c6 00 00             	movb   $0x0,(%rax)
     d86:	be 00 00 00 00       	mov    $0x0,%esi
     d8b:	48 89 df             	mov    %rbx,%rdi
     d8e:	e8 00 00 00 00       	callq  d93 <read_config+0x213>
     d93:	85 c0                	test   %eax,%eax
     d95:	0f 84 9d 02 00 00    	je     1038 <read_config+0x4b8>
     d9b:	be 00 00 00 00       	mov    $0x0,%esi
     da0:	48 89 df             	mov    %rbx,%rdi
     da3:	e8 00 00 00 00       	callq  da8 <read_config+0x228>
     da8:	85 c0                	test   %eax,%eax
     daa:	0f 84 9f 02 00 00    	je     104f <read_config+0x4cf>
     db0:	be 00 00 00 00       	mov    $0x0,%esi
     db5:	48 89 df             	mov    %rbx,%rdi
     db8:	e8 00 00 00 00       	callq  dbd <read_config+0x23d>
     dbd:	85 c0                	test   %eax,%eax
     dbf:	0f 84 b0 02 00 00    	je     1075 <read_config+0x4f5>
     dc5:	be 00 00 00 00       	mov    $0x0,%esi
     dca:	48 89 df             	mov    %rbx,%rdi
     dcd:	e8 00 00 00 00       	callq  dd2 <read_config+0x252>
     dd2:	85 c0                	test   %eax,%eax
     dd4:	0f 84 ba 02 00 00    	je     1094 <read_config+0x514>
     dda:	be 00 00 00 00       	mov    $0x0,%esi
     ddf:	48 89 df             	mov    %rbx,%rdi
     de2:	e8 00 00 00 00       	callq  de7 <read_config+0x267>
     de7:	85 c0                	test   %eax,%eax
     de9:	0f 84 c9 02 00 00    	je     10b8 <read_config+0x538>
     def:	be 00 00 00 00       	mov    $0x0,%esi
     df4:	48 89 df             	mov    %rbx,%rdi
     df7:	e8 00 00 00 00       	callq  dfc <read_config+0x27c>
     dfc:	85 c0                	test   %eax,%eax
     dfe:	0f 84 f2 02 00 00    	je     10f6 <read_config+0x576>
     e04:	be 00 00 00 00       	mov    $0x0,%esi
     e09:	48 89 df             	mov    %rbx,%rdi
     e0c:	e8 00 00 00 00       	callq  e11 <read_config+0x291>
     e11:	85 c0                	test   %eax,%eax
     e13:	0f 84 c3 02 00 00    	je     10dc <read_config+0x55c>
     e19:	be 00 00 00 00       	mov    $0x0,%esi
     e1e:	48 89 df             	mov    %rbx,%rdi
     e21:	e8 00 00 00 00       	callq  e26 <read_config+0x2a6>
     e26:	85 c0                	test   %eax,%eax
     e28:	0f 84 e7 02 00 00    	je     1115 <read_config+0x595>
     e2e:	be 00 00 00 00       	mov    $0x0,%esi
     e33:	48 89 df             	mov    %rbx,%rdi
     e36:	e8 00 00 00 00       	callq  e3b <read_config+0x2bb>
     e3b:	85 c0                	test   %eax,%eax
     e3d:	0f 84 99 02 00 00    	je     10dc <read_config+0x55c>
     e43:	be 00 00 00 00       	mov    $0x0,%esi
     e48:	48 89 df             	mov    %rbx,%rdi
     e4b:	e8 00 00 00 00       	callq  e50 <read_config+0x2d0>
     e50:	85 c0                	test   %eax,%eax
     e52:	0f 84 bd 02 00 00    	je     1115 <read_config+0x595>
     e58:	be 00 00 00 00       	mov    $0x0,%esi
     e5d:	48 89 df             	mov    %rbx,%rdi
     e60:	e8 00 00 00 00       	callq  e65 <read_config+0x2e5>
     e65:	85 c0                	test   %eax,%eax
     e67:	0f 84 c2 02 00 00    	je     112f <read_config+0x5af>
     e6d:	be 00 00 00 00       	mov    $0x0,%esi
     e72:	48 89 df             	mov    %rbx,%rdi
     e75:	e8 00 00 00 00       	callq  e7a <read_config+0x2fa>
     e7a:	85 c0                	test   %eax,%eax
     e7c:	0f 84 cc 02 00 00    	je     114e <read_config+0x5ce>
     e82:	be 00 00 00 00       	mov    $0x0,%esi
     e87:	48 89 df             	mov    %rbx,%rdi
     e8a:	e8 00 00 00 00       	callq  e8f <read_config+0x30f>
     e8f:	85 c0                	test   %eax,%eax
     e91:	0f 84 d6 02 00 00    	je     116d <read_config+0x5ed>
     e97:	be 00 00 00 00       	mov    $0x0,%esi
     e9c:	48 89 df             	mov    %rbx,%rdi
     e9f:	e8 00 00 00 00       	callq  ea4 <read_config+0x324>
     ea4:	85 c0                	test   %eax,%eax
     ea6:	0f 84 df 02 00 00    	je     118b <read_config+0x60b>
     eac:	be 00 00 00 00       	mov    $0x0,%esi
     eb1:	48 89 df             	mov    %rbx,%rdi
     eb4:	e8 00 00 00 00       	callq  eb9 <read_config+0x339>
     eb9:	85 c0                	test   %eax,%eax
     ebb:	0f 84 08 03 00 00    	je     11c9 <read_config+0x649>
     ec1:	be 00 00 00 00       	mov    $0x0,%esi
     ec6:	48 89 df             	mov    %rbx,%rdi
     ec9:	e8 00 00 00 00       	callq  ece <read_config+0x34e>
     ece:	85 c0                	test   %eax,%eax
     ed0:	0f 84 d4 02 00 00    	je     11aa <read_config+0x62a>
     ed6:	be 00 00 00 00       	mov    $0x0,%esi
     edb:	48 89 df             	mov    %rbx,%rdi
     ede:	e8 00 00 00 00       	callq  ee3 <read_config+0x363>
     ee3:	85 c0                	test   %eax,%eax
     ee5:	0f 84 5b 03 00 00    	je     1246 <read_config+0x6c6>
     eeb:	be 00 00 00 00       	mov    $0x0,%esi
     ef0:	48 89 df             	mov    %rbx,%rdi
     ef3:	e8 00 00 00 00       	callq  ef8 <read_config+0x378>
     ef8:	85 c0                	test   %eax,%eax
     efa:	0f 84 27 03 00 00    	je     1227 <read_config+0x6a7>
     f00:	be 00 00 00 00       	mov    $0x0,%esi
     f05:	48 89 df             	mov    %rbx,%rdi
     f08:	e8 00 00 00 00       	callq  f0d <read_config+0x38d>
     f0d:	85 c0                	test   %eax,%eax
     f0f:	0f 84 7c 04 00 00    	je     1391 <read_config+0x811>
     f15:	be 00 00 00 00       	mov    $0x0,%esi
     f1a:	48 89 df             	mov    %rbx,%rdi
     f1d:	e8 00 00 00 00       	callq  f22 <read_config+0x3a2>
     f22:	85 c0                	test   %eax,%eax
     f24:	0f 84 4d 04 00 00    	je     1377 <read_config+0x7f7>
     f2a:	be 00 00 00 00       	mov    $0x0,%esi
     f2f:	48 89 df             	mov    %rbx,%rdi
     f32:	e8 00 00 00 00       	callq  f37 <read_config+0x3b7>
     f37:	85 c0                	test   %eax,%eax
     f39:	0f 84 1e 04 00 00    	je     135d <read_config+0x7dd>
     f3f:	be 00 00 00 00       	mov    $0x0,%esi
     f44:	48 89 df             	mov    %rbx,%rdi
     f47:	e8 00 00 00 00       	callq  f4c <read_config+0x3cc>
     f4c:	85 c0                	test   %eax,%eax
     f4e:	0f 84 ef 03 00 00    	je     1343 <read_config+0x7c3>
     f54:	be 00 00 00 00       	mov    $0x0,%esi
     f59:	48 89 df             	mov    %rbx,%rdi
     f5c:	e8 00 00 00 00       	callq  f61 <read_config+0x3e1>
     f61:	85 c0                	test   %eax,%eax
     f63:	0f 84 66 04 00 00    	je     13cf <read_config+0x84f>
     f69:	be 00 00 00 00       	mov    $0x0,%esi
     f6e:	48 89 df             	mov    %rbx,%rdi
     f71:	e8 00 00 00 00       	callq  f76 <read_config+0x3f6>
     f76:	85 c0                	test   %eax,%eax
     f78:	0f 84 32 04 00 00    	je     13b0 <read_config+0x830>
     f7e:	be 00 00 00 00       	mov    $0x0,%esi
     f83:	48 89 df             	mov    %rbx,%rdi
     f86:	e8 00 00 00 00       	callq  f8b <read_config+0x40b>
     f8b:	85 c0                	test   %eax,%eax
     f8d:	0f 84 56 04 00 00    	je     13e9 <read_config+0x869>
     f93:	be 00 00 00 00       	mov    $0x0,%esi
     f98:	48 89 df             	mov    %rbx,%rdi
     f9b:	e8 00 00 00 00       	callq  fa0 <read_config+0x420>
     fa0:	85 c0                	test   %eax,%eax
     fa2:	0f 84 7c 03 00 00    	je     1324 <read_config+0x7a4>
     fa8:	be 00 00 00 00       	mov    $0x0,%esi
     fad:	48 89 df             	mov    %rbx,%rdi
     fb0:	e8 00 00 00 00       	callq  fb5 <read_config+0x435>
     fb5:	85 c0                	test   %eax,%eax
     fb7:	0f 85 25 03 00 00    	jne    12e2 <read_config+0x762>
     fbd:	48 89 ee             	mov    %rbp,%rsi
     fc0:	48 89 df             	mov    %rbx,%rdi
     fc3:	e8 78 f5 ff ff       	callq  540 <value_required>
     fc8:	48 89 ef             	mov    %rbp,%rdi
     fcb:	e8 00 00 00 00       	callq  fd0 <read_config+0x450>
     fd0:	89 05 00 00 00 00    	mov    %eax,0x0(%rip)        # fd6 <read_config+0x456>
     fd6:	66 2e 0f 1f 84 00 00 	nopw   %cs:0x0(%rax,%rax,1)
     fdd:	00 00 00 
     fe0:	be 00 00 00 00       	mov    $0x0,%esi
     fe5:	4c 89 ff             	mov    %r15,%rdi
     fe8:	e8 00 00 00 00       	callq  fed <read_config+0x46d>
     fed:	49 8d 1c 07          	lea    (%r15,%rax,1),%rbx
     ff1:	48 89 d8             	mov    %rbx,%rax
     ff4:	48 89 da             	mov    %rbx,%rdx
     ff7:	48 c1 e8 03          	shr    $0x3,%rax
     ffb:	83 e2 07             	and    $0x7,%edx
     ffe:	0f b6 80 00 80 ff 7f 	movzbl 0x7fff8000(%rax),%eax
    1005:	38 d0                	cmp    %dl,%al
    1007:	0f 8f 93 fc ff ff    	jg     ca0 <read_config+0x120>
    100d:	84 c0                	test   %al,%al
    100f:	0f 84 8b fc ff ff    	je     ca0 <read_config+0x120>
    1015:	48 89 df             	mov    %rbx,%rdi
    1018:	e8 00 00 00 00       	callq  101d <read_config+0x49d>
    101d:	0f 1f 00             	nopl   (%rax)
    1020:	49 0f a3 c6          	bt     %rax,%r14
    1024:	4c 89 ff             	mov    %r15,%rdi
    1027:	0f 82 c3 fc ff ff    	jb     cf0 <read_config+0x170>
    102d:	e9 15 fd ff ff       	jmpq   d47 <read_config+0x1c7>
    1032:	66 0f 1f 44 00 00    	nopw   0x0(%rax,%rax,1)
    1038:	48 89 ee             	mov    %rbp,%rsi
    103b:	48 89 df             	mov    %rbx,%rdi
    103e:	e8 ad f4 ff ff       	callq  4f0 <no_value_required>
    1043:	c7 05 00 00 00 00 01 	movl   $0x1,0x0(%rip)        # 104d <read_config+0x4cd>
    104a:	00 00 00 
    104d:	eb 91                	jmp    fe0 <read_config+0x460>
    104f:	48 89 ee             	mov    %rbp,%rsi
    1052:	48 89 df             	mov    %rbx,%rdi
    1055:	e8 e6 f4 ff ff       	callq  540 <value_required>
    105a:	48 89 ef             	mov    %rbp,%rdi
    105d:	e8 00 00 00 00       	callq  1062 <read_config+0x4e2>
    1062:	66 89 05 00 00 00 00 	mov    %ax,0x0(%rip)        # 1069 <read_config+0x4e9>
    1069:	e9 72 ff ff ff       	jmpq   fe0 <read_config+0x460>
    106e:	31 ed                	xor    %ebp,%ebp
    1070:	e9 11 fd ff ff       	jmpq   d86 <read_config+0x206>
    1075:	48 89 ee             	mov    %rbp,%rsi
    1078:	48 89 df             	mov    %rbx,%rdi
    107b:	e8 c0 f4 ff ff       	callq  540 <value_required>
    1080:	48 89 ef             	mov    %rbp,%rdi
    1083:	e8 88 fa ff ff       	callq  b10 <e_strdup>
    1088:	48 89 05 00 00 00 00 	mov    %rax,0x0(%rip)        # 108f <read_config+0x50f>
    108f:	e9 4c ff ff ff       	jmpq   fe0 <read_config+0x460>
    1094:	48 89 ee             	mov    %rbp,%rsi
    1097:	48 89 df             	mov    %rbx,%rdi
    109a:	e8 51 f4 ff ff       	callq  4f0 <no_value_required>
    109f:	c7 05 00 00 00 00 01 	movl   $0x1,0x0(%rip)        # 10a9 <read_config+0x529>
    10a6:	00 00 00 
    10a9:	c7 05 00 00 00 00 01 	movl   $0x1,0x0(%rip)        # 10b3 <read_config+0x533>
    10b0:	00 00 00 
    10b3:	e9 28 ff ff ff       	jmpq   fe0 <read_config+0x460>
    10b8:	48 89 ee             	mov    %rbp,%rsi
    10bb:	48 89 df             	mov    %rbx,%rdi
    10be:	e8 2d f4 ff ff       	callq  4f0 <no_value_required>
    10c3:	c7 05 00 00 00 00 00 	movl   $0x0,0x0(%rip)        # 10cd <read_config+0x54d>
    10ca:	00 00 00 
    10cd:	c7 05 00 00 00 00 00 	movl   $0x0,0x0(%rip)        # 10d7 <read_config+0x557>
    10d4:	00 00 00 
    10d7:	e9 04 ff ff ff       	jmpq   fe0 <read_config+0x460>
    10dc:	48 89 ee             	mov    %rbp,%rsi
    10df:	48 89 df             	mov    %rbx,%rdi
    10e2:	e8 09 f4 ff ff       	callq  4f0 <no_value_required>
    10e7:	c7 05 00 00 00 00 00 	movl   $0x0,0x0(%rip)        # 10f1 <read_config+0x571>
    10ee:	00 00 00 
    10f1:	e9 ea fe ff ff       	jmpq   fe0 <read_config+0x460>
    10f6:	48 89 ee             	mov    %rbp,%rsi
    10f9:	48 89 df             	mov    %rbx,%rdi
    10fc:	e8 3f f4 ff ff       	callq  540 <value_required>
    1101:	48 89 ef             	mov    %rbp,%rdi
    1104:	e8 07 fa ff ff       	callq  b10 <e_strdup>
    1109:	48 89 05 00 00 00 00 	mov    %rax,0x0(%rip)        # 1110 <read_config+0x590>
    1110:	e9 cb fe ff ff       	jmpq   fe0 <read_config+0x460>
    1115:	48 89 ee             	mov    %rbp,%rsi
    1118:	48 89 df             	mov    %rbx,%rdi
    111b:	e8 d0 f3 ff ff       	callq  4f0 <no_value_required>
    1120:	c7 05 00 00 00 00 01 	movl   $0x1,0x0(%rip)        # 112a <read_config+0x5aa>
    1127:	00 00 00 
    112a:	e9 b1 fe ff ff       	jmpq   fe0 <read_config+0x460>
    112f:	48 89 ee             	mov    %rbp,%rsi
    1132:	48 89 df             	mov    %rbx,%rdi
    1135:	e8 06 f4 ff ff       	callq  540 <value_required>
    113a:	48 89 ef             	mov    %rbp,%rdi
    113d:	e8 ce f9 ff ff       	callq  b10 <e_strdup>
    1142:	48 89 05 00 00 00 00 	mov    %rax,0x0(%rip)        # 1149 <read_config+0x5c9>
    1149:	e9 92 fe ff ff       	jmpq   fe0 <read_config+0x460>
    114e:	48 89 ee             	mov    %rbp,%rsi
    1151:	48 89 df             	mov    %rbx,%rdi
    1154:	e8 e7 f3 ff ff       	callq  540 <value_required>
    1159:	48 89 ef             	mov    %rbp,%rdi
    115c:	e8 af f9 ff ff       	callq  b10 <e_strdup>
    1161:	48 89 05 00 00 00 00 	mov    %rax,0x0(%rip)        # 1168 <read_config+0x5e8>
    1168:	e9 73 fe ff ff       	jmpq   fe0 <read_config+0x460>
    116d:	48 89 ee             	mov    %rbp,%rsi
    1170:	48 89 df             	mov    %rbx,%rdi
    1173:	e8 c8 f3 ff ff       	callq  540 <value_required>
    1178:	48 89 ef             	mov    %rbp,%rdi
    117b:	e8 00 00 00 00       	callq  1180 <read_config+0x600>
    1180:	89 05 00 00 00 00    	mov    %eax,0x0(%rip)        # 1186 <read_config+0x606>
    1186:	e9 55 fe ff ff       	jmpq   fe0 <read_config+0x460>
    118b:	48 89 ee             	mov    %rbp,%rsi
    118e:	48 89 df             	mov    %rbx,%rdi
    1191:	e8 aa f3 ff ff       	callq  540 <value_required>
    1196:	48 89 ef             	mov    %rbp,%rdi
    1199:	e8 72 f9 ff ff       	callq  b10 <e_strdup>
    119e:	48 89 05 00 00 00 00 	mov    %rax,0x0(%rip)        # 11a5 <read_config+0x625>
    11a5:	e9 36 fe ff ff       	jmpq   fe0 <read_config+0x460>
    11aa:	48 89 ee             	mov    %rbp,%rsi
    11ad:	48 89 df             	mov    %rbx,%rdi
    11b0:	e8 8b f3 ff ff       	callq  540 <value_required>
    11b5:	48 89 ef             	mov    %rbp,%rdi
    11b8:	e8 53 f9 ff ff       	callq  b10 <e_strdup>
    11bd:	48 89 05 00 00 00 00 	mov    %rax,0x0(%rip)        # 11c4 <read_config+0x644>
    11c4:	e9 17 fe ff ff       	jmpq   fe0 <read_config+0x460>
    11c9:	48 89 ee             	mov    %rbp,%rsi
    11cc:	48 89 df             	mov    %rbx,%rdi
    11cf:	e8 1c f3 ff ff       	callq  4f0 <no_value_required>
    11d4:	c7 05 00 00 00 00 01 	movl   $0x1,0x0(%rip)        # 11de <read_config+0x65e>
    11db:	00 00 00 
    11de:	e9 fd fd ff ff       	jmpq   fe0 <read_config+0x460>
    11e3:	48 8b 7c 24 08       	mov    0x8(%rsp),%rdi
    11e8:	e8 00 00 00 00       	callq  11ed <read_config+0x66d>
    11ed:	48 8d 44 24 10       	lea    0x10(%rsp),%rax
    11f2:	4c 39 e0             	cmp    %r12,%rax
    11f5:	75 76                	jne    126d <read_config+0x6ed>
    11f7:	41 c7 85 00 80 ff 7f 	movl   $0x0,0x7fff8000(%r13)
    11fe:	00 00 00 00 
    1202:	49 c7 85 10 80 ff 7f 	movq   $0x0,0x7fff8010(%r13)
    1209:	00 00 00 00 
    120d:	48 81 c4 d8 00 00 00 	add    $0xd8,%rsp
    1214:	5b                   	pop    %rbx
    1215:	5d                   	pop    %rbp
    1216:	41 5c                	pop    %r12
    1218:	41 5d                	pop    %r13
    121a:	41 5e                	pop    %r14
    121c:	41 5f                	pop    %r15
    121e:	c3                   	retq   
    121f:	4c 89 ff             	mov    %r15,%rdi
    1222:	e8 00 00 00 00       	callq  1227 <read_config+0x6a7>
    1227:	48 89 ee             	mov    %rbp,%rsi
    122a:	48 89 df             	mov    %rbx,%rdi
    122d:	e8 0e f3 ff ff       	callq  540 <value_required>
    1232:	48 89 ef             	mov    %rbp,%rdi
    1235:	e8 d6 f8 ff ff       	callq  b10 <e_strdup>
    123a:	48 89 05 00 00 00 00 	mov    %rax,0x0(%rip)        # 1241 <read_config+0x6c1>
    1241:	e9 9a fd ff ff       	jmpq   fe0 <read_config+0x460>
    1246:	48 89 ee             	mov    %rbp,%rsi
    1249:	48 89 df             	mov    %rbx,%rdi
    124c:	e8 ef f2 ff ff       	callq  540 <value_required>
    1251:	48 89 ef             	mov    %rbp,%rdi
    1254:	e8 b7 f8 ff ff       	callq  b10 <e_strdup>
    1259:	48 89 05 00 00 00 00 	mov    %rax,0x0(%rip)        # 1260 <read_config+0x6e0>
    1260:	e9 7b fd ff ff       	jmpq   fe0 <read_config+0x460>
    1265:	48 89 c7             	mov    %rax,%rdi
    1268:	e8 00 00 00 00       	callq  126d <read_config+0x6ed>
    126d:	48 b8 f5 f5 f5 f5 f5 	movabs $0xf5f5f5f5f5f5f5f5,%rax
    1274:	f5 f5 f5 
    1277:	49 c7 04 24 0e 36 e0 	movq   $0x45e0360e,(%r12)
    127e:	45 
    127f:	49 89 85 00 80 ff 7f 	mov    %rax,0x7fff8000(%r13)
    1286:	49 89 85 08 80 ff 7f 	mov    %rax,0x7fff8008(%r13)
    128d:	49 89 85 10 80 ff 7f 	mov    %rax,0x7fff8010(%r13)
    1294:	e9 74 ff ff ff       	jmpq   120d <read_config+0x68d>
    1299:	e8 00 00 00 00       	callq  129e <read_config+0x71e>
    129e:	48 89 df             	mov    %rbx,%rdi
    12a1:	e8 00 00 00 00       	callq  12a6 <read_config+0x726>
    12a6:	e8 00 00 00 00       	callq  12ab <read_config+0x72b>
    12ab:	bf 01 00 00 00       	mov    $0x1,%edi
    12b0:	e8 00 00 00 00       	callq  12b5 <read_config+0x735>
    12b5:	4c 89 e6             	mov    %r12,%rsi
    12b8:	bf c0 00 00 00       	mov    $0xc0,%edi
    12bd:	e8 00 00 00 00       	callq  12c2 <read_config+0x742>
    12c2:	49 89 c4             	mov    %rax,%r12
    12c5:	e9 dd f8 ff ff       	jmpq   ba7 <read_config+0x27>
    12ca:	48 89 c7             	mov    %rax,%rdi
    12cd:	e8 00 00 00 00       	callq  12d2 <read_config+0x752>
    12d2:	48 89 df             	mov    %rbx,%rdi
    12d5:	e8 00 00 00 00       	callq  12da <read_config+0x75a>
    12da:	4c 89 ff             	mov    %r15,%rdi
    12dd:	e8 00 00 00 00       	callq  12e2 <read_config+0x762>
    12e2:	b8 00 00 00 00       	mov    $0x0,%eax
    12e7:	48 8b 15 00 00 00 00 	mov    0x0(%rip),%rdx        # 12ee <read_config+0x76e>
    12ee:	48 c1 e8 03          	shr    $0x3,%rax
    12f2:	80 b8 00 80 ff 7f 00 	cmpb   $0x0,0x7fff8000(%rax)
    12f9:	0f 85 09 01 00 00    	jne    1408 <read_config+0x888>
    12ff:	48 8b 3d 00 00 00 00 	mov    0x0(%rip),%rdi        # 1306 <read_config+0x786>
    1306:	48 89 d9             	mov    %rbx,%rcx
    1309:	be 00 00 00 00       	mov    $0x0,%esi
    130e:	31 c0                	xor    %eax,%eax
    1310:	e8 00 00 00 00       	callq  1315 <read_config+0x795>
    1315:	e8 00 00 00 00       	callq  131a <read_config+0x79a>
    131a:	bf 01 00 00 00       	mov    $0x1,%edi
    131f:	e8 00 00 00 00       	callq  1324 <read_config+0x7a4>
    1324:	48 89 ee             	mov    %rbp,%rsi
    1327:	48 89 df             	mov    %rbx,%rdi
    132a:	e8 11 f2 ff ff       	callq  540 <value_required>
    132f:	48 89 ef             	mov    %rbp,%rdi
    1332:	e8 d9 f7 ff ff       	callq  b10 <e_strdup>
    1337:	48 89 05 00 00 00 00 	mov    %rax,0x0(%rip)        # 133e <read_config+0x7be>
    133e:	e9 9d fc ff ff       	jmpq   fe0 <read_config+0x460>
    1343:	48 89 ee             	mov    %rbp,%rsi
    1346:	48 89 df             	mov    %rbx,%rdi
    1349:	e8 a2 f1 ff ff       	callq  4f0 <no_value_required>
    134e:	c7 05 00 00 00 00 01 	movl   $0x1,0x0(%rip)        # 1358 <read_config+0x7d8>
    1355:	00 00 00 
    1358:	e9 83 fc ff ff       	jmpq   fe0 <read_config+0x460>
    135d:	48 89 ee             	mov    %rbp,%rsi
    1360:	48 89 df             	mov    %rbx,%rdi
    1363:	e8 88 f1 ff ff       	callq  4f0 <no_value_required>
    1368:	c7 05 00 00 00 00 00 	movl   $0x0,0x0(%rip)        # 1372 <read_config+0x7f2>
    136f:	00 00 00 
    1372:	e9 69 fc ff ff       	jmpq   fe0 <read_config+0x460>
    1377:	48 89 ee             	mov    %rbp,%rsi
    137a:	48 89 df             	mov    %rbx,%rdi
    137d:	e8 6e f1 ff ff       	callq  4f0 <no_value_required>
    1382:	c7 05 00 00 00 00 01 	movl   $0x1,0x0(%rip)        # 138c <read_config+0x80c>
    1389:	00 00 00 
    138c:	e9 4f fc ff ff       	jmpq   fe0 <read_config+0x460>
    1391:	48 89 ee             	mov    %rbp,%rsi
    1394:	48 89 df             	mov    %rbx,%rdi
    1397:	e8 a4 f1 ff ff       	callq  540 <value_required>
    139c:	48 89 ef             	mov    %rbp,%rdi
    139f:	e8 6c f7 ff ff       	callq  b10 <e_strdup>
    13a4:	48 89 05 00 00 00 00 	mov    %rax,0x0(%rip)        # 13ab <read_config+0x82b>
    13ab:	e9 30 fc ff ff       	jmpq   fe0 <read_config+0x460>
    13b0:	48 89 ee             	mov    %rbp,%rsi
    13b3:	48 89 df             	mov    %rbx,%rdi
    13b6:	e8 85 f1 ff ff       	callq  540 <value_required>
    13bb:	48 89 ef             	mov    %rbp,%rdi
    13be:	e8 4d f7 ff ff       	callq  b10 <e_strdup>
    13c3:	48 89 05 00 00 00 00 	mov    %rax,0x0(%rip)        # 13ca <read_config+0x84a>
    13ca:	e9 11 fc ff ff       	jmpq   fe0 <read_config+0x460>
    13cf:	48 89 ee             	mov    %rbp,%rsi
    13d2:	48 89 df             	mov    %rbx,%rdi
    13d5:	e8 16 f1 ff ff       	callq  4f0 <no_value_required>
    13da:	c7 05 00 00 00 00 00 	movl   $0x0,0x0(%rip)        # 13e4 <read_config+0x864>
    13e1:	00 00 00 
    13e4:	e9 f7 fb ff ff       	jmpq   fe0 <read_config+0x460>
    13e9:	48 89 ee             	mov    %rbp,%rsi
    13ec:	48 89 df             	mov    %rbx,%rdi
    13ef:	e8 4c f1 ff ff       	callq  540 <value_required>
    13f4:	48 89 ef             	mov    %rbp,%rdi
    13f7:	e8 14 f7 ff ff       	callq  b10 <e_strdup>
    13fc:	48 89 05 00 00 00 00 	mov    %rax,0x0(%rip)        # 1403 <read_config+0x883>
    1403:	e9 d8 fb ff ff       	jmpq   fe0 <read_config+0x460>
    1408:	bf 00 00 00 00       	mov    $0x0,%edi
    140d:	e8 00 00 00 00       	callq  1412 <read_config+0x892>
    1412:	66 66 66 66 66 2e 0f 	data32 data32 data32 data32 nopw %cs:0x0(%rax,%rax,1)
    1419:	1f 84 00 00 00 00 00 

0000000000001420 <parse_args>:
    1420:	b8 50 00 00 00       	mov    $0x50,%eax
    1425:	83 ff 01             	cmp    $0x1,%edi
    1428:	41 56                	push   %r14
    142a:	c7 05 00 00 00 00 00 	movl   $0x0,0x0(%rip)        # 1434 <parse_args+0x14>
    1431:	00 00 00 
    1434:	41 55                	push   %r13
    1436:	66 89 05 00 00 00 00 	mov    %ax,0x0(%rip)        # 143d <parse_args+0x1d>
    143d:	41 54                	push   %r12
    143f:	41 89 fc             	mov    %edi,%r12d
    1442:	55                   	push   %rbp
    1443:	48 c7 05 00 00 00 00 	movq   $0x0,0x0(%rip)        # 144e <parse_args+0x2e>
    144a:	00 00 00 00 
    144e:	53                   	push   %rbx
    144f:	48 c7 05 00 00 00 00 	movq   $0x0,0x0(%rip)        # 145a <parse_args+0x3a>
    1456:	00 00 00 00 
    145a:	c7 05 00 00 00 00 00 	movl   $0x0,0x0(%rip)        # 1464 <parse_args+0x44>
    1461:	00 00 00 
    1464:	c7 05 00 00 00 00 00 	movl   $0x0,0x0(%rip)        # 146e <parse_args+0x4e>
    146b:	00 00 00 
    146e:	c7 05 00 00 00 00 00 	movl   $0x0,0x0(%rip)        # 1478 <parse_args+0x58>
    1475:	00 00 00 
    1478:	c7 05 00 00 00 00 00 	movl   $0x0,0x0(%rip)        # 1482 <parse_args+0x62>
    147f:	00 00 00 
    1482:	c7 05 00 00 00 00 00 	movl   $0x0,0x0(%rip)        # 148c <parse_args+0x6c>
    1489:	00 00 00 
    148c:	48 c7 05 00 00 00 00 	movq   $0x0,0x0(%rip)        # 1497 <parse_args+0x77>
    1493:	00 00 00 00 
    1497:	c7 05 00 00 00 00 00 	movl   $0x0,0x0(%rip)        # 14a1 <parse_args+0x81>
    149e:	00 00 00 
    14a1:	48 c7 05 00 00 00 00 	movq   $0x0,0x0(%rip)        # 14ac <parse_args+0x8c>
    14a8:	00 00 00 00 
    14ac:	c7 05 00 00 00 00 00 	movl   $0x0,0x0(%rip)        # 14b6 <parse_args+0x96>
    14b3:	00 00 00 
    14b6:	48 c7 05 00 00 00 00 	movq   $0x0,0x0(%rip)        # 14c1 <parse_args+0xa1>
    14bd:	00 00 00 00 
    14c1:	48 c7 05 00 00 00 00 	movq   $0x0,0x0(%rip)        # 14cc <parse_args+0xac>
    14c8:	00 00 00 00 
    14cc:	48 c7 05 00 00 00 00 	movq   $0x0,0x0(%rip)        # 14d7 <parse_args+0xb7>
    14d3:	00 00 00 00 
    14d7:	48 c7 05 00 00 00 00 	movq   $0x0,0x0(%rip)        # 14e2 <parse_args+0xc2>
    14de:	00 00 00 00 
    14e2:	48 c7 05 00 00 00 00 	movq   $0x0,0x0(%rip)        # 14ed <parse_args+0xcd>
    14e9:	00 00 00 00 
    14ed:	48 c7 05 00 00 00 00 	movq   $0x0,0x0(%rip)        # 14f8 <parse_args+0xd8>
    14f4:	00 00 00 00 
    14f8:	48 c7 05 00 00 00 00 	movq   $0x0,0x0(%rip)        # 1503 <parse_args+0xe3>
    14ff:	00 00 00 00 
    1503:	48 c7 05 00 00 00 00 	movq   $0x0,0x0(%rip)        # 150e <parse_args+0xee>
    150a:	00 00 00 00 
    150e:	c7 05 00 00 00 00 ff 	movl   $0xffffffff,0x0(%rip)        # 1518 <parse_args+0xf8>
    1515:	ff ff ff 
    1518:	0f 8e 95 04 00 00    	jle    19b3 <parse_args+0x593>
    151e:	48 8d 7e 08          	lea    0x8(%rsi),%rdi
    1522:	49 89 f5             	mov    %rsi,%r13
    1525:	48 89 f8             	mov    %rdi,%rax
    1528:	48 c1 e8 03          	shr    $0x3,%rax
    152c:	80 b8 00 80 ff 7f 00 	cmpb   $0x0,0x7fff8000(%rax)
    1533:	0f 85 50 06 00 00    	jne    1b89 <parse_args+0x769>
    1539:	48 8b 5e 08          	mov    0x8(%rsi),%rbx
    153d:	48 89 d8             	mov    %rbx,%rax
    1540:	48 89 da             	mov    %rbx,%rdx
    1543:	48 c1 e8 03          	shr    $0x3,%rax
    1547:	83 e2 07             	and    $0x7,%edx
    154a:	0f b6 80 00 80 ff 7f 	movzbl 0x7fff8000(%rax),%eax
    1551:	38 d0                	cmp    %dl,%al
    1553:	7f 08                	jg     155d <parse_args+0x13d>
    1555:	84 c0                	test   %al,%al
    1557:	0f 85 15 06 00 00    	jne    1b72 <parse_args+0x752>
    155d:	80 3b 2d             	cmpb   $0x2d,(%rbx)
    1560:	0f 85 28 06 00 00    	jne    1b8e <parse_args+0x76e>
    1566:	bd 01 00 00 00       	mov    $0x1,%ebp
    156b:	e9 bf 00 00 00       	jmpq   162f <parse_args+0x20f>
    1570:	44 8d 75 01          	lea    0x1(%rbp),%r14d
    1574:	45 39 f4             	cmp    %r14d,%r12d
    1577:	0f 8f ab 01 00 00    	jg     1728 <parse_args+0x308>
    157d:	be 00 00 00 00       	mov    $0x0,%esi
    1582:	48 89 df             	mov    %rbx,%rdi
    1585:	e8 00 00 00 00       	callq  158a <parse_args+0x16a>
    158a:	85 c0                	test   %eax,%eax
    158c:	0f 84 36 01 00 00    	je     16c8 <parse_args+0x2a8>
    1592:	be 00 00 00 00       	mov    $0x0,%esi
    1597:	48 89 df             	mov    %rbx,%rdi
    159a:	e8 00 00 00 00       	callq  159f <parse_args+0x17f>
    159f:	85 c0                	test   %eax,%eax
    15a1:	0f 85 21 01 00 00    	jne    16c8 <parse_args+0x2a8>
    15a7:	8d 45 01             	lea    0x1(%rbp),%eax
    15aa:	41 39 c4             	cmp    %eax,%r12d
    15ad:	0f 8e 15 01 00 00    	jle    16c8 <parse_args+0x2a8>
    15b3:	48 63 d0             	movslq %eax,%rdx
    15b6:	49 8d 7c d5 00       	lea    0x0(%r13,%rdx,8),%rdi
    15bb:	48 89 fa             	mov    %rdi,%rdx
    15be:	48 c1 ea 03          	shr    $0x3,%rdx
    15c2:	80 ba 00 80 ff 7f 00 	cmpb   $0x0,0x7fff8000(%rdx)
    15c9:	0f 85 ce 05 00 00    	jne    1b9d <parse_args+0x77d>
    15cf:	48 8b 17             	mov    (%rdi),%rdx
    15d2:	89 c5                	mov    %eax,%ebp
    15d4:	48 89 15 00 00 00 00 	mov    %rdx,0x0(%rip)        # 15db <parse_args+0x1bb>
    15db:	83 c5 01             	add    $0x1,%ebp
    15de:	41 39 ec             	cmp    %ebp,%r12d
    15e1:	0f 8e ca 00 00 00    	jle    16b1 <parse_args+0x291>
    15e7:	48 63 c5             	movslq %ebp,%rax
    15ea:	49 8d 7c c5 00       	lea    0x0(%r13,%rax,8),%rdi
    15ef:	48 89 f8             	mov    %rdi,%rax
    15f2:	48 c1 e8 03          	shr    $0x3,%rax
    15f6:	80 b8 00 80 ff 7f 00 	cmpb   $0x0,0x7fff8000(%rax)
    15fd:	0f 85 95 05 00 00    	jne    1b98 <parse_args+0x778>
    1603:	48 8b 1f             	mov    (%rdi),%rbx
    1606:	48 89 d8             	mov    %rbx,%rax
    1609:	48 89 da             	mov    %rbx,%rdx
    160c:	48 c1 e8 03          	shr    $0x3,%rax
    1610:	83 e2 07             	and    $0x7,%edx
    1613:	0f b6 80 00 80 ff 7f 	movzbl 0x7fff8000(%rax),%eax
    161a:	38 d0                	cmp    %dl,%al
    161c:	7f 08                	jg     1626 <parse_args+0x206>
    161e:	84 c0                	test   %al,%al
    1620:	0f 85 44 05 00 00    	jne    1b6a <parse_args+0x74a>
    1626:	80 3b 2d             	cmpb   $0x2d,(%rbx)
    1629:	0f 85 5f 05 00 00    	jne    1b8e <parse_args+0x76e>
    162f:	be 00 00 00 00       	mov    $0x0,%esi
    1634:	48 89 df             	mov    %rbx,%rdi
    1637:	e8 00 00 00 00       	callq  163c <parse_args+0x21c>
    163c:	85 c0                	test   %eax,%eax
    163e:	0f 84 99 03 00 00    	je     19dd <parse_args+0x5bd>
    1644:	be 00 00 00 00       	mov    $0x0,%esi
    1649:	48 89 df             	mov    %rbx,%rdi
    164c:	e8 00 00 00 00       	callq  1651 <parse_args+0x231>
    1651:	85 c0                	test   %eax,%eax
    1653:	0f 84 17 ff ff ff    	je     1570 <parse_args+0x150>
    1659:	be 00 00 00 00       	mov    $0x0,%esi
    165e:	48 89 df             	mov    %rbx,%rdi
    1661:	e8 00 00 00 00       	callq  1666 <parse_args+0x246>
    1666:	85 c0                	test   %eax,%eax
    1668:	0f 85 24 ff ff ff    	jne    1592 <parse_args+0x172>
    166e:	44 8d 75 01          	lea    0x1(%rbp),%r14d
    1672:	45 39 f4             	cmp    %r14d,%r12d
    1675:	7e 51                	jle    16c8 <parse_args+0x2a8>
    1677:	49 63 c6             	movslq %r14d,%rax
    167a:	49 8d 7c c5 00       	lea    0x0(%r13,%rax,8),%rdi
    167f:	48 89 f8             	mov    %rdi,%rax
    1682:	48 c1 e8 03          	shr    $0x3,%rax
    1686:	80 b8 00 80 ff 7f 00 	cmpb   $0x0,0x7fff8000(%rax)
    168d:	0f 85 d2 04 00 00    	jne    1b65 <parse_args+0x745>
    1693:	48 8b 3f             	mov    (%rdi),%rdi
    1696:	44 89 f5             	mov    %r14d,%ebp
    1699:	83 c5 01             	add    $0x1,%ebp
    169c:	e8 00 00 00 00       	callq  16a1 <parse_args+0x281>
    16a1:	41 39 ec             	cmp    %ebp,%r12d
    16a4:	66 89 05 00 00 00 00 	mov    %ax,0x0(%rip)        # 16ab <parse_args+0x28b>
    16ab:	0f 8f 36 ff ff ff    	jg     15e7 <parse_args+0x1c7>
    16b1:	41 39 ec             	cmp    %ebp,%r12d
    16b4:	0f 85 d4 04 00 00    	jne    1b8e <parse_args+0x76e>
    16ba:	5b                   	pop    %rbx
    16bb:	5d                   	pop    %rbp
    16bc:	41 5c                	pop    %r12
    16be:	41 5d                	pop    %r13
    16c0:	41 5e                	pop    %r14
    16c2:	c3                   	retq   
    16c3:	0f 1f 44 00 00       	nopl   0x0(%rax,%rax,1)
    16c8:	be 00 00 00 00       	mov    $0x0,%esi
    16cd:	48 89 df             	mov    %rbx,%rdi
    16d0:	e8 00 00 00 00       	callq  16d5 <parse_args+0x2b5>
    16d5:	85 c0                	test   %eax,%eax
    16d7:	75 1f                	jne    16f8 <parse_args+0x2d8>
    16d9:	c7 05 00 00 00 00 01 	movl   $0x1,0x0(%rip)        # 16e3 <parse_args+0x2c3>
    16e0:	00 00 00 
    16e3:	c7 05 00 00 00 00 01 	movl   $0x1,0x0(%rip)        # 16ed <parse_args+0x2cd>
    16ea:	00 00 00 
    16ed:	e9 e9 fe ff ff       	jmpq   15db <parse_args+0x1bb>
    16f2:	66 0f 1f 44 00 00    	nopw   0x0(%rax,%rax,1)
    16f8:	be 00 00 00 00       	mov    $0x0,%esi
    16fd:	48 89 df             	mov    %rbx,%rdi
    1700:	e8 00 00 00 00       	callq  1705 <parse_args+0x2e5>
    1705:	85 c0                	test   %eax,%eax
    1707:	75 4f                	jne    1758 <parse_args+0x338>
    1709:	c7 05 00 00 00 00 00 	movl   $0x0,0x0(%rip)        # 1713 <parse_args+0x2f3>
    1710:	00 00 00 
    1713:	c7 05 00 00 00 00 00 	movl   $0x0,0x0(%rip)        # 171d <parse_args+0x2fd>
    171a:	00 00 00 
    171d:	e9 b9 fe ff ff       	jmpq   15db <parse_args+0x1bb>
    1722:	66 0f 1f 44 00 00    	nopw   0x0(%rax,%rax,1)
    1728:	49 63 c6             	movslq %r14d,%rax
    172b:	49 8d 7c c5 00       	lea    0x0(%r13,%rax,8),%rdi
    1730:	48 89 f8             	mov    %rdi,%rax
    1733:	48 c1 e8 03          	shr    $0x3,%rax
    1737:	80 b8 00 80 ff 7f 00 	cmpb   $0x0,0x7fff8000(%rax)
    173e:	0f 85 1c 04 00 00    	jne    1b60 <parse_args+0x740>
    1744:	48 8b 3f             	mov    (%rdi),%rdi
    1747:	44 89 f5             	mov    %r14d,%ebp
    174a:	e8 31 f4 ff ff       	callq  b80 <read_config>
    174f:	e9 87 fe ff ff       	jmpq   15db <parse_args+0x1bb>
    1754:	0f 1f 40 00          	nopl   0x0(%rax)
    1758:	be 00 00 00 00       	mov    $0x0,%esi
    175d:	48 89 df             	mov    %rbx,%rdi
    1760:	e8 00 00 00 00       	callq  1765 <parse_args+0x345>
    1765:	85 c0                	test   %eax,%eax
    1767:	75 37                	jne    17a0 <parse_args+0x380>
    1769:	8d 45 01             	lea    0x1(%rbp),%eax
    176c:	41 39 c4             	cmp    %eax,%r12d
    176f:	7e 2f                	jle    17a0 <parse_args+0x380>
    1771:	48 63 d0             	movslq %eax,%rdx
    1774:	49 8d 7c d5 00       	lea    0x0(%r13,%rdx,8),%rdi
    1779:	48 89 fa             	mov    %rdi,%rdx
    177c:	48 c1 ea 03          	shr    $0x3,%rdx
    1780:	80 ba 00 80 ff 7f 00 	cmpb   $0x0,0x7fff8000(%rdx)
    1787:	0f 85 15 04 00 00    	jne    1ba2 <parse_args+0x782>
    178d:	48 8b 17             	mov    (%rdi),%rdx
    1790:	89 c5                	mov    %eax,%ebp
    1792:	48 89 15 00 00 00 00 	mov    %rdx,0x0(%rip)        # 1799 <parse_args+0x379>
    1799:	e9 3d fe ff ff       	jmpq   15db <parse_args+0x1bb>
    179e:	66 90                	xchg   %ax,%ax
    17a0:	be 00 00 00 00       	mov    $0x0,%esi
    17a5:	48 89 df             	mov    %rbx,%rdi
    17a8:	e8 00 00 00 00       	callq  17ad <parse_args+0x38d>
    17ad:	85 c0                	test   %eax,%eax
    17af:	75 0f                	jne    17c0 <parse_args+0x3a0>
    17b1:	c7 05 00 00 00 00 00 	movl   $0x0,0x0(%rip)        # 17bb <parse_args+0x39b>
    17b8:	00 00 00 
    17bb:	e9 1b fe ff ff       	jmpq   15db <parse_args+0x1bb>
    17c0:	be 00 00 00 00       	mov    $0x0,%esi
    17c5:	48 89 df             	mov    %rbx,%rdi
    17c8:	e8 00 00 00 00       	callq  17cd <parse_args+0x3ad>
    17cd:	85 c0                	test   %eax,%eax
    17cf:	74 46                	je     1817 <parse_args+0x3f7>
    17d1:	be 00 00 00 00       	mov    $0x0,%esi
    17d6:	48 89 df             	mov    %rbx,%rdi
    17d9:	e8 00 00 00 00       	callq  17de <parse_args+0x3be>
    17de:	85 c0                	test   %eax,%eax
    17e0:	75 44                	jne    1826 <parse_args+0x406>
    17e2:	8d 45 01             	lea    0x1(%rbp),%eax
    17e5:	41 39 c4             	cmp    %eax,%r12d
    17e8:	7e 3c                	jle    1826 <parse_args+0x406>
    17ea:	48 63 d0             	movslq %eax,%rdx
    17ed:	49 8d 7c d5 00       	lea    0x0(%r13,%rdx,8),%rdi
    17f2:	48 89 fa             	mov    %rdi,%rdx
    17f5:	48 c1 ea 03          	shr    $0x3,%rdx
    17f9:	80 ba 00 80 ff 7f 00 	cmpb   $0x0,0x7fff8000(%rdx)
    1800:	0f 85 41 03 00 00    	jne    1b47 <parse_args+0x727>
    1806:	48 8b 17             	mov    (%rdi),%rdx
    1809:	89 c5                	mov    %eax,%ebp
    180b:	48 89 15 00 00 00 00 	mov    %rdx,0x0(%rip)        # 1812 <parse_args+0x3f2>
    1812:	e9 c4 fd ff ff       	jmpq   15db <parse_args+0x1bb>
    1817:	c7 05 00 00 00 00 01 	movl   $0x1,0x0(%rip)        # 1821 <parse_args+0x401>
    181e:	00 00 00 
    1821:	e9 b5 fd ff ff       	jmpq   15db <parse_args+0x1bb>
    1826:	be 00 00 00 00       	mov    $0x0,%esi
    182b:	48 89 df             	mov    %rbx,%rdi
    182e:	e8 00 00 00 00       	callq  1833 <parse_args+0x413>
    1833:	85 c0                	test   %eax,%eax
    1835:	75 35                	jne    186c <parse_args+0x44c>
    1837:	8d 45 01             	lea    0x1(%rbp),%eax
    183a:	41 39 c4             	cmp    %eax,%r12d
    183d:	7e 2d                	jle    186c <parse_args+0x44c>
    183f:	48 63 d0             	movslq %eax,%rdx
    1842:	49 8d 7c d5 00       	lea    0x0(%r13,%rdx,8),%rdi
    1847:	48 89 fa             	mov    %rdi,%rdx
    184a:	48 c1 ea 03          	shr    $0x3,%rdx
    184e:	80 ba 00 80 ff 7f 00 	cmpb   $0x0,0x7fff8000(%rdx)
    1855:	0f 85 29 03 00 00    	jne    1b84 <parse_args+0x764>
    185b:	48 8b 17             	mov    (%rdi),%rdx
    185e:	89 c5                	mov    %eax,%ebp
    1860:	48 89 15 00 00 00 00 	mov    %rdx,0x0(%rip)        # 1867 <parse_args+0x447>
    1867:	e9 6f fd ff ff       	jmpq   15db <parse_args+0x1bb>
    186c:	be 00 00 00 00       	mov    $0x0,%esi
    1871:	48 89 df             	mov    %rbx,%rdi
    1874:	e8 00 00 00 00       	callq  1879 <parse_args+0x459>
    1879:	85 c0                	test   %eax,%eax
    187b:	74 4a                	je     18c7 <parse_args+0x4a7>
    187d:	be 00 00 00 00       	mov    $0x0,%esi
    1882:	48 89 df             	mov    %rbx,%rdi
    1885:	e8 00 00 00 00       	callq  188a <parse_args+0x46a>
    188a:	85 c0                	test   %eax,%eax
    188c:	0f 85 9b 00 00 00    	jne    192d <parse_args+0x50d>
    1892:	8d 45 01             	lea    0x1(%rbp),%eax
    1895:	41 39 c4             	cmp    %eax,%r12d
    1898:	7e 73                	jle    190d <parse_args+0x4ed>
    189a:	48 63 d0             	movslq %eax,%rdx
    189d:	49 8d 7c d5 00       	lea    0x0(%r13,%rdx,8),%rdi
    18a2:	48 89 fa             	mov    %rdi,%rdx
    18a5:	48 c1 ea 03          	shr    $0x3,%rdx
    18a9:	80 ba 00 80 ff 7f 00 	cmpb   $0x0,0x7fff8000(%rdx)
    18b0:	0f 85 c4 02 00 00    	jne    1b7a <parse_args+0x75a>
    18b6:	48 8b 17             	mov    (%rdi),%rdx
    18b9:	89 c5                	mov    %eax,%ebp
    18bb:	48 89 15 00 00 00 00 	mov    %rdx,0x0(%rip)        # 18c2 <parse_args+0x4a2>
    18c2:	e9 14 fd ff ff       	jmpq   15db <parse_args+0x1bb>
    18c7:	8d 45 01             	lea    0x1(%rbp),%eax
    18ca:	41 39 c4             	cmp    %eax,%r12d
    18cd:	7e 2d                	jle    18fc <parse_args+0x4dc>
    18cf:	48 63 d0             	movslq %eax,%rdx
    18d2:	49 8d 7c d5 00       	lea    0x0(%r13,%rdx,8),%rdi
    18d7:	48 89 fa             	mov    %rdi,%rdx
    18da:	48 c1 ea 03          	shr    $0x3,%rdx
    18de:	80 ba 00 80 ff 7f 00 	cmpb   $0x0,0x7fff8000(%rdx)
    18e5:	0f 85 94 02 00 00    	jne    1b7f <parse_args+0x75f>
    18eb:	48 8b 17             	mov    (%rdi),%rdx
    18ee:	89 c5                	mov    %eax,%ebp
    18f0:	48 89 15 00 00 00 00 	mov    %rdx,0x0(%rip)        # 18f7 <parse_args+0x4d7>
    18f7:	e9 df fc ff ff       	jmpq   15db <parse_args+0x1bb>
    18fc:	be 00 00 00 00       	mov    $0x0,%esi
    1901:	48 89 df             	mov    %rbx,%rdi
    1904:	e8 00 00 00 00       	callq  1909 <parse_args+0x4e9>
    1909:	85 c0                	test   %eax,%eax
    190b:	75 20                	jne    192d <parse_args+0x50d>
    190d:	be 00 00 00 00       	mov    $0x0,%esi
    1912:	48 89 df             	mov    %rbx,%rdi
    1915:	e8 00 00 00 00       	callq  191a <parse_args+0x4fa>
    191a:	85 c0                	test   %eax,%eax
    191c:	75 55                	jne    1973 <parse_args+0x553>
    191e:	c7 05 00 00 00 00 01 	movl   $0x1,0x0(%rip)        # 1928 <parse_args+0x508>
    1925:	00 00 00 
    1928:	e9 ae fc ff ff       	jmpq   15db <parse_args+0x1bb>
    192d:	be 00 00 00 00       	mov    $0x0,%esi
    1932:	48 89 df             	mov    %rbx,%rdi
    1935:	e8 00 00 00 00       	callq  193a <parse_args+0x51a>
    193a:	85 c0                	test   %eax,%eax
    193c:	75 cf                	jne    190d <parse_args+0x4ed>
    193e:	8d 45 01             	lea    0x1(%rbp),%eax
    1941:	41 39 c4             	cmp    %eax,%r12d
    1944:	7e c7                	jle    190d <parse_args+0x4ed>
    1946:	48 63 d0             	movslq %eax,%rdx
    1949:	49 8d 7c d5 00       	lea    0x0(%r13,%rdx,8),%rdi
    194e:	48 89 fa             	mov    %rdi,%rdx
    1951:	48 c1 ea 03          	shr    $0x3,%rdx
    1955:	80 ba 00 80 ff 7f 00 	cmpb   $0x0,0x7fff8000(%rdx)
    195c:	0f 85 e0 01 00 00    	jne    1b42 <parse_args+0x722>
    1962:	48 8b 17             	mov    (%rdi),%rdx
    1965:	89 c5                	mov    %eax,%ebp
    1967:	48 89 15 00 00 00 00 	mov    %rdx,0x0(%rip)        # 196e <parse_args+0x54e>
    196e:	e9 68 fc ff ff       	jmpq   15db <parse_args+0x1bb>
    1973:	be 00 00 00 00       	mov    $0x0,%esi
    1978:	48 89 df             	mov    %rbx,%rdi
    197b:	e8 00 00 00 00       	callq  1980 <parse_args+0x560>
    1980:	85 c0                	test   %eax,%eax
    1982:	74 20                	je     19a4 <parse_args+0x584>
    1984:	be 00 00 00 00       	mov    $0x0,%esi
    1989:	48 89 df             	mov    %rbx,%rdi
    198c:	e8 00 00 00 00       	callq  1991 <parse_args+0x571>
    1991:	85 c0                	test   %eax,%eax
    1993:	75 28                	jne    19bd <parse_args+0x59d>
    1995:	c7 05 00 00 00 00 01 	movl   $0x1,0x0(%rip)        # 199f <parse_args+0x57f>
    199c:	00 00 00 
    199f:	e9 37 fc ff ff       	jmpq   15db <parse_args+0x1bb>
    19a4:	c7 05 00 00 00 00 00 	movl   $0x0,0x0(%rip)        # 19ae <parse_args+0x58e>
    19ab:	00 00 00 
    19ae:	e9 28 fc ff ff       	jmpq   15db <parse_args+0x1bb>
    19b3:	bd 01 00 00 00       	mov    $0x1,%ebp
    19b8:	e9 f4 fc ff ff       	jmpq   16b1 <parse_args+0x291>
    19bd:	be 00 00 00 00       	mov    $0x0,%esi
    19c2:	48 89 df             	mov    %rbx,%rdi
    19c5:	e8 00 00 00 00       	callq  19ca <parse_args+0x5aa>
    19ca:	85 c0                	test   %eax,%eax
    19cc:	75 25                	jne    19f3 <parse_args+0x5d3>
    19ce:	c7 05 00 00 00 00 00 	movl   $0x0,0x0(%rip)        # 19d8 <parse_args+0x5b8>
    19d5:	00 00 00 
    19d8:	e9 fe fb ff ff       	jmpq   15db <parse_args+0x1bb>
    19dd:	bf 00 00 00 00       	mov    $0x0,%edi
    19e2:	e8 00 00 00 00       	callq  19e7 <parse_args+0x5c7>
    19e7:	e8 00 00 00 00       	callq  19ec <parse_args+0x5cc>
    19ec:	31 ff                	xor    %edi,%edi
    19ee:	e8 00 00 00 00       	callq  19f3 <parse_args+0x5d3>
    19f3:	be 00 00 00 00       	mov    $0x0,%esi
    19f8:	48 89 df             	mov    %rbx,%rdi
    19fb:	e8 00 00 00 00       	callq  1a00 <parse_args+0x5e0>
    1a00:	85 c0                	test   %eax,%eax
    1a02:	75 35                	jne    1a39 <parse_args+0x619>
    1a04:	8d 45 01             	lea    0x1(%rbp),%eax
    1a07:	41 39 c4             	cmp    %eax,%r12d
    1a0a:	7e 2d                	jle    1a39 <parse_args+0x619>
    1a0c:	48 63 d0             	movslq %eax,%rdx
    1a0f:	49 8d 7c d5 00       	lea    0x0(%r13,%rdx,8),%rdi
    1a14:	48 89 fa             	mov    %rdi,%rdx
    1a17:	48 c1 ea 03          	shr    $0x3,%rdx
    1a1b:	80 ba 00 80 ff 7f 00 	cmpb   $0x0,0x7fff8000(%rdx)
    1a22:	0f 85 24 01 00 00    	jne    1b4c <parse_args+0x72c>
    1a28:	48 8b 17             	mov    (%rdi),%rdx
    1a2b:	89 c5                	mov    %eax,%ebp
    1a2d:	48 89 15 00 00 00 00 	mov    %rdx,0x0(%rip)        # 1a34 <parse_args+0x614>
    1a34:	e9 a2 fb ff ff       	jmpq   15db <parse_args+0x1bb>
    1a39:	be 00 00 00 00       	mov    $0x0,%esi
    1a3e:	48 89 df             	mov    %rbx,%rdi
    1a41:	e8 00 00 00 00       	callq  1a46 <parse_args+0x626>
    1a46:	85 c0                	test   %eax,%eax
    1a48:	75 35                	jne    1a7f <parse_args+0x65f>
    1a4a:	8d 45 01             	lea    0x1(%rbp),%eax
    1a4d:	41 39 c4             	cmp    %eax,%r12d
    1a50:	7e 77                	jle    1ac9 <parse_args+0x6a9>
    1a52:	48 63 d0             	movslq %eax,%rdx
    1a55:	49 8d 7c d5 00       	lea    0x0(%r13,%rdx,8),%rdi
    1a5a:	48 89 fa             	mov    %rdi,%rdx
    1a5d:	48 c1 ea 03          	shr    $0x3,%rdx
    1a61:	80 ba 00 80 ff 7f 00 	cmpb   $0x0,0x7fff8000(%rdx)
    1a68:	0f 85 e8 00 00 00    	jne    1b56 <parse_args+0x736>
    1a6e:	48 8b 17             	mov    (%rdi),%rdx
    1a71:	89 c5                	mov    %eax,%ebp
    1a73:	48 89 15 00 00 00 00 	mov    %rdx,0x0(%rip)        # 1a7a <parse_args+0x65a>
    1a7a:	e9 5c fb ff ff       	jmpq   15db <parse_args+0x1bb>
    1a7f:	be 00 00 00 00       	mov    $0x0,%esi
    1a84:	48 89 df             	mov    %rbx,%rdi
    1a87:	e8 00 00 00 00       	callq  1a8c <parse_args+0x66c>
    1a8c:	85 c0                	test   %eax,%eax
    1a8e:	75 4a                	jne    1ada <parse_args+0x6ba>
    1a90:	8d 45 01             	lea    0x1(%rbp),%eax
    1a93:	41 39 c4             	cmp    %eax,%r12d
    1a96:	0f 8e 86 00 00 00    	jle    1b22 <parse_args+0x702>
    1a9c:	48 63 d0             	movslq %eax,%rdx
    1a9f:	49 8d 7c d5 00       	lea    0x0(%r13,%rdx,8),%rdi
    1aa4:	48 89 fa             	mov    %rdi,%rdx
    1aa7:	48 c1 ea 03          	shr    $0x3,%rdx
    1aab:	80 ba 00 80 ff 7f 00 	cmpb   $0x0,0x7fff8000(%rdx)
    1ab2:	0f 85 a3 00 00 00    	jne    1b5b <parse_args+0x73b>
    1ab8:	48 8b 17             	mov    (%rdi),%rdx
    1abb:	89 c5                	mov    %eax,%ebp
    1abd:	48 89 15 00 00 00 00 	mov    %rdx,0x0(%rip)        # 1ac4 <parse_args+0x6a4>
    1ac4:	e9 12 fb ff ff       	jmpq   15db <parse_args+0x1bb>
    1ac9:	be 00 00 00 00       	mov    $0x0,%esi
    1ace:	48 89 df             	mov    %rbx,%rdi
    1ad1:	e8 00 00 00 00       	callq  1ad6 <parse_args+0x6b6>
    1ad6:	85 c0                	test   %eax,%eax
    1ad8:	74 48                	je     1b22 <parse_args+0x702>
    1ada:	be 00 00 00 00       	mov    $0x0,%esi
    1adf:	48 89 df             	mov    %rbx,%rdi
    1ae2:	e8 00 00 00 00       	callq  1ae7 <parse_args+0x6c7>
    1ae7:	85 c0                	test   %eax,%eax
    1ae9:	75 37                	jne    1b22 <parse_args+0x702>
    1aeb:	44 8d 75 01          	lea    0x1(%rbp),%r14d
    1aef:	45 39 f4             	cmp    %r14d,%r12d
    1af2:	7e 2e                	jle    1b22 <parse_args+0x702>
    1af4:	49 63 c6             	movslq %r14d,%rax
    1af7:	49 8d 7c c5 00       	lea    0x0(%r13,%rax,8),%rdi
    1afc:	48 89 f8             	mov    %rdi,%rax
    1aff:	48 c1 e8 03          	shr    $0x3,%rax
    1b03:	80 b8 00 80 ff 7f 00 	cmpb   $0x0,0x7fff8000(%rax)
    1b0a:	75 45                	jne    1b51 <parse_args+0x731>
    1b0c:	48 8b 3f             	mov    (%rdi),%rdi
    1b0f:	44 89 f5             	mov    %r14d,%ebp
    1b12:	e8 00 00 00 00       	callq  1b17 <parse_args+0x6f7>
    1b17:	89 05 00 00 00 00    	mov    %eax,0x0(%rip)        # 1b1d <parse_args+0x6fd>
    1b1d:	e9 b9 fa ff ff       	jmpq   15db <parse_args+0x1bb>
    1b22:	be 00 00 00 00       	mov    $0x0,%esi
    1b27:	48 89 df             	mov    %rbx,%rdi
    1b2a:	e8 00 00 00 00       	callq  1b2f <parse_args+0x70f>
    1b2f:	85 c0                	test   %eax,%eax
    1b31:	75 5b                	jne    1b8e <parse_args+0x76e>
    1b33:	c7 05 00 00 00 00 01 	movl   $0x1,0x0(%rip)        # 1b3d <parse_args+0x71d>
    1b3a:	00 00 00 
    1b3d:	e9 99 fa ff ff       	jmpq   15db <parse_args+0x1bb>
    1b42:	e8 00 00 00 00       	callq  1b47 <parse_args+0x727>
    1b47:	e8 00 00 00 00       	callq  1b4c <parse_args+0x72c>
    1b4c:	e8 00 00 00 00       	callq  1b51 <parse_args+0x731>
    1b51:	e8 00 00 00 00       	callq  1b56 <parse_args+0x736>
    1b56:	e8 00 00 00 00       	callq  1b5b <parse_args+0x73b>
    1b5b:	e8 00 00 00 00       	callq  1b60 <parse_args+0x740>
    1b60:	e8 00 00 00 00       	callq  1b65 <parse_args+0x745>
    1b65:	e8 00 00 00 00       	callq  1b6a <parse_args+0x74a>
    1b6a:	48 89 df             	mov    %rbx,%rdi
    1b6d:	e8 00 00 00 00       	callq  1b72 <parse_args+0x752>
    1b72:	48 89 df             	mov    %rbx,%rdi
    1b75:	e8 00 00 00 00       	callq  1b7a <parse_args+0x75a>
    1b7a:	e8 00 00 00 00       	callq  1b7f <parse_args+0x75f>
    1b7f:	e8 00 00 00 00       	callq  1b84 <parse_args+0x764>
    1b84:	e8 00 00 00 00       	callq  1b89 <parse_args+0x769>
    1b89:	e8 00 00 00 00       	callq  1b8e <parse_args+0x76e>
    1b8e:	e8 00 00 00 00       	callq  1b93 <parse_args+0x773>
    1b93:	e8 00 00 00 00       	callq  1b98 <parse_args+0x778>
    1b98:	e8 00 00 00 00       	callq  1b9d <parse_args+0x77d>
    1b9d:	e8 00 00 00 00       	callq  1ba2 <parse_args+0x782>
    1ba2:	e8 00 00 00 00       	callq  1ba7 <parse_args+0x787>
    1ba7:	66 0f 1f 84 00 00 00 	nopw   0x0(%rax,%rax,1)
    1bae:	00 00 

0000000000001bb0 <read_throttlefile>:
    1bb0:	41 57                	push   %r15
    1bb2:	41 56                	push   %r14
    1bb4:	41 55                	push   %r13
    1bb6:	41 54                	push   %r12
    1bb8:	55                   	push   %rbp
    1bb9:	53                   	push   %rbx
    1bba:	48 81 ec 98 28 00 00 	sub    $0x2898,%rsp
    1bc1:	8b 15 00 00 00 00    	mov    0x0(%rip),%edx        # 1bc7 <read_throttlefile+0x17>
    1bc7:	48 8d 44 24 30       	lea    0x30(%rsp),%rax
    1bcc:	48 89 7c 24 10       	mov    %rdi,0x10(%rsp)
    1bd1:	85 d2                	test   %edx,%edx
    1bd3:	48 89 44 24 18       	mov    %rax,0x18(%rsp)
    1bd8:	0f 85 0a 05 00 00    	jne    20e8 <read_throttlefile+0x538>
    1bde:	48 8b 44 24 18       	mov    0x18(%rsp),%rax
    1be3:	be 00 00 00 00       	mov    $0x0,%esi
    1be8:	48 c7 00 b3 8a b5 41 	movq   $0x41b58ab3,(%rax)
    1bef:	48 c7 40 08 00 00 00 	movq   $0x0,0x8(%rax)
    1bf6:	00 
    1bf7:	4c 8d b0 60 28 00 00 	lea    0x2860(%rax),%r14
    1bfe:	48 c7 40 10 00 00 00 	movq   $0x0,0x10(%rax)
    1c05:	00 
    1c06:	48 8b 7c 24 10       	mov    0x10(%rsp),%rdi
    1c0b:	48 c1 e8 03          	shr    $0x3,%rax
    1c0f:	48 89 44 24 20       	mov    %rax,0x20(%rsp)
    1c14:	c7 80 00 80 ff 7f f1 	movl   $0xf1f1f1f1,0x7fff8000(%rax)
    1c1b:	f1 f1 f1 
    1c1e:	c7 80 04 80 ff 7f 00 	movl   $0xf4f4f400,0x7fff8004(%rax)
    1c25:	f4 f4 f4 
    1c28:	c7 80 08 80 ff 7f f2 	movl   $0xf2f2f2f2,0x7fff8008(%rax)
    1c2f:	f2 f2 f2 
    1c32:	c7 80 0c 80 ff 7f 00 	movl   $0xf4f4f400,0x7fff800c(%rax)
    1c39:	f4 f4 f4 
    1c3c:	c7 80 10 80 ff 7f f2 	movl   $0xf2f2f2f2,0x7fff8010(%rax)
    1c43:	f2 f2 f2 
    1c46:	c7 80 14 80 ff 7f 00 	movl   $0xf4f40000,0x7fff8014(%rax)
    1c4d:	00 f4 f4 
    1c50:	c7 80 18 80 ff 7f f2 	movl   $0xf2f2f2f2,0x7fff8018(%rax)
    1c57:	f2 f2 f2 
    1c5a:	c7 80 8c 82 ff 7f 00 	movl   $0xf4f4f400,0x7fff828c(%rax)
    1c61:	f4 f4 f4 
    1c64:	c7 80 90 82 ff 7f f2 	movl   $0xf2f2f2f2,0x7fff8290(%rax)
    1c6b:	f2 f2 f2 
    1c6e:	c7 80 04 85 ff 7f 00 	movl   $0xf4f4f400,0x7fff8504(%rax)
    1c75:	f4 f4 f4 
    1c78:	c7 80 08 85 ff 7f f3 	movl   $0xf3f3f3f3,0x7fff8508(%rax)
    1c7f:	f3 f3 f3 
    1c82:	e8 00 00 00 00       	callq  1c87 <read_throttlefile+0xd7>
    1c87:	48 85 c0             	test   %rax,%rax
    1c8a:	48 89 c5             	mov    %rax,%rbp
    1c8d:	0f 84 24 05 00 00    	je     21b7 <read_throttlefile+0x607>
    1c93:	48 8b 5c 24 18       	mov    0x18(%rsp),%rbx
    1c98:	31 f6                	xor    %esi,%esi
    1c9a:	48 8d bb a0 00 00 00 	lea    0xa0(%rbx),%rdi
    1ca1:	4c 8d bb e0 00 00 00 	lea    0xe0(%rbx),%r15
    1ca8:	4c 8d 63 20          	lea    0x20(%rbx),%r12
    1cac:	4c 8d 6b 60          	lea    0x60(%rbx),%r13
    1cb0:	e8 00 00 00 00       	callq  1cb5 <read_throttlefile+0x105>
    1cb5:	48 89 d8             	mov    %rbx,%rax
    1cb8:	48 8d 9b a0 14 00 00 	lea    0x14a0(%rbx),%rbx
    1cbf:	48 05 a1 14 00 00    	add    $0x14a1,%rax
    1cc5:	48 89 44 24 28       	mov    %rax,0x28(%rsp)
    1cca:	66 0f 1f 44 00 00    	nopw   0x0(%rax,%rax,1)
    1cd0:	48 89 ea             	mov    %rbp,%rdx
    1cd3:	be 88 13 00 00       	mov    $0x1388,%esi
    1cd8:	4c 89 ff             	mov    %r15,%rdi
    1cdb:	e8 00 00 00 00       	callq  1ce0 <read_throttlefile+0x130>
    1ce0:	48 85 c0             	test   %rax,%rax
    1ce3:	0f 84 72 03 00 00    	je     205b <read_throttlefile+0x4ab>
    1ce9:	be 23 00 00 00       	mov    $0x23,%esi
    1cee:	4c 89 ff             	mov    %r15,%rdi
    1cf1:	e8 00 00 00 00       	callq  1cf6 <read_throttlefile+0x146>
    1cf6:	48 85 c0             	test   %rax,%rax
    1cf9:	74 23                	je     1d1e <read_throttlefile+0x16e>
    1cfb:	48 89 c2             	mov    %rax,%rdx
    1cfe:	48 89 c1             	mov    %rax,%rcx
    1d01:	48 c1 ea 03          	shr    $0x3,%rdx
    1d05:	83 e1 07             	and    $0x7,%ecx
    1d08:	0f b6 92 00 80 ff 7f 	movzbl 0x7fff8000(%rdx),%edx
    1d0f:	38 ca                	cmp    %cl,%dl
    1d11:	7f 08                	jg     1d1b <read_throttlefile+0x16b>
    1d13:	84 d2                	test   %dl,%dl
    1d15:	0f 85 94 04 00 00    	jne    21af <read_throttlefile+0x5ff>
    1d1b:	c6 00 00             	movb   $0x0,(%rax)
    1d1e:	4c 89 ff             	mov    %r15,%rdi
    1d21:	e8 00 00 00 00       	callq  1d26 <read_throttlefile+0x176>
    1d26:	83 f8 00             	cmp    $0x0,%eax
    1d29:	0f 8e 9c 03 00 00    	jle    20cb <read_throttlefile+0x51b>
    1d2f:	83 e8 01             	sub    $0x1,%eax
    1d32:	48 63 d0             	movslq %eax,%rdx
    1d35:	49 8d 3c 17          	lea    (%r15,%rdx,1),%rdi
    1d39:	48 89 f9             	mov    %rdi,%rcx
    1d3c:	48 89 fe             	mov    %rdi,%rsi
    1d3f:	48 c1 e9 03          	shr    $0x3,%rcx
    1d43:	83 e6 07             	and    $0x7,%esi
    1d46:	0f b6 89 00 80 ff 7f 	movzbl 0x7fff8000(%rcx),%ecx
    1d4d:	40 38 f1             	cmp    %sil,%cl
    1d50:	7f 08                	jg     1d5a <read_throttlefile+0x1aa>
    1d52:	84 c9                	test   %cl,%cl
    1d54:	0f 85 46 04 00 00    	jne    21a0 <read_throttlefile+0x5f0>
    1d5a:	41 0f b6 8c 16 80 d8 	movzbl -0x2780(%r14,%rdx,1),%ecx
    1d61:	ff ff 
    1d63:	80 f9 20             	cmp    $0x20,%cl
    1d66:	0f 86 d4 01 00 00    	jbe    1f40 <read_throttlefile+0x390>
    1d6c:	0f 1f 40 00          	nopl   0x0(%rax)
    1d70:	31 c0                	xor    %eax,%eax
    1d72:	4d 89 e0             	mov    %r12,%r8
    1d75:	4c 89 e9             	mov    %r13,%rcx
    1d78:	48 89 da             	mov    %rbx,%rdx
    1d7b:	be 00 00 00 00       	mov    $0x0,%esi
    1d80:	4c 89 ff             	mov    %r15,%rdi
    1d83:	e8 00 00 00 00       	callq  1d88 <read_throttlefile+0x1d8>
    1d88:	83 f8 03             	cmp    $0x3,%eax
    1d8b:	74 33                	je     1dc0 <read_throttlefile+0x210>
    1d8d:	31 c0                	xor    %eax,%eax
    1d8f:	4c 89 e1             	mov    %r12,%rcx
    1d92:	48 89 da             	mov    %rbx,%rdx
    1d95:	be 00 00 00 00       	mov    $0x0,%esi
    1d9a:	4c 89 ff             	mov    %r15,%rdi
    1d9d:	e8 00 00 00 00       	callq  1da2 <read_throttlefile+0x1f2>
    1da2:	83 f8 02             	cmp    $0x2,%eax
    1da5:	0f 85 4e 02 00 00    	jne    1ff9 <read_throttlefile+0x449>
    1dab:	49 c7 86 00 d8 ff ff 	movq   $0x0,-0x2800(%r14)
    1db2:	00 00 00 00 
    1db6:	66 2e 0f 1f 84 00 00 	nopw   %cs:0x0(%rax,%rax,1)
    1dbd:	00 00 00 
    1dc0:	41 80 be 40 ec ff ff 	cmpb   $0x2f,-0x13c0(%r14)
    1dc7:	2f 
    1dc8:	75 13                	jne    1ddd <read_throttlefile+0x22d>
    1dca:	e9 07 03 00 00       	jmpq   20d6 <read_throttlefile+0x526>
    1dcf:	90                   	nop
    1dd0:	48 8d 70 02          	lea    0x2(%rax),%rsi
    1dd4:	48 8d 78 01          	lea    0x1(%rax),%rdi
    1dd8:	e8 00 00 00 00       	callq  1ddd <read_throttlefile+0x22d>
    1ddd:	be 00 00 00 00       	mov    $0x0,%esi
    1de2:	48 89 df             	mov    %rbx,%rdi
    1de5:	e8 00 00 00 00       	callq  1dea <read_throttlefile+0x23a>
    1dea:	48 85 c0             	test   %rax,%rax
    1ded:	75 e1                	jne    1dd0 <read_throttlefile+0x220>
    1def:	48 63 0d 00 00 00 00 	movslq 0x0(%rip),%rcx        # 1df6 <read_throttlefile+0x246>
    1df6:	8b 05 00 00 00 00    	mov    0x0(%rip),%eax        # 1dfc <read_throttlefile+0x24c>
    1dfc:	39 c1                	cmp    %eax,%ecx
    1dfe:	0f 8c 4b 02 00 00    	jl     204f <read_throttlefile+0x49f>
    1e04:	85 c0                	test   %eax,%eax
    1e06:	0f 85 c3 01 00 00    	jne    1fcf <read_throttlefile+0x41f>
    1e0c:	bf c0 12 00 00       	mov    $0x12c0,%edi
    1e11:	c7 05 00 00 00 00 64 	movl   $0x64,0x0(%rip)        # 1e1b <read_throttlefile+0x26b>
    1e18:	00 00 00 
    1e1b:	e8 00 00 00 00       	callq  1e20 <read_throttlefile+0x270>
    1e20:	48 89 05 00 00 00 00 	mov    %rax,0x0(%rip)        # 1e27 <read_throttlefile+0x277>
    1e27:	48 85 c0             	test   %rax,%rax
    1e2a:	0f 84 24 03 00 00    	je     2154 <read_throttlefile+0x5a4>
    1e30:	48 63 0d 00 00 00 00 	movslq 0x0(%rip),%rcx        # 1e37 <read_throttlefile+0x287>
    1e37:	48 8d 14 49          	lea    (%rcx,%rcx,2),%rdx
    1e3b:	48 89 df             	mov    %rbx,%rdi
    1e3e:	48 c1 e2 04          	shl    $0x4,%rdx
    1e42:	48 01 c2             	add    %rax,%rdx
    1e45:	48 89 54 24 08       	mov    %rdx,0x8(%rsp)
    1e4a:	e8 c1 ec ff ff       	callq  b10 <e_strdup>
    1e4f:	48 8b 54 24 08       	mov    0x8(%rsp),%rdx
    1e54:	48 89 d1             	mov    %rdx,%rcx
    1e57:	48 c1 e9 03          	shr    $0x3,%rcx
    1e5b:	80 b9 00 80 ff 7f 00 	cmpb   $0x0,0x7fff8000(%rcx)
    1e62:	0f 85 e4 02 00 00    	jne    214c <read_throttlefile+0x59c>
    1e68:	48 89 02             	mov    %rax,(%rdx)
    1e6b:	48 63 05 00 00 00 00 	movslq 0x0(%rip),%rax        # 1e72 <read_throttlefile+0x2c2>
    1e72:	49 8b 8e c0 d7 ff ff 	mov    -0x2840(%r14),%rcx
    1e79:	48 89 c2             	mov    %rax,%rdx
    1e7c:	48 8d 04 40          	lea    (%rax,%rax,2),%rax
    1e80:	48 c1 e0 04          	shl    $0x4,%rax
    1e84:	48 03 05 00 00 00 00 	add    0x0(%rip),%rax        # 1e8b <read_throttlefile+0x2db>
    1e8b:	48 8d 78 08          	lea    0x8(%rax),%rdi
    1e8f:	48 89 fe             	mov    %rdi,%rsi
    1e92:	48 c1 ee 03          	shr    $0x3,%rsi
    1e96:	80 be 00 80 ff 7f 00 	cmpb   $0x0,0x7fff8000(%rsi)
    1e9d:	0f 85 a4 02 00 00    	jne    2147 <read_throttlefile+0x597>
    1ea3:	48 8d 78 10          	lea    0x10(%rax),%rdi
    1ea7:	48 89 48 08          	mov    %rcx,0x8(%rax)
    1eab:	49 8b 8e 00 d8 ff ff 	mov    -0x2800(%r14),%rcx
    1eb2:	48 89 fe             	mov    %rdi,%rsi
    1eb5:	48 c1 ee 03          	shr    $0x3,%rsi
    1eb9:	80 be 00 80 ff 7f 00 	cmpb   $0x0,0x7fff8000(%rsi)
    1ec0:	0f 85 7c 02 00 00    	jne    2142 <read_throttlefile+0x592>
    1ec6:	48 8d 78 18          	lea    0x18(%rax),%rdi
    1eca:	48 89 48 10          	mov    %rcx,0x10(%rax)
    1ece:	48 89 f9             	mov    %rdi,%rcx
    1ed1:	48 c1 e9 03          	shr    $0x3,%rcx
    1ed5:	80 b9 00 80 ff 7f 00 	cmpb   $0x0,0x7fff8000(%rcx)
    1edc:	0f 85 5b 02 00 00    	jne    213d <read_throttlefile+0x58d>
    1ee2:	48 8d 78 20          	lea    0x20(%rax),%rdi
    1ee6:	48 c7 40 18 00 00 00 	movq   $0x0,0x18(%rax)
    1eed:	00 
    1eee:	48 89 f9             	mov    %rdi,%rcx
    1ef1:	48 c1 e9 03          	shr    $0x3,%rcx
    1ef5:	80 b9 00 80 ff 7f 00 	cmpb   $0x0,0x7fff8000(%rcx)
    1efc:	0f 85 36 02 00 00    	jne    2138 <read_throttlefile+0x588>
    1f02:	48 8d 78 28          	lea    0x28(%rax),%rdi
    1f06:	48 c7 40 20 00 00 00 	movq   $0x0,0x20(%rax)
    1f0d:	00 
    1f0e:	48 89 f9             	mov    %rdi,%rcx
    1f11:	48 c1 e9 03          	shr    $0x3,%rcx
    1f15:	0f b6 89 00 80 ff 7f 	movzbl 0x7fff8000(%rcx),%ecx
    1f1c:	84 c9                	test   %cl,%cl
    1f1e:	74 09                	je     1f29 <read_throttlefile+0x379>
    1f20:	80 f9 03             	cmp    $0x3,%cl
    1f23:	0f 8e 0a 02 00 00    	jle    2133 <read_throttlefile+0x583>
    1f29:	c7 40 28 00 00 00 00 	movl   $0x0,0x28(%rax)
    1f30:	8d 42 01             	lea    0x1(%rdx),%eax
    1f33:	89 05 00 00 00 00    	mov    %eax,0x0(%rip)        # 1f39 <read_throttlefile+0x389>
    1f39:	e9 92 fd ff ff       	jmpq   1cd0 <read_throttlefile+0x120>
    1f3e:	66 90                	xchg   %ax,%ax
    1f40:	49 b8 00 26 00 00 01 	movabs $0x100002600,%r8
    1f47:	00 00 00 
    1f4a:	66 0f 1f 44 00 00    	nopw   0x0(%rax,%rax,1)
    1f50:	49 0f a3 c8          	bt     %rcx,%r8
    1f54:	0f 83 16 fe ff ff    	jae    1d70 <read_throttlefile+0x1c0>
    1f5a:	49 8d 3c 17          	lea    (%r15,%rdx,1),%rdi
    1f5e:	48 89 f9             	mov    %rdi,%rcx
    1f61:	48 89 fe             	mov    %rdi,%rsi
    1f64:	48 c1 e9 03          	shr    $0x3,%rcx
    1f68:	83 e6 07             	and    $0x7,%esi
    1f6b:	0f b6 89 00 80 ff 7f 	movzbl 0x7fff8000(%rcx),%ecx
    1f72:	40 38 f1             	cmp    %sil,%cl
    1f75:	7f 08                	jg     1f7f <read_throttlefile+0x3cf>
    1f77:	84 c9                	test   %cl,%cl
    1f79:	0f 85 af 01 00 00    	jne    212e <read_throttlefile+0x57e>
    1f7f:	85 c0                	test   %eax,%eax
    1f81:	41 c6 84 16 80 d8 ff 	movb   $0x0,-0x2780(%r14,%rdx,1)
    1f88:	ff 00 
    1f8a:	0f 84 40 fd ff ff    	je     1cd0 <read_throttlefile+0x120>
    1f90:	83 e8 01             	sub    $0x1,%eax
    1f93:	48 63 d0             	movslq %eax,%rdx
    1f96:	49 8d 3c 17          	lea    (%r15,%rdx,1),%rdi
    1f9a:	48 89 f9             	mov    %rdi,%rcx
    1f9d:	48 89 fe             	mov    %rdi,%rsi
    1fa0:	48 c1 e9 03          	shr    $0x3,%rcx
    1fa4:	83 e6 07             	and    $0x7,%esi
    1fa7:	0f b6 89 00 80 ff 7f 	movzbl 0x7fff8000(%rcx),%ecx
    1fae:	40 38 f1             	cmp    %sil,%cl
    1fb1:	7f 08                	jg     1fbb <read_throttlefile+0x40b>
    1fb3:	84 c9                	test   %cl,%cl
    1fb5:	0f 85 6e 01 00 00    	jne    2129 <read_throttlefile+0x579>
    1fbb:	41 0f b6 8c 16 80 d8 	movzbl -0x2780(%r14,%rdx,1),%ecx
    1fc2:	ff ff 
    1fc4:	80 f9 20             	cmp    $0x20,%cl
    1fc7:	0f 87 a3 fd ff ff    	ja     1d70 <read_throttlefile+0x1c0>
    1fcd:	eb 81                	jmp    1f50 <read_throttlefile+0x3a0>
    1fcf:	01 c0                	add    %eax,%eax
    1fd1:	48 8b 3d 00 00 00 00 	mov    0x0(%rip),%rdi        # 1fd8 <read_throttlefile+0x428>
    1fd8:	89 05 00 00 00 00    	mov    %eax,0x0(%rip)        # 1fde <read_throttlefile+0x42e>
    1fde:	48 98                	cltq   
    1fe0:	48 8d 34 40          	lea    (%rax,%rax,2),%rsi
    1fe4:	48 c1 e6 04          	shl    $0x4,%rsi
    1fe8:	e8 00 00 00 00       	callq  1fed <read_throttlefile+0x43d>
    1fed:	48 89 05 00 00 00 00 	mov    %rax,0x0(%rip)        # 1ff4 <read_throttlefile+0x444>
    1ff4:	e9 2e fe ff ff       	jmpq   1e27 <read_throttlefile+0x277>
    1ff9:	48 8b 54 24 10       	mov    0x10(%rsp),%rdx
    1ffe:	31 c0                	xor    %eax,%eax
    2000:	4c 89 f9             	mov    %r15,%rcx
    2003:	be 00 00 00 00       	mov    $0x0,%esi
    2008:	bf 02 00 00 00       	mov    $0x2,%edi
    200d:	e8 00 00 00 00       	callq  2012 <read_throttlefile+0x462>
    2012:	b8 00 00 00 00       	mov    $0x0,%eax
    2017:	48 8b 15 00 00 00 00 	mov    0x0(%rip),%rdx        # 201e <read_throttlefile+0x46e>
    201e:	48 c1 e8 03          	shr    $0x3,%rax
    2022:	80 b8 00 80 ff 7f 00 	cmpb   $0x0,0x7fff8000(%rax)
    2029:	0f 85 f0 00 00 00    	jne    211f <read_throttlefile+0x56f>
    202f:	48 8b 4c 24 10       	mov    0x10(%rsp),%rcx
    2034:	48 8b 3d 00 00 00 00 	mov    0x0(%rip),%rdi        # 203b <read_throttlefile+0x48b>
    203b:	4d 89 f8             	mov    %r15,%r8
    203e:	be 00 00 00 00       	mov    $0x0,%esi
    2043:	31 c0                	xor    %eax,%eax
    2045:	e8 00 00 00 00       	callq  204a <read_throttlefile+0x49a>
    204a:	e9 81 fc ff ff       	jmpq   1cd0 <read_throttlefile+0x120>
    204f:	48 8b 05 00 00 00 00 	mov    0x0(%rip),%rax        # 2056 <read_throttlefile+0x4a6>
    2056:	e9 dc fd ff ff       	jmpq   1e37 <read_throttlefile+0x287>
    205b:	48 89 ef             	mov    %rbp,%rdi
    205e:	e8 00 00 00 00       	callq  2063 <read_throttlefile+0x4b3>
    2063:	48 8d 44 24 30       	lea    0x30(%rsp),%rax
    2068:	48 3b 44 24 18       	cmp    0x18(%rsp),%rax
    206d:	0f 85 8c 00 00 00    	jne    20ff <read_throttlefile+0x54f>
    2073:	48 8b 44 24 20       	mov    0x20(%rsp),%rax
    2078:	48 c7 80 00 80 ff 7f 	movq   $0x0,0x7fff8000(%rax)
    207f:	00 00 00 00 
    2083:	48 c7 80 08 80 ff 7f 	movq   $0x0,0x7fff8008(%rax)
    208a:	00 00 00 00 
    208e:	48 c7 80 10 80 ff 7f 	movq   $0x0,0x7fff8010(%rax)
    2095:	00 00 00 00 
    2099:	c7 80 18 80 ff 7f 00 	movl   $0x0,0x7fff8018(%rax)
    20a0:	00 00 00 
    20a3:	48 c7 80 8c 82 ff 7f 	movq   $0x0,0x7fff828c(%rax)
    20aa:	00 00 00 00 
    20ae:	48 c7 80 04 85 ff 7f 	movq   $0x0,0x7fff8504(%rax)
    20b5:	00 00 00 00 
    20b9:	48 81 c4 98 28 00 00 	add    $0x2898,%rsp
    20c0:	5b                   	pop    %rbx
    20c1:	5d                   	pop    %rbp
    20c2:	41 5c                	pop    %r12
    20c4:	41 5d                	pop    %r13
    20c6:	41 5e                	pop    %r14
    20c8:	41 5f                	pop    %r15
    20ca:	c3                   	retq   
    20cb:	0f 85 9f fc ff ff    	jne    1d70 <read_throttlefile+0x1c0>
    20d1:	e9 fa fb ff ff       	jmpq   1cd0 <read_throttlefile+0x120>
    20d6:	48 8b 74 24 28       	mov    0x28(%rsp),%rsi
    20db:	48 89 df             	mov    %rbx,%rdi
    20de:	e8 00 00 00 00       	callq  20e3 <read_throttlefile+0x533>
    20e3:	e9 f5 fc ff ff       	jmpq   1ddd <read_throttlefile+0x22d>
    20e8:	48 89 c6             	mov    %rax,%rsi
    20eb:	bf 60 28 00 00       	mov    $0x2860,%edi
    20f0:	e8 00 00 00 00       	callq  20f5 <read_throttlefile+0x545>
    20f5:	48 89 44 24 18       	mov    %rax,0x18(%rsp)
    20fa:	e9 df fa ff ff       	jmpq   1bde <read_throttlefile+0x2e>
    20ff:	48 8b 44 24 18       	mov    0x18(%rsp),%rax
    2104:	48 8d 54 24 30       	lea    0x30(%rsp),%rdx
    2109:	be 60 28 00 00       	mov    $0x2860,%esi
    210e:	48 89 c7             	mov    %rax,%rdi
    2111:	48 c7 00 0e 36 e0 45 	movq   $0x45e0360e,(%rax)
    2118:	e8 00 00 00 00       	callq  211d <read_throttlefile+0x56d>
    211d:	eb 9a                	jmp    20b9 <read_throttlefile+0x509>
    211f:	bf 00 00 00 00       	mov    $0x0,%edi
    2124:	e8 00 00 00 00       	callq  2129 <read_throttlefile+0x579>
    2129:	e8 00 00 00 00       	callq  212e <read_throttlefile+0x57e>
    212e:	e8 00 00 00 00       	callq  2133 <read_throttlefile+0x583>
    2133:	e8 00 00 00 00       	callq  2138 <read_throttlefile+0x588>
    2138:	e8 00 00 00 00       	callq  213d <read_throttlefile+0x58d>
    213d:	e8 00 00 00 00       	callq  2142 <read_throttlefile+0x592>
    2142:	e8 00 00 00 00       	callq  2147 <read_throttlefile+0x597>
    2147:	e8 00 00 00 00       	callq  214c <read_throttlefile+0x59c>
    214c:	48 89 d7             	mov    %rdx,%rdi
    214f:	e8 00 00 00 00       	callq  2154 <read_throttlefile+0x5a4>
    2154:	31 c0                	xor    %eax,%eax
    2156:	be 00 00 00 00       	mov    $0x0,%esi
    215b:	bf 02 00 00 00       	mov    $0x2,%edi
    2160:	e8 00 00 00 00       	callq  2165 <read_throttlefile+0x5b5>
    2165:	b8 00 00 00 00       	mov    $0x0,%eax
    216a:	48 8b 15 00 00 00 00 	mov    0x0(%rip),%rdx        # 2171 <read_throttlefile+0x5c1>
    2171:	48 c1 e8 03          	shr    $0x3,%rax
    2175:	80 b8 00 80 ff 7f 00 	cmpb   $0x0,0x7fff8000(%rax)
    217c:	75 27                	jne    21a5 <read_throttlefile+0x5f5>
    217e:	48 8b 3d 00 00 00 00 	mov    0x0(%rip),%rdi        # 2185 <read_throttlefile+0x5d5>
    2185:	be 00 00 00 00       	mov    $0x0,%esi
    218a:	31 c0                	xor    %eax,%eax
    218c:	e8 00 00 00 00       	callq  2191 <read_throttlefile+0x5e1>
    2191:	e8 00 00 00 00       	callq  2196 <read_throttlefile+0x5e6>
    2196:	bf 01 00 00 00       	mov    $0x1,%edi
    219b:	e8 00 00 00 00       	callq  21a0 <read_throttlefile+0x5f0>
    21a0:	e8 00 00 00 00       	callq  21a5 <read_throttlefile+0x5f5>
    21a5:	bf 00 00 00 00       	mov    $0x0,%edi
    21aa:	e8 00 00 00 00       	callq  21af <read_throttlefile+0x5ff>
    21af:	48 89 c7             	mov    %rax,%rdi
    21b2:	e8 00 00 00 00       	callq  21b7 <read_throttlefile+0x607>
    21b7:	48 8b 5c 24 10       	mov    0x10(%rsp),%rbx
    21bc:	be 00 00 00 00       	mov    $0x0,%esi
    21c1:	31 c0                	xor    %eax,%eax
    21c3:	bf 02 00 00 00       	mov    $0x2,%edi
    21c8:	48 89 da             	mov    %rbx,%rdx
    21cb:	e8 00 00 00 00       	callq  21d0 <read_throttlefile+0x620>
    21d0:	48 89 df             	mov    %rbx,%rdi
    21d3:	e8 00 00 00 00       	callq  21d8 <read_throttlefile+0x628>
    21d8:	e8 00 00 00 00       	callq  21dd <read_throttlefile+0x62d>
    21dd:	bf 01 00 00 00       	mov    $0x1,%edi
    21e2:	e8 00 00 00 00       	callq  21e7 <read_throttlefile+0x637>
    21e7:	66 0f 1f 84 00 00 00 	nopw   0x0(%rax,%rax,1)
    21ee:	00 00 

00000000000021f0 <re_open_logfile>:
    21f0:	8b 05 00 00 00 00    	mov    0x0(%rip),%eax        # 21f6 <re_open_logfile+0x6>
    21f6:	85 c0                	test   %eax,%eax
    21f8:	75 30                	jne    222a <re_open_logfile+0x3a>
    21fa:	48 83 3d 00 00 00 00 	cmpq   $0x0,0x0(%rip)        # 2202 <re_open_logfile+0x12>
    2201:	00 
    2202:	74 26                	je     222a <re_open_logfile+0x3a>
    2204:	48 8b 3d 00 00 00 00 	mov    0x0(%rip),%rdi        # 220b <re_open_logfile+0x1b>
    220b:	48 85 ff             	test   %rdi,%rdi
    220e:	74 1a                	je     222a <re_open_logfile+0x3a>
    2210:	55                   	push   %rbp
    2211:	53                   	push   %rbx
    2212:	be 00 00 00 00       	mov    $0x0,%esi
    2217:	48 83 ec 08          	sub    $0x8,%rsp
    221b:	e8 00 00 00 00       	callq  2220 <re_open_logfile+0x30>
    2220:	85 c0                	test   %eax,%eax
    2222:	75 0c                	jne    2230 <re_open_logfile+0x40>
    2224:	48 83 c4 08          	add    $0x8,%rsp
    2228:	5b                   	pop    %rbx
    2229:	5d                   	pop    %rbp
    222a:	f3 c3                	repz retq 
    222c:	0f 1f 40 00          	nopl   0x0(%rax)
    2230:	31 c0                	xor    %eax,%eax
    2232:	be 00 00 00 00       	mov    $0x0,%esi
    2237:	bf 05 00 00 00       	mov    $0x5,%edi
    223c:	e8 00 00 00 00       	callq  2241 <re_open_logfile+0x51>
    2241:	48 8b 3d 00 00 00 00 	mov    0x0(%rip),%rdi        # 2248 <re_open_logfile+0x58>
    2248:	be 00 00 00 00       	mov    $0x0,%esi
    224d:	e8 00 00 00 00       	callq  2252 <re_open_logfile+0x62>
    2252:	48 8b 2d 00 00 00 00 	mov    0x0(%rip),%rbp        # 2259 <re_open_logfile+0x69>
    2259:	48 89 c3             	mov    %rax,%rbx
    225c:	be 80 01 00 00       	mov    $0x180,%esi
    2261:	48 89 ef             	mov    %rbp,%rdi
    2264:	e8 00 00 00 00       	callq  2269 <re_open_logfile+0x79>
    2269:	48 85 db             	test   %rbx,%rbx
    226c:	74 3a                	je     22a8 <re_open_logfile+0xb8>
    226e:	85 c0                	test   %eax,%eax
    2270:	75 36                	jne    22a8 <re_open_logfile+0xb8>
    2272:	48 89 df             	mov    %rbx,%rdi
    2275:	e8 00 00 00 00       	callq  227a <re_open_logfile+0x8a>
    227a:	be 02 00 00 00       	mov    $0x2,%esi
    227f:	89 c7                	mov    %eax,%edi
    2281:	ba 01 00 00 00       	mov    $0x1,%edx
    2286:	31 c0                	xor    %eax,%eax
    2288:	e8 00 00 00 00       	callq  228d <re_open_logfile+0x9d>
    228d:	48 8b 3d 00 00 00 00 	mov    0x0(%rip),%rdi        # 2294 <re_open_logfile+0xa4>
    2294:	48 83 c4 08          	add    $0x8,%rsp
    2298:	48 89 de             	mov    %rbx,%rsi
    229b:	5b                   	pop    %rbx
    229c:	5d                   	pop    %rbp
    229d:	e9 00 00 00 00       	jmpq   22a2 <re_open_logfile+0xb2>
    22a2:	66 0f 1f 44 00 00    	nopw   0x0(%rax,%rax,1)
    22a8:	48 83 c4 08          	add    $0x8,%rsp
    22ac:	48 89 ea             	mov    %rbp,%rdx
    22af:	be 00 00 00 00       	mov    $0x0,%esi
    22b4:	5b                   	pop    %rbx
    22b5:	5d                   	pop    %rbp
    22b6:	bf 02 00 00 00       	mov    $0x2,%edi
    22bb:	31 c0                	xor    %eax,%eax
    22bd:	e9 00 00 00 00       	jmpq   22c2 <re_open_logfile+0xd2>
    22c2:	66 66 66 66 66 2e 0f 	data32 data32 data32 data32 nopw %cs:0x0(%rax,%rax,1)
    22c9:	1f 84 00 00 00 00 00 

00000000000022d0 <handle_newconnect>:
    22d0:	41 56                	push   %r14
    22d2:	41 55                	push   %r13
    22d4:	49 89 fd             	mov    %rdi,%r13
    22d7:	41 54                	push   %r12
    22d9:	55                   	push   %rbp
    22da:	41 89 f4             	mov    %esi,%r12d
    22dd:	53                   	push   %rbx
    22de:	48 89 fd             	mov    %rdi,%rbp
    22e1:	49 c1 ed 03          	shr    $0x3,%r13
    22e5:	48 83 ec 10          	sub    $0x10,%rsp
    22e9:	8b 05 00 00 00 00    	mov    0x0(%rip),%eax        # 22ef <handle_newconnect+0x1f>
    22ef:	39 05 00 00 00 00    	cmp    %eax,0x0(%rip)        # 22f5 <handle_newconnect+0x25>
    22f5:	0f 8e d5 02 00 00    	jle    25d0 <handle_newconnect+0x300>
    22fb:	48 63 05 00 00 00 00 	movslq 0x0(%rip),%rax        # 2302 <handle_newconnect+0x32>
    2302:	83 f8 ff             	cmp    $0xffffffff,%eax
    2305:	0f 84 e5 02 00 00    	je     25f0 <handle_newconnect+0x320>
    230b:	48 8d 1c c0          	lea    (%rax,%rax,8),%rbx
    230f:	48 c1 e3 04          	shl    $0x4,%rbx
    2313:	48 03 1d 00 00 00 00 	add    0x0(%rip),%rbx        # 231a <handle_newconnect+0x4a>
    231a:	48 89 d8             	mov    %rbx,%rax
    231d:	48 c1 e8 03          	shr    $0x3,%rax
    2321:	0f b6 80 00 80 ff 7f 	movzbl 0x7fff8000(%rax),%eax
    2328:	84 c0                	test   %al,%al
    232a:	74 08                	je     2334 <handle_newconnect+0x64>
    232c:	3c 03                	cmp    $0x3,%al
    232e:	0f 8e ff 02 00 00    	jle    2633 <handle_newconnect+0x363>
    2334:	8b 03                	mov    (%rbx),%eax
    2336:	85 c0                	test   %eax,%eax
    2338:	0f 85 b2 02 00 00    	jne    25f0 <handle_newconnect+0x320>
    233e:	4c 8d 73 08          	lea    0x8(%rbx),%r14
    2342:	4c 89 f0             	mov    %r14,%rax
    2345:	48 c1 e8 03          	shr    $0x3,%rax
    2349:	80 b8 00 80 ff 7f 00 	cmpb   $0x0,0x7fff8000(%rax)
    2350:	0f 85 f7 02 00 00    	jne    264d <handle_newconnect+0x37d>
    2356:	48 8b 53 08          	mov    0x8(%rbx),%rdx
    235a:	48 85 d2             	test   %rdx,%rdx
    235d:	0f 84 25 02 00 00    	je     2588 <handle_newconnect+0x2b8>
    2363:	48 8b 3d 00 00 00 00 	mov    0x0(%rip),%rdi        # 236a <handle_newconnect+0x9a>
    236a:	44 89 e6             	mov    %r12d,%esi
    236d:	e8 00 00 00 00       	callq  2372 <handle_newconnect+0xa2>
    2372:	85 c0                	test   %eax,%eax
    2374:	0f 84 ee 01 00 00    	je     2568 <handle_newconnect+0x298>
    237a:	83 f8 02             	cmp    $0x2,%eax
    237d:	0f 84 cd 01 00 00    	je     2550 <handle_newconnect+0x280>
    2383:	48 89 d8             	mov    %rbx,%rax
    2386:	48 c1 e8 03          	shr    $0x3,%rax
    238a:	0f b6 80 00 80 ff 7f 	movzbl 0x7fff8000(%rax),%eax
    2391:	84 c0                	test   %al,%al
    2393:	74 08                	je     239d <handle_newconnect+0xcd>
    2395:	3c 03                	cmp    $0x3,%al
    2397:	0f 8e e1 02 00 00    	jle    267e <handle_newconnect+0x3ae>
    239d:	48 8d 7b 04          	lea    0x4(%rbx),%rdi
    23a1:	c7 03 01 00 00 00    	movl   $0x1,(%rbx)
    23a7:	48 89 f8             	mov    %rdi,%rax
    23aa:	48 c1 e8 03          	shr    $0x3,%rax
    23ae:	0f b6 90 00 80 ff 7f 	movzbl 0x7fff8000(%rax),%edx
    23b5:	48 89 f8             	mov    %rdi,%rax
    23b8:	83 e0 07             	and    $0x7,%eax
    23bb:	83 c0 03             	add    $0x3,%eax
    23be:	38 d0                	cmp    %dl,%al
    23c0:	7c 08                	jl     23ca <handle_newconnect+0xfa>
    23c2:	84 d2                	test   %dl,%dl
    23c4:	0f 85 71 02 00 00    	jne    263b <handle_newconnect+0x36b>
    23ca:	83 05 00 00 00 00 01 	addl   $0x1,0x0(%rip)        # 23d1 <handle_newconnect+0x101>
    23d1:	41 80 bd 00 80 ff 7f 	cmpb   $0x0,0x7fff8000(%r13)
    23d8:	00 
    23d9:	8b 43 04             	mov    0x4(%rbx),%eax
    23dc:	c7 43 04 ff ff ff ff 	movl   $0xffffffff,0x4(%rbx)
    23e3:	89 05 00 00 00 00    	mov    %eax,0x0(%rip)        # 23e9 <handle_newconnect+0x119>
    23e9:	0f 85 51 02 00 00    	jne    2640 <handle_newconnect+0x370>
    23ef:	48 8d 7b 58          	lea    0x58(%rbx),%rdi
    23f3:	48 8b 45 00          	mov    0x0(%rbp),%rax
    23f7:	48 89 fa             	mov    %rdi,%rdx
    23fa:	48 c1 ea 03          	shr    $0x3,%rdx
    23fe:	80 ba 00 80 ff 7f 00 	cmpb   $0x0,0x7fff8000(%rdx)
    2405:	0f 85 3d 02 00 00    	jne    2648 <handle_newconnect+0x378>
    240b:	48 8d 7b 60          	lea    0x60(%rbx),%rdi
    240f:	48 89 43 58          	mov    %rax,0x58(%rbx)
    2413:	48 89 f8             	mov    %rdi,%rax
    2416:	48 c1 e8 03          	shr    $0x3,%rax
    241a:	80 b8 00 80 ff 7f 00 	cmpb   $0x0,0x7fff8000(%rax)
    2421:	0f 85 07 02 00 00    	jne    262e <handle_newconnect+0x35e>
    2427:	48 8d 7b 68          	lea    0x68(%rbx),%rdi
    242b:	48 c7 43 60 00 00 00 	movq   $0x0,0x60(%rbx)
    2432:	00 
    2433:	48 89 f8             	mov    %rdi,%rax
    2436:	48 c1 e8 03          	shr    $0x3,%rax
    243a:	80 b8 00 80 ff 7f 00 	cmpb   $0x0,0x7fff8000(%rax)
    2441:	0f 85 0e 02 00 00    	jne    2655 <handle_newconnect+0x385>
    2447:	48 8d bb 88 00 00 00 	lea    0x88(%rbx),%rdi
    244e:	48 c7 43 68 00 00 00 	movq   $0x0,0x68(%rbx)
    2455:	00 
    2456:	48 89 f8             	mov    %rdi,%rax
    2459:	48 c1 e8 03          	shr    $0x3,%rax
    245d:	80 b8 00 80 ff 7f 00 	cmpb   $0x0,0x7fff8000(%rax)
    2464:	0f 85 f0 01 00 00    	jne    265a <handle_newconnect+0x38a>
    246a:	48 8d 7b 38          	lea    0x38(%rbx),%rdi
    246e:	48 c7 83 88 00 00 00 	movq   $0x0,0x88(%rbx)
    2475:	00 00 00 00 
    2479:	48 89 f8             	mov    %rdi,%rax
    247c:	48 c1 e8 03          	shr    $0x3,%rax
    2480:	0f b6 80 00 80 ff 7f 	movzbl 0x7fff8000(%rax),%eax
    2487:	84 c0                	test   %al,%al
    2489:	74 08                	je     2493 <handle_newconnect+0x1c3>
    248b:	3c 03                	cmp    $0x3,%al
    248d:	0f 8e cc 01 00 00    	jle    265f <handle_newconnect+0x38f>
    2493:	4c 89 f0             	mov    %r14,%rax
    2496:	c7 43 38 00 00 00 00 	movl   $0x0,0x38(%rbx)
    249d:	48 c1 e8 03          	shr    $0x3,%rax
    24a1:	80 b8 00 80 ff 7f 00 	cmpb   $0x0,0x7fff8000(%rax)
    24a8:	0f 85 b6 01 00 00    	jne    2664 <handle_newconnect+0x394>
    24ae:	48 8b 43 08          	mov    0x8(%rbx),%rax
    24b2:	48 8d b8 c0 02 00 00 	lea    0x2c0(%rax),%rdi
    24b9:	48 89 fa             	mov    %rdi,%rdx
    24bc:	48 c1 ea 03          	shr    $0x3,%rdx
    24c0:	0f b6 92 00 80 ff 7f 	movzbl 0x7fff8000(%rdx),%edx
    24c7:	84 d2                	test   %dl,%dl
    24c9:	74 09                	je     24d4 <handle_newconnect+0x204>
    24cb:	80 fa 03             	cmp    $0x3,%dl
    24ce:	0f 8e 98 01 00 00    	jle    266c <handle_newconnect+0x39c>
    24d4:	8b b8 c0 02 00 00    	mov    0x2c0(%rax),%edi
    24da:	e8 00 00 00 00       	callq  24df <handle_newconnect+0x20f>
    24df:	4c 89 f0             	mov    %r14,%rax
    24e2:	48 c1 e8 03          	shr    $0x3,%rax
    24e6:	80 b8 00 80 ff 7f 00 	cmpb   $0x0,0x7fff8000(%rax)
    24ed:	0f 85 7e 01 00 00    	jne    2671 <handle_newconnect+0x3a1>
    24f3:	48 8b 43 08          	mov    0x8(%rbx),%rax
    24f7:	48 8d b8 c0 02 00 00 	lea    0x2c0(%rax),%rdi
    24fe:	48 89 fa             	mov    %rdi,%rdx
    2501:	48 c1 ea 03          	shr    $0x3,%rdx
    2505:	0f b6 92 00 80 ff 7f 	movzbl 0x7fff8000(%rdx),%edx
    250c:	84 d2                	test   %dl,%dl
    250e:	74 09                	je     2519 <handle_newconnect+0x249>
    2510:	80 fa 03             	cmp    $0x3,%dl
    2513:	0f 8e 60 01 00 00    	jle    2679 <handle_newconnect+0x3a9>
    2519:	8b b8 c0 02 00 00    	mov    0x2c0(%rax),%edi
    251f:	31 d2                	xor    %edx,%edx
    2521:	48 89 de             	mov    %rbx,%rsi
    2524:	e8 00 00 00 00       	callq  2529 <handle_newconnect+0x259>
    2529:	48 83 05 00 00 00 00 	addq   $0x1,0x0(%rip)        # 2531 <handle_newconnect+0x261>
    2530:	01 
    2531:	8b 05 00 00 00 00    	mov    0x0(%rip),%eax        # 2537 <handle_newconnect+0x267>
    2537:	3b 05 00 00 00 00    	cmp    0x0(%rip),%eax        # 253d <handle_newconnect+0x26d>
    253d:	0f 8e ac fd ff ff    	jle    22ef <handle_newconnect+0x1f>
    2543:	89 05 00 00 00 00    	mov    %eax,0x0(%rip)        # 2549 <handle_newconnect+0x279>
    2549:	e9 a1 fd ff ff       	jmpq   22ef <handle_newconnect+0x1f>
    254e:	66 90                	xchg   %ax,%ax
    2550:	b8 01 00 00 00       	mov    $0x1,%eax
    2555:	48 83 c4 10          	add    $0x10,%rsp
    2559:	5b                   	pop    %rbx
    255a:	5d                   	pop    %rbp
    255b:	41 5c                	pop    %r12
    255d:	41 5d                	pop    %r13
    255f:	41 5e                	pop    %r14
    2561:	c3                   	retq   
    2562:	66 0f 1f 44 00 00    	nopw   0x0(%rax,%rax,1)
    2568:	48 89 ef             	mov    %rbp,%rdi
    256b:	89 44 24 0c          	mov    %eax,0xc(%rsp)
    256f:	e8 00 00 00 00       	callq  2574 <handle_newconnect+0x2a4>
    2574:	8b 44 24 0c          	mov    0xc(%rsp),%eax
    2578:	48 83 c4 10          	add    $0x10,%rsp
    257c:	5b                   	pop    %rbx
    257d:	5d                   	pop    %rbp
    257e:	41 5c                	pop    %r12
    2580:	41 5d                	pop    %r13
    2582:	41 5e                	pop    %r14
    2584:	c3                   	retq   
    2585:	0f 1f 00             	nopl   (%rax)
    2588:	bf d0 02 00 00       	mov    $0x2d0,%edi
    258d:	e8 00 00 00 00       	callq  2592 <handle_newconnect+0x2c2>
    2592:	48 85 c0             	test   %rax,%rax
    2595:	48 89 43 08          	mov    %rax,0x8(%rbx)
    2599:	74 75                	je     2610 <handle_newconnect+0x340>
    259b:	48 89 c2             	mov    %rax,%rdx
    259e:	48 c1 ea 03          	shr    $0x3,%rdx
    25a2:	0f b6 92 00 80 ff 7f 	movzbl 0x7fff8000(%rdx),%edx
    25a9:	84 d2                	test   %dl,%dl
    25ab:	74 05                	je     25b2 <handle_newconnect+0x2e2>
    25ad:	80 fa 03             	cmp    $0x3,%dl
    25b0:	7e 15                	jle    25c7 <handle_newconnect+0x2f7>
    25b2:	c7 00 00 00 00 00    	movl   $0x0,(%rax)
    25b8:	83 05 00 00 00 00 01 	addl   $0x1,0x0(%rip)        # 25bf <handle_newconnect+0x2ef>
    25bf:	48 89 c2             	mov    %rax,%rdx
    25c2:	e9 9c fd ff ff       	jmpq   2363 <handle_newconnect+0x93>
    25c7:	48 89 c7             	mov    %rax,%rdi
    25ca:	e8 00 00 00 00       	callq  25cf <handle_newconnect+0x2ff>
    25cf:	90                   	nop
    25d0:	31 c0                	xor    %eax,%eax
    25d2:	be 00 00 00 00       	mov    $0x0,%esi
    25d7:	bf 04 00 00 00       	mov    $0x4,%edi
    25dc:	e8 00 00 00 00       	callq  25e1 <handle_newconnect+0x311>
    25e1:	48 89 ef             	mov    %rbp,%rdi
    25e4:	e8 00 00 00 00       	callq  25e9 <handle_newconnect+0x319>
    25e9:	31 c0                	xor    %eax,%eax
    25eb:	e9 65 ff ff ff       	jmpq   2555 <handle_newconnect+0x285>
    25f0:	bf 02 00 00 00       	mov    $0x2,%edi
    25f5:	be 00 00 00 00       	mov    $0x0,%esi
    25fa:	31 c0                	xor    %eax,%eax
    25fc:	e8 00 00 00 00       	callq  2601 <handle_newconnect+0x331>
    2601:	e8 00 00 00 00       	callq  2606 <handle_newconnect+0x336>
    2606:	bf 01 00 00 00       	mov    $0x1,%edi
    260b:	e8 00 00 00 00       	callq  2610 <handle_newconnect+0x340>
    2610:	bf 02 00 00 00       	mov    $0x2,%edi
    2615:	be 00 00 00 00       	mov    $0x0,%esi
    261a:	e8 00 00 00 00       	callq  261f <handle_newconnect+0x34f>
    261f:	e8 00 00 00 00       	callq  2624 <handle_newconnect+0x354>
    2624:	bf 01 00 00 00       	mov    $0x1,%edi
    2629:	e8 00 00 00 00       	callq  262e <handle_newconnect+0x35e>
    262e:	e8 00 00 00 00       	callq  2633 <handle_newconnect+0x363>
    2633:	48 89 df             	mov    %rbx,%rdi
    2636:	e8 00 00 00 00       	callq  263b <handle_newconnect+0x36b>
    263b:	e8 00 00 00 00       	callq  2640 <handle_newconnect+0x370>
    2640:	48 89 ef             	mov    %rbp,%rdi
    2643:	e8 00 00 00 00       	callq  2648 <handle_newconnect+0x378>
    2648:	e8 00 00 00 00       	callq  264d <handle_newconnect+0x37d>
    264d:	4c 89 f7             	mov    %r14,%rdi
    2650:	e8 00 00 00 00       	callq  2655 <handle_newconnect+0x385>
    2655:	e8 00 00 00 00       	callq  265a <handle_newconnect+0x38a>
    265a:	e8 00 00 00 00       	callq  265f <handle_newconnect+0x38f>
    265f:	e8 00 00 00 00       	callq  2664 <handle_newconnect+0x394>
    2664:	4c 89 f7             	mov    %r14,%rdi
    2667:	e8 00 00 00 00       	callq  266c <handle_newconnect+0x39c>
    266c:	e8 00 00 00 00       	callq  2671 <handle_newconnect+0x3a1>
    2671:	4c 89 f7             	mov    %r14,%rdi
    2674:	e8 00 00 00 00       	callq  2679 <handle_newconnect+0x3a9>
    2679:	e8 00 00 00 00       	callq  267e <handle_newconnect+0x3ae>
    267e:	48 89 df             	mov    %rbx,%rdi
    2681:	e8 00 00 00 00       	callq  2686 <handle_newconnect+0x3b6>
    2686:	66 2e 0f 1f 84 00 00 	nopw   %cs:0x0(%rax,%rax,1)
    268d:	00 00 00 

0000000000002690 <check_throttles>:
    2690:	41 57                	push   %r15
    2692:	41 56                	push   %r14
    2694:	48 8d 47 38          	lea    0x38(%rdi),%rax
    2698:	41 55                	push   %r13
    269a:	41 54                	push   %r12
    269c:	55                   	push   %rbp
    269d:	53                   	push   %rbx
    269e:	48 89 fb             	mov    %rdi,%rbx
    26a1:	48 83 ec 38          	sub    $0x38,%rsp
    26a5:	48 89 44 24 10       	mov    %rax,0x10(%rsp)
    26aa:	48 c1 e8 03          	shr    $0x3,%rax
    26ae:	0f b6 80 00 80 ff 7f 	movzbl 0x7fff8000(%rax),%eax
    26b5:	84 c0                	test   %al,%al
    26b7:	74 08                	je     26c1 <check_throttles+0x31>
    26b9:	3c 03                	cmp    $0x3,%al
    26bb:	0f 8e ac 03 00 00    	jle    2a6d <check_throttles+0x3dd>
    26c1:	48 8d 43 48          	lea    0x48(%rbx),%rax
    26c5:	c7 43 38 00 00 00 00 	movl   $0x0,0x38(%rbx)
    26cc:	48 89 44 24 20       	mov    %rax,0x20(%rsp)
    26d1:	48 c1 e8 03          	shr    $0x3,%rax
    26d5:	80 b8 00 80 ff 7f 00 	cmpb   $0x0,0x7fff8000(%rax)
    26dc:	0f 85 81 03 00 00    	jne    2a63 <check_throttles+0x3d3>
    26e2:	48 8d 4b 40          	lea    0x40(%rbx),%rcx
    26e6:	48 c7 43 48 ff ff ff 	movq   $0xffffffffffffffff,0x48(%rbx)
    26ed:	ff 
    26ee:	49 89 cd             	mov    %rcx,%r13
    26f1:	48 89 4c 24 18       	mov    %rcx,0x18(%rsp)
    26f6:	49 c1 ed 03          	shr    $0x3,%r13
    26fa:	41 80 bd 00 80 ff 7f 	cmpb   $0x0,0x7fff8000(%r13)
    2701:	00 
    2702:	0f 85 53 03 00 00    	jne    2a5b <check_throttles+0x3cb>
    2708:	8b 15 00 00 00 00    	mov    0x0(%rip),%edx        # 270e <check_throttles+0x7e>
    270e:	48 8d 4b 08          	lea    0x8(%rbx),%rcx
    2712:	45 31 f6             	xor    %r14d,%r14d
    2715:	48 c7 43 40 ff ff ff 	movq   $0xffffffffffffffff,0x40(%rbx)
    271c:	ff 
    271d:	48 89 4c 24 28       	mov    %rcx,0x28(%rsp)
    2722:	85 d2                	test   %edx,%edx
    2724:	0f 8e a6 02 00 00    	jle    29d0 <check_throttles+0x340>
    272a:	48 8b 6c 24 10       	mov    0x10(%rsp),%rbp
    272f:	4c 8d 63 08          	lea    0x8(%rbx),%r12
    2733:	48 89 44 24 08       	mov    %rax,0x8(%rsp)
    2738:	49 c1 ec 03          	shr    $0x3,%r12
    273c:	48 c1 ed 03          	shr    $0x3,%rbp
    2740:	e9 f6 00 00 00       	jmpq   283b <check_throttles+0x1ab>
    2745:	0f 1f 00             	nopl   (%rax)
    2748:	83 c1 01             	add    $0x1,%ecx
    274b:	4c 63 d9             	movslq %ecx,%r11
    274e:	0f b6 95 00 80 ff 7f 	movzbl 0x7fff8000(%rbp),%edx
    2755:	84 d2                	test   %dl,%dl
    2757:	74 09                	je     2762 <check_throttles+0xd2>
    2759:	80 fa 03             	cmp    $0x3,%dl
    275c:	0f 8e d6 02 00 00    	jle    2a38 <check_throttles+0x3a8>
    2762:	48 63 53 38          	movslq 0x38(%rbx),%rdx
    2766:	44 8d 42 01          	lea    0x1(%rdx),%r8d
    276a:	4c 8d 54 93 10       	lea    0x10(%rbx,%rdx,4),%r10
    276f:	44 89 43 38          	mov    %r8d,0x38(%rbx)
    2773:	4d 89 d0             	mov    %r10,%r8
    2776:	49 c1 e8 03          	shr    $0x3,%r8
    277a:	45 0f b6 b8 00 80 ff 	movzbl 0x7fff8000(%r8),%r15d
    2781:	7f 
    2782:	4d 89 d0             	mov    %r10,%r8
    2785:	41 83 e0 07          	and    $0x7,%r8d
    2789:	41 83 c0 03          	add    $0x3,%r8d
    278d:	45 38 f8             	cmp    %r15b,%r8b
    2790:	7c 09                	jl     279b <check_throttles+0x10b>
    2792:	45 84 ff             	test   %r15b,%r15b
    2795:	0f 85 95 02 00 00    	jne    2a30 <check_throttles+0x3a0>
    279b:	44 89 74 93 10       	mov    %r14d,0x10(%rbx,%rdx,4)
    27a0:	48 89 fa             	mov    %rdi,%rdx
    27a3:	48 c1 ea 03          	shr    $0x3,%rdx
    27a7:	0f b6 92 00 80 ff 7f 	movzbl 0x7fff8000(%rdx),%edx
    27ae:	84 d2                	test   %dl,%dl
    27b0:	74 09                	je     27bb <check_throttles+0x12b>
    27b2:	80 fa 03             	cmp    $0x3,%dl
    27b5:	0f 8e 70 02 00 00    	jle    2a2b <check_throttles+0x39b>
    27bb:	48 99                	cqto   
    27bd:	89 4e 28             	mov    %ecx,0x28(%rsi)
    27c0:	49 f7 fb             	idiv   %r11
    27c3:	41 80 bd 00 80 ff 7f 	cmpb   $0x0,0x7fff8000(%r13)
    27ca:	00 
    27cb:	0f 85 37 02 00 00    	jne    2a08 <check_throttles+0x378>
    27d1:	48 8b 53 40          	mov    0x40(%rbx),%rdx
    27d5:	48 83 fa ff          	cmp    $0xffffffffffffffff,%rdx
    27d9:	74 07                	je     27e2 <check_throttles+0x152>
    27db:	48 39 d0             	cmp    %rdx,%rax
    27de:	48 0f 4f c2          	cmovg  %rdx,%rax
    27e2:	48 89 43 40          	mov    %rax,0x40(%rbx)
    27e6:	48 8b 44 24 08       	mov    0x8(%rsp),%rax
    27eb:	80 b8 00 80 ff 7f 00 	cmpb   $0x0,0x7fff8000(%rax)
    27f2:	0f 85 06 02 00 00    	jne    29fe <check_throttles+0x36e>
    27f8:	48 8b 43 48          	mov    0x48(%rbx),%rax
    27fc:	48 83 f8 ff          	cmp    $0xffffffffffffffff,%rax
    2800:	74 07                	je     2809 <check_throttles+0x179>
    2802:	4c 39 c8             	cmp    %r9,%rax
    2805:	4c 0f 4d c8          	cmovge %rax,%r9
    2809:	4c 89 4b 48          	mov    %r9,0x48(%rbx)
    280d:	41 83 c6 01          	add    $0x1,%r14d
    2811:	44 39 35 00 00 00 00 	cmp    %r14d,0x0(%rip)        # 2818 <check_throttles+0x188>
    2818:	0f 8e b2 01 00 00    	jle    29d0 <check_throttles+0x340>
    281e:	0f b6 85 00 80 ff 7f 	movzbl 0x7fff8000(%rbp),%eax
    2825:	84 c0                	test   %al,%al
    2827:	74 08                	je     2831 <check_throttles+0x1a1>
    2829:	3c 03                	cmp    $0x3,%al
    282b:	0f 8e e1 01 00 00    	jle    2a12 <check_throttles+0x382>
    2831:	83 7b 38 09          	cmpl   $0x9,0x38(%rbx)
    2835:	0f 8f 95 01 00 00    	jg     29d0 <check_throttles+0x340>
    283b:	41 80 bc 24 00 80 ff 	cmpb   $0x0,0x7fff8000(%r12)
    2842:	7f 00 
    2844:	0f 85 07 02 00 00    	jne    2a51 <check_throttles+0x3c1>
    284a:	48 8b 43 08          	mov    0x8(%rbx),%rax
    284e:	48 8d b8 f0 00 00 00 	lea    0xf0(%rax),%rdi
    2855:	48 89 fa             	mov    %rdi,%rdx
    2858:	48 c1 ea 03          	shr    $0x3,%rdx
    285c:	80 ba 00 80 ff 7f 00 	cmpb   $0x0,0x7fff8000(%rdx)
    2863:	0f 85 e3 01 00 00    	jne    2a4c <check_throttles+0x3bc>
    2869:	48 8b b0 f0 00 00 00 	mov    0xf0(%rax),%rsi
    2870:	49 63 c6             	movslq %r14d,%rax
    2873:	4c 8d 3c 40          	lea    (%rax,%rax,2),%r15
    2877:	49 c1 e7 04          	shl    $0x4,%r15
    287b:	4c 89 ff             	mov    %r15,%rdi
    287e:	48 03 3d 00 00 00 00 	add    0x0(%rip),%rdi        # 2885 <check_throttles+0x1f5>
    2885:	48 89 f8             	mov    %rdi,%rax
    2888:	48 c1 e8 03          	shr    $0x3,%rax
    288c:	80 b8 00 80 ff 7f 00 	cmpb   $0x0,0x7fff8000(%rax)
    2893:	0f 85 ae 01 00 00    	jne    2a47 <check_throttles+0x3b7>
    2899:	48 8b 3f             	mov    (%rdi),%rdi
    289c:	e8 00 00 00 00       	callq  28a1 <check_throttles+0x211>
    28a1:	85 c0                	test   %eax,%eax
    28a3:	0f 84 64 ff ff ff    	je     280d <check_throttles+0x17d>
    28a9:	4c 89 fe             	mov    %r15,%rsi
    28ac:	48 03 35 00 00 00 00 	add    0x0(%rip),%rsi        # 28b3 <check_throttles+0x223>
    28b3:	48 8d 7e 18          	lea    0x18(%rsi),%rdi
    28b7:	48 89 f8             	mov    %rdi,%rax
    28ba:	48 c1 e8 03          	shr    $0x3,%rax
    28be:	80 b8 00 80 ff 7f 00 	cmpb   $0x0,0x7fff8000(%rax)
    28c5:	0f 85 5b 01 00 00    	jne    2a26 <check_throttles+0x396>
    28cb:	48 8d 7e 08          	lea    0x8(%rsi),%rdi
    28cf:	48 8b 56 18          	mov    0x18(%rsi),%rdx
    28d3:	48 89 f8             	mov    %rdi,%rax
    28d6:	48 c1 e8 03          	shr    $0x3,%rax
    28da:	80 b8 00 80 ff 7f 00 	cmpb   $0x0,0x7fff8000(%rax)
    28e1:	0f 85 3a 01 00 00    	jne    2a21 <check_throttles+0x391>
    28e7:	48 8b 46 08          	mov    0x8(%rsi),%rax
    28eb:	48 8d 0c 00          	lea    (%rax,%rax,1),%rcx
    28ef:	48 39 ca             	cmp    %rcx,%rdx
    28f2:	0f 8f f0 00 00 00    	jg     29e8 <check_throttles+0x358>
    28f8:	48 8d 7e 10          	lea    0x10(%rsi),%rdi
    28fc:	48 89 f9             	mov    %rdi,%rcx
    28ff:	48 c1 e9 03          	shr    $0x3,%rcx
    2903:	80 b9 00 80 ff 7f 00 	cmpb   $0x0,0x7fff8000(%rcx)
    290a:	0f 85 0c 01 00 00    	jne    2a1c <check_throttles+0x38c>
    2910:	4c 8b 4e 10          	mov    0x10(%rsi),%r9
    2914:	4c 39 ca             	cmp    %r9,%rdx
    2917:	0f 8c cb 00 00 00    	jl     29e8 <check_throttles+0x358>
    291d:	48 8d 7e 28          	lea    0x28(%rsi),%rdi
    2921:	48 89 fa             	mov    %rdi,%rdx
    2924:	48 c1 ea 03          	shr    $0x3,%rdx
    2928:	0f b6 92 00 80 ff 7f 	movzbl 0x7fff8000(%rdx),%edx
    292f:	84 d2                	test   %dl,%dl
    2931:	74 09                	je     293c <check_throttles+0x2ac>
    2933:	80 fa 03             	cmp    $0x3,%dl
    2936:	0f 8e 06 01 00 00    	jle    2a42 <check_throttles+0x3b2>
    293c:	8b 4e 28             	mov    0x28(%rsi),%ecx
    293f:	85 c9                	test   %ecx,%ecx
    2941:	0f 89 01 fe ff ff    	jns    2748 <check_throttles+0xb8>
    2947:	31 c0                	xor    %eax,%eax
    2949:	be 00 00 00 00       	mov    $0x0,%esi
    294e:	bf 03 00 00 00       	mov    $0x3,%edi
    2953:	e8 00 00 00 00       	callq  2958 <check_throttles+0x2c8>
    2958:	4c 89 fe             	mov    %r15,%rsi
    295b:	48 03 35 00 00 00 00 	add    0x0(%rip),%rsi        # 2962 <check_throttles+0x2d2>
    2962:	48 8d 7e 28          	lea    0x28(%rsi),%rdi
    2966:	48 89 f8             	mov    %rdi,%rax
    2969:	48 c1 e8 03          	shr    $0x3,%rax
    296d:	0f b6 80 00 80 ff 7f 	movzbl 0x7fff8000(%rax),%eax
    2974:	84 c0                	test   %al,%al
    2976:	74 04                	je     297c <check_throttles+0x2ec>
    2978:	3c 03                	cmp    $0x3,%al
    297a:	7e 7d                	jle    29f9 <check_throttles+0x369>
    297c:	48 8d 46 08          	lea    0x8(%rsi),%rax
    2980:	c7 46 28 00 00 00 00 	movl   $0x0,0x28(%rsi)
    2987:	48 89 c2             	mov    %rax,%rdx
    298a:	48 c1 ea 03          	shr    $0x3,%rdx
    298e:	80 ba 00 80 ff 7f 00 	cmpb   $0x0,0x7fff8000(%rdx)
    2995:	0f 85 e4 00 00 00    	jne    2a7f <check_throttles+0x3ef>
    299b:	48 8d 4e 10          	lea    0x10(%rsi),%rcx
    299f:	48 8b 46 08          	mov    0x8(%rsi),%rax
    29a3:	48 89 ca             	mov    %rcx,%rdx
    29a6:	48 c1 ea 03          	shr    $0x3,%rdx
    29aa:	80 ba 00 80 ff 7f 00 	cmpb   $0x0,0x7fff8000(%rdx)
    29b1:	0f 85 c0 00 00 00    	jne    2a77 <check_throttles+0x3e7>
    29b7:	4c 8b 4e 10          	mov    0x10(%rsi),%r9
    29bb:	41 bb 01 00 00 00    	mov    $0x1,%r11d
    29c1:	b9 01 00 00 00       	mov    $0x1,%ecx
    29c6:	e9 83 fd ff ff       	jmpq   274e <check_throttles+0xbe>
    29cb:	0f 1f 44 00 00       	nopl   0x0(%rax,%rax,1)
    29d0:	48 83 c4 38          	add    $0x38,%rsp
    29d4:	b8 01 00 00 00       	mov    $0x1,%eax
    29d9:	5b                   	pop    %rbx
    29da:	5d                   	pop    %rbp
    29db:	41 5c                	pop    %r12
    29dd:	41 5d                	pop    %r13
    29df:	41 5e                	pop    %r14
    29e1:	41 5f                	pop    %r15
    29e3:	c3                   	retq   
    29e4:	0f 1f 40 00          	nopl   0x0(%rax)
    29e8:	48 83 c4 38          	add    $0x38,%rsp
    29ec:	31 c0                	xor    %eax,%eax
    29ee:	5b                   	pop    %rbx
    29ef:	5d                   	pop    %rbp
    29f0:	41 5c                	pop    %r12
    29f2:	41 5d                	pop    %r13
    29f4:	41 5e                	pop    %r14
    29f6:	41 5f                	pop    %r15
    29f8:	c3                   	retq   
    29f9:	e8 00 00 00 00       	callq  29fe <check_throttles+0x36e>
    29fe:	48 8b 7c 24 20       	mov    0x20(%rsp),%rdi
    2a03:	e8 00 00 00 00       	callq  2a08 <check_throttles+0x378>
    2a08:	48 8b 7c 24 18       	mov    0x18(%rsp),%rdi
    2a0d:	e8 00 00 00 00       	callq  2a12 <check_throttles+0x382>
    2a12:	48 8b 7c 24 10       	mov    0x10(%rsp),%rdi
    2a17:	e8 00 00 00 00       	callq  2a1c <check_throttles+0x38c>
    2a1c:	e8 00 00 00 00       	callq  2a21 <check_throttles+0x391>
    2a21:	e8 00 00 00 00       	callq  2a26 <check_throttles+0x396>
    2a26:	e8 00 00 00 00       	callq  2a2b <check_throttles+0x39b>
    2a2b:	e8 00 00 00 00       	callq  2a30 <check_throttles+0x3a0>
    2a30:	4c 89 d7             	mov    %r10,%rdi
    2a33:	e8 00 00 00 00       	callq  2a38 <check_throttles+0x3a8>
    2a38:	48 8b 7c 24 10       	mov    0x10(%rsp),%rdi
    2a3d:	e8 00 00 00 00       	callq  2a42 <check_throttles+0x3b2>
    2a42:	e8 00 00 00 00       	callq  2a47 <check_throttles+0x3b7>
    2a47:	e8 00 00 00 00       	callq  2a4c <check_throttles+0x3bc>
    2a4c:	e8 00 00 00 00       	callq  2a51 <check_throttles+0x3c1>
    2a51:	48 8b 7c 24 28       	mov    0x28(%rsp),%rdi
    2a56:	e8 00 00 00 00       	callq  2a5b <check_throttles+0x3cb>
    2a5b:	48 89 cf             	mov    %rcx,%rdi
    2a5e:	e8 00 00 00 00       	callq  2a63 <check_throttles+0x3d3>
    2a63:	48 8b 7c 24 20       	mov    0x20(%rsp),%rdi
    2a68:	e8 00 00 00 00       	callq  2a6d <check_throttles+0x3dd>
    2a6d:	48 8b 7c 24 10       	mov    0x10(%rsp),%rdi
    2a72:	e8 00 00 00 00       	callq  2a77 <check_throttles+0x3e7>
    2a77:	48 89 cf             	mov    %rcx,%rdi
    2a7a:	e8 00 00 00 00       	callq  2a7f <check_throttles+0x3ef>
    2a7f:	48 89 c7             	mov    %rax,%rdi
    2a82:	e8 00 00 00 00       	callq  2a87 <check_throttles+0x3f7>
    2a87:	66 0f 1f 84 00 00 00 	nopw   0x0(%rax,%rax,1)
    2a8e:	00 00 

0000000000002a90 <shut_down>:
    2a90:	41 57                	push   %r15
    2a92:	41 56                	push   %r14
    2a94:	41 55                	push   %r13
    2a96:	41 54                	push   %r12
    2a98:	55                   	push   %rbp
    2a99:	53                   	push   %rbx
    2a9a:	48 83 ec 78          	sub    $0x78,%rsp
    2a9e:	8b 35 00 00 00 00    	mov    0x0(%rip),%esi        # 2aa4 <shut_down+0x14>
    2aa4:	4c 8d 64 24 10       	lea    0x10(%rsp),%r12
    2aa9:	85 f6                	test   %esi,%esi
    2aab:	0f 85 5b 02 00 00    	jne    2d0c <shut_down+0x27c>
    2ab1:	49 8d 5c 24 20       	lea    0x20(%r12),%rbx
    2ab6:	4d 89 e5             	mov    %r12,%r13
    2ab9:	49 c7 04 24 b3 8a b5 	movq   $0x41b58ab3,(%r12)
    2ac0:	41 
    2ac1:	49 c1 ed 03          	shr    $0x3,%r13
    2ac5:	49 c7 44 24 08 00 00 	movq   $0x0,0x8(%r12)
    2acc:	00 00 
    2ace:	49 c7 44 24 10 00 00 	movq   $0x0,0x10(%r12)
    2ad5:	00 00 
    2ad7:	31 f6                	xor    %esi,%esi
    2ad9:	48 89 df             	mov    %rbx,%rdi
    2adc:	41 c7 85 00 80 ff 7f 	movl   $0xf1f1f1f1,0x7fff8000(%r13)
    2ae3:	f1 f1 f1 f1 
    2ae7:	41 c7 85 04 80 ff 7f 	movl   $0xf4f40000,0x7fff8004(%r13)
    2aee:	00 00 f4 f4 
    2af2:	41 c7 85 08 80 ff 7f 	movl   $0xf3f3f3f3,0x7fff8008(%r13)
    2af9:	f3 f3 f3 f3 
    2afd:	31 ed                	xor    %ebp,%ebp
    2aff:	e8 00 00 00 00       	callq  2b04 <shut_down+0x74>
    2b04:	48 89 df             	mov    %rbx,%rdi
    2b07:	e8 54 db ff ff       	callq  660 <logstats>
    2b0c:	8b 0d 00 00 00 00    	mov    0x0(%rip),%ecx        # 2b12 <shut_down+0x82>
    2b12:	48 89 5c 24 08       	mov    %rbx,0x8(%rsp)
    2b17:	85 c9                	test   %ecx,%ecx
    2b19:	7f 7c                	jg     2b97 <shut_down+0x107>
    2b1b:	e9 f0 00 00 00       	jmpq   2c10 <shut_down+0x180>
    2b20:	48 8d 78 08          	lea    0x8(%rax),%rdi
    2b24:	48 89 fa             	mov    %rdi,%rdx
    2b27:	48 c1 ea 03          	shr    $0x3,%rdx
    2b2b:	80 ba 00 80 ff 7f 00 	cmpb   $0x0,0x7fff8000(%rdx)
    2b32:	0f 85 c7 01 00 00    	jne    2cff <shut_down+0x26f>
    2b38:	48 8b 78 08          	mov    0x8(%rax),%rdi
    2b3c:	48 85 ff             	test   %rdi,%rdi
    2b3f:	74 4b                	je     2b8c <shut_down+0xfc>
    2b41:	e8 00 00 00 00       	callq  2b46 <shut_down+0xb6>
    2b46:	48 03 1d 00 00 00 00 	add    0x0(%rip),%rbx        # 2b4d <shut_down+0xbd>
    2b4d:	4c 8d 7b 08          	lea    0x8(%rbx),%r15
    2b51:	4d 89 fe             	mov    %r15,%r14
    2b54:	49 c1 ee 03          	shr    $0x3,%r14
    2b58:	41 80 be 00 80 ff 7f 	cmpb   $0x0,0x7fff8000(%r14)
    2b5f:	00 
    2b60:	0f 85 91 01 00 00    	jne    2cf7 <shut_down+0x267>
    2b66:	48 8b 7b 08          	mov    0x8(%rbx),%rdi
    2b6a:	e8 00 00 00 00       	callq  2b6f <shut_down+0xdf>
    2b6f:	83 2d 00 00 00 00 01 	subl   $0x1,0x0(%rip)        # 2b76 <shut_down+0xe6>
    2b76:	41 80 be 00 80 ff 7f 	cmpb   $0x0,0x7fff8000(%r14)
    2b7d:	00 
    2b7e:	0f 85 6b 01 00 00    	jne    2cef <shut_down+0x25f>
    2b84:	48 c7 43 08 00 00 00 	movq   $0x0,0x8(%rbx)
    2b8b:	00 
    2b8c:	83 c5 01             	add    $0x1,%ebp
    2b8f:	39 2d 00 00 00 00    	cmp    %ebp,0x0(%rip)        # 2b95 <shut_down+0x105>
    2b95:	7e 79                	jle    2c10 <shut_down+0x180>
    2b97:	48 63 c5             	movslq %ebp,%rax
    2b9a:	48 8d 1c c0          	lea    (%rax,%rax,8),%rbx
    2b9e:	48 c1 e3 04          	shl    $0x4,%rbx
    2ba2:	48 89 d8             	mov    %rbx,%rax
    2ba5:	48 03 05 00 00 00 00 	add    0x0(%rip),%rax        # 2bac <shut_down+0x11c>
    2bac:	48 89 c2             	mov    %rax,%rdx
    2baf:	48 c1 ea 03          	shr    $0x3,%rdx
    2bb3:	0f b6 92 00 80 ff 7f 	movzbl 0x7fff8000(%rdx),%edx
    2bba:	84 d2                	test   %dl,%dl
    2bbc:	74 09                	je     2bc7 <shut_down+0x137>
    2bbe:	80 fa 03             	cmp    $0x3,%dl
    2bc1:	0f 8e 3d 01 00 00    	jle    2d04 <shut_down+0x274>
    2bc7:	8b 10                	mov    (%rax),%edx
    2bc9:	85 d2                	test   %edx,%edx
    2bcb:	0f 84 4f ff ff ff    	je     2b20 <shut_down+0x90>
    2bd1:	48 8d 78 08          	lea    0x8(%rax),%rdi
    2bd5:	48 89 fa             	mov    %rdi,%rdx
    2bd8:	48 c1 ea 03          	shr    $0x3,%rdx
    2bdc:	80 ba 00 80 ff 7f 00 	cmpb   $0x0,0x7fff8000(%rdx)
    2be3:	0f 85 01 01 00 00    	jne    2cea <shut_down+0x25a>
    2be9:	48 8b 78 08          	mov    0x8(%rax),%rdi
    2bed:	48 8b 74 24 08       	mov    0x8(%rsp),%rsi
    2bf2:	e8 00 00 00 00       	callq  2bf7 <shut_down+0x167>
    2bf7:	48 89 d8             	mov    %rbx,%rax
    2bfa:	48 03 05 00 00 00 00 	add    0x0(%rip),%rax        # 2c01 <shut_down+0x171>
    2c01:	e9 1a ff ff ff       	jmpq   2b20 <shut_down+0x90>
    2c06:	66 2e 0f 1f 84 00 00 	nopw   %cs:0x0(%rax,%rax,1)
    2c0d:	00 00 00 
    2c10:	48 8b 1d 00 00 00 00 	mov    0x0(%rip),%rbx        # 2c17 <shut_down+0x187>
    2c17:	48 85 db             	test   %rbx,%rbx
    2c1a:	74 6e                	je     2c8a <shut_down+0x1fa>
    2c1c:	48 8d 7b 48          	lea    0x48(%rbx),%rdi
    2c20:	48 c7 05 00 00 00 00 	movq   $0x0,0x0(%rip)        # 2c2b <shut_down+0x19b>
    2c27:	00 00 00 00 
    2c2b:	48 89 f8             	mov    %rdi,%rax
    2c2e:	48 c1 e8 03          	shr    $0x3,%rax
    2c32:	0f b6 80 00 80 ff 7f 	movzbl 0x7fff8000(%rax),%eax
    2c39:	84 c0                	test   %al,%al
    2c3b:	74 08                	je     2c45 <shut_down+0x1b5>
    2c3d:	3c 03                	cmp    $0x3,%al
    2c3f:	0f 8e a0 00 00 00    	jle    2ce5 <shut_down+0x255>
    2c45:	8b 7b 48             	mov    0x48(%rbx),%edi
    2c48:	83 ff ff             	cmp    $0xffffffff,%edi
    2c4b:	74 05                	je     2c52 <shut_down+0x1c2>
    2c4d:	e8 00 00 00 00       	callq  2c52 <shut_down+0x1c2>
    2c52:	48 8d 7b 4c          	lea    0x4c(%rbx),%rdi
    2c56:	48 89 f8             	mov    %rdi,%rax
    2c59:	48 c1 e8 03          	shr    $0x3,%rax
    2c5d:	0f b6 90 00 80 ff 7f 	movzbl 0x7fff8000(%rax),%edx
    2c64:	48 89 f8             	mov    %rdi,%rax
    2c67:	83 e0 07             	and    $0x7,%eax
    2c6a:	83 c0 03             	add    $0x3,%eax
    2c6d:	38 d0                	cmp    %dl,%al
    2c6f:	7c 04                	jl     2c75 <shut_down+0x1e5>
    2c71:	84 d2                	test   %dl,%dl
    2c73:	75 6b                	jne    2ce0 <shut_down+0x250>
    2c75:	8b 7b 4c             	mov    0x4c(%rbx),%edi
    2c78:	83 ff ff             	cmp    $0xffffffff,%edi
    2c7b:	74 05                	je     2c82 <shut_down+0x1f2>
    2c7d:	e8 00 00 00 00       	callq  2c82 <shut_down+0x1f2>
    2c82:	48 89 df             	mov    %rbx,%rdi
    2c85:	e8 00 00 00 00       	callq  2c8a <shut_down+0x1fa>
    2c8a:	e8 00 00 00 00       	callq  2c8f <shut_down+0x1ff>
    2c8f:	e8 00 00 00 00       	callq  2c94 <shut_down+0x204>
    2c94:	48 8b 3d 00 00 00 00 	mov    0x0(%rip),%rdi        # 2c9b <shut_down+0x20b>
    2c9b:	e8 00 00 00 00       	callq  2ca0 <shut_down+0x210>
    2ca0:	48 8b 3d 00 00 00 00 	mov    0x0(%rip),%rdi        # 2ca7 <shut_down+0x217>
    2ca7:	48 85 ff             	test   %rdi,%rdi
    2caa:	74 05                	je     2cb1 <shut_down+0x221>
    2cac:	e8 00 00 00 00       	callq  2cb1 <shut_down+0x221>
    2cb1:	48 8d 44 24 10       	lea    0x10(%rsp),%rax
    2cb6:	4c 39 e0             	cmp    %r12,%rax
    2cb9:	75 66                	jne    2d21 <shut_down+0x291>
    2cbb:	49 c7 85 00 80 ff 7f 	movq   $0x0,0x7fff8000(%r13)
    2cc2:	00 00 00 00 
    2cc6:	41 c7 85 08 80 ff 7f 	movl   $0x0,0x7fff8008(%r13)
    2ccd:	00 00 00 00 
    2cd1:	48 83 c4 78          	add    $0x78,%rsp
    2cd5:	5b                   	pop    %rbx
    2cd6:	5d                   	pop    %rbp
    2cd7:	41 5c                	pop    %r12
    2cd9:	41 5d                	pop    %r13
    2cdb:	41 5e                	pop    %r14
    2cdd:	41 5f                	pop    %r15
    2cdf:	c3                   	retq   
    2ce0:	e8 00 00 00 00       	callq  2ce5 <shut_down+0x255>
    2ce5:	e8 00 00 00 00       	callq  2cea <shut_down+0x25a>
    2cea:	e8 00 00 00 00       	callq  2cef <shut_down+0x25f>
    2cef:	4c 89 ff             	mov    %r15,%rdi
    2cf2:	e8 00 00 00 00       	callq  2cf7 <shut_down+0x267>
    2cf7:	4c 89 ff             	mov    %r15,%rdi
    2cfa:	e8 00 00 00 00       	callq  2cff <shut_down+0x26f>
    2cff:	e8 00 00 00 00       	callq  2d04 <shut_down+0x274>
    2d04:	48 89 c7             	mov    %rax,%rdi
    2d07:	e8 00 00 00 00       	callq  2d0c <shut_down+0x27c>
    2d0c:	4c 89 e6             	mov    %r12,%rsi
    2d0f:	bf 60 00 00 00       	mov    $0x60,%edi
    2d14:	e8 00 00 00 00       	callq  2d19 <shut_down+0x289>
    2d19:	49 89 c4             	mov    %rax,%r12
    2d1c:	e9 90 fd ff ff       	jmpq   2ab1 <shut_down+0x21>
    2d21:	48 b8 f5 f5 f5 f5 f5 	movabs $0xf5f5f5f5f5f5f5f5,%rax
    2d28:	f5 f5 f5 
    2d2b:	49 c7 04 24 0e 36 e0 	movq   $0x45e0360e,(%r12)
    2d32:	45 
    2d33:	41 c7 85 08 80 ff 7f 	movl   $0xf5f5f5f5,0x7fff8008(%r13)
    2d3a:	f5 f5 f5 f5 
    2d3e:	49 89 85 00 80 ff 7f 	mov    %rax,0x7fff8000(%r13)
    2d45:	eb 8a                	jmp    2cd1 <shut_down+0x241>
    2d47:	66 0f 1f 84 00 00 00 	nopw   0x0(%rax,%rax,1)
    2d4e:	00 00 

0000000000002d50 <handle_usr1>:
    2d50:	8b 15 00 00 00 00    	mov    0x0(%rip),%edx        # 2d56 <handle_usr1+0x6>
    2d56:	85 d2                	test   %edx,%edx
    2d58:	74 0b                	je     2d65 <handle_usr1+0x15>
    2d5a:	c7 05 00 00 00 00 01 	movl   $0x1,0x0(%rip)        # 2d64 <handle_usr1+0x14>
    2d61:	00 00 00 
    2d64:	c3                   	retq   
    2d65:	50                   	push   %rax
    2d66:	e8 25 fd ff ff       	callq  2a90 <shut_down>
    2d6b:	bf 05 00 00 00       	mov    $0x5,%edi
    2d70:	be 00 00 00 00       	mov    $0x0,%esi
    2d75:	31 c0                	xor    %eax,%eax
    2d77:	e8 00 00 00 00       	callq  2d7c <handle_usr1+0x2c>
    2d7c:	e8 00 00 00 00       	callq  2d81 <handle_usr1+0x31>
    2d81:	e8 00 00 00 00       	callq  2d86 <handle_usr1+0x36>
    2d86:	31 ff                	xor    %edi,%edi
    2d88:	e8 00 00 00 00       	callq  2d8d <handle_usr1+0x3d>
    2d8d:	0f 1f 00             	nopl   (%rax)

0000000000002d90 <handle_term>:
    2d90:	53                   	push   %rbx
    2d91:	89 fb                	mov    %edi,%ebx
    2d93:	e8 f8 fc ff ff       	callq  2a90 <shut_down>
    2d98:	bf 05 00 00 00       	mov    $0x5,%edi
    2d9d:	89 da                	mov    %ebx,%edx
    2d9f:	be 00 00 00 00       	mov    $0x0,%esi
    2da4:	31 c0                	xor    %eax,%eax
    2da6:	e8 00 00 00 00       	callq  2dab <handle_term+0x1b>
    2dab:	e8 00 00 00 00       	callq  2db0 <handle_term+0x20>
    2db0:	e8 00 00 00 00       	callq  2db5 <handle_term+0x25>
    2db5:	bf 01 00 00 00       	mov    $0x1,%edi
    2dba:	e8 00 00 00 00       	callq  2dbf <handle_term+0x2f>
    2dbf:	90                   	nop

0000000000002dc0 <clear_throttles.isra.0>:
    2dc0:	48 8d 57 38          	lea    0x38(%rdi),%rdx
    2dc4:	48 83 ec 08          	sub    $0x8,%rsp
    2dc8:	48 89 d0             	mov    %rdx,%rax
    2dcb:	48 c1 e8 03          	shr    $0x3,%rax
    2dcf:	0f b6 80 00 80 ff 7f 	movzbl 0x7fff8000(%rax),%eax
    2dd6:	84 c0                	test   %al,%al
    2dd8:	74 04                	je     2dde <clear_throttles.isra.0+0x1e>
    2dda:	3c 03                	cmp    $0x3,%al
    2ddc:	7e 7c                	jle    2e5a <clear_throttles.isra.0+0x9a>
    2dde:	8b 47 38             	mov    0x38(%rdi),%eax
    2de1:	85 c0                	test   %eax,%eax
    2de3:	7e 70                	jle    2e55 <clear_throttles.isra.0+0x95>
    2de5:	83 e8 01             	sub    $0x1,%eax
    2de8:	4c 8b 05 00 00 00 00 	mov    0x0(%rip),%r8        # 2def <clear_throttles.isra.0+0x2f>
    2def:	48 8d 57 10          	lea    0x10(%rdi),%rdx
    2df3:	48 8d 74 87 14       	lea    0x14(%rdi,%rax,4),%rsi
    2df8:	0f 1f 84 00 00 00 00 	nopl   0x0(%rax,%rax,1)
    2dff:	00 
    2e00:	48 89 d0             	mov    %rdx,%rax
    2e03:	48 c1 e8 03          	shr    $0x3,%rax
    2e07:	0f b6 88 00 80 ff 7f 	movzbl 0x7fff8000(%rax),%ecx
    2e0e:	48 89 d0             	mov    %rdx,%rax
    2e11:	83 e0 07             	and    $0x7,%eax
    2e14:	83 c0 03             	add    $0x3,%eax
    2e17:	38 c8                	cmp    %cl,%al
    2e19:	7c 04                	jl     2e1f <clear_throttles.isra.0+0x5f>
    2e1b:	84 c9                	test   %cl,%cl
    2e1d:	75 48                	jne    2e67 <clear_throttles.isra.0+0xa7>
    2e1f:	48 63 02             	movslq (%rdx),%rax
    2e22:	48 8d 04 40          	lea    (%rax,%rax,2),%rax
    2e26:	48 c1 e0 04          	shl    $0x4,%rax
    2e2a:	4c 01 c0             	add    %r8,%rax
    2e2d:	48 8d 78 28          	lea    0x28(%rax),%rdi
    2e31:	48 89 f9             	mov    %rdi,%rcx
    2e34:	48 c1 e9 03          	shr    $0x3,%rcx
    2e38:	0f b6 89 00 80 ff 7f 	movzbl 0x7fff8000(%rcx),%ecx
    2e3f:	84 c9                	test   %cl,%cl
    2e41:	74 05                	je     2e48 <clear_throttles.isra.0+0x88>
    2e43:	80 f9 03             	cmp    $0x3,%cl
    2e46:	7e 1a                	jle    2e62 <clear_throttles.isra.0+0xa2>
    2e48:	48 83 c2 04          	add    $0x4,%rdx
    2e4c:	83 68 28 01          	subl   $0x1,0x28(%rax)
    2e50:	48 39 f2             	cmp    %rsi,%rdx
    2e53:	75 ab                	jne    2e00 <clear_throttles.isra.0+0x40>
    2e55:	48 83 c4 08          	add    $0x8,%rsp
    2e59:	c3                   	retq   
    2e5a:	48 89 d7             	mov    %rdx,%rdi
    2e5d:	e8 00 00 00 00       	callq  2e62 <clear_throttles.isra.0+0xa2>
    2e62:	e8 00 00 00 00       	callq  2e67 <clear_throttles.isra.0+0xa7>
    2e67:	48 89 d7             	mov    %rdx,%rdi
    2e6a:	e8 00 00 00 00       	callq  2e6f <clear_throttles.isra.0+0xaf>
    2e6f:	90                   	nop

0000000000002e70 <really_clear_connection>:
    2e70:	41 54                	push   %r12
    2e72:	55                   	push   %rbp
    2e73:	48 8d 6f 08          	lea    0x8(%rdi),%rbp
    2e77:	53                   	push   %rbx
    2e78:	48 89 e8             	mov    %rbp,%rax
    2e7b:	48 c1 e8 03          	shr    $0x3,%rax
    2e7f:	48 83 ec 10          	sub    $0x10,%rsp
    2e83:	80 b8 00 80 ff 7f 00 	cmpb   $0x0,0x7fff8000(%rax)
    2e8a:	0f 85 81 01 00 00    	jne    3011 <really_clear_connection+0x1a1>
    2e90:	48 89 fb             	mov    %rdi,%rbx
    2e93:	48 8b 7f 08          	mov    0x8(%rdi),%rdi
    2e97:	48 8d 87 c8 00 00 00 	lea    0xc8(%rdi),%rax
    2e9e:	48 89 c2             	mov    %rax,%rdx
    2ea1:	48 c1 ea 03          	shr    $0x3,%rdx
    2ea5:	80 ba 00 80 ff 7f 00 	cmpb   $0x0,0x7fff8000(%rdx)
    2eac:	0f 85 77 01 00 00    	jne    3029 <really_clear_connection+0x1b9>
    2eb2:	48 8b 87 c8 00 00 00 	mov    0xc8(%rdi),%rax
    2eb9:	48 01 05 00 00 00 00 	add    %rax,0x0(%rip)        # 2ec0 <really_clear_connection+0x50>
    2ec0:	48 89 d8             	mov    %rbx,%rax
    2ec3:	48 c1 e8 03          	shr    $0x3,%rax
    2ec7:	0f b6 80 00 80 ff 7f 	movzbl 0x7fff8000(%rax),%eax
    2ece:	84 c0                	test   %al,%al
    2ed0:	74 08                	je     2eda <really_clear_connection+0x6a>
    2ed2:	3c 03                	cmp    $0x3,%al
    2ed4:	0f 8e 12 01 00 00    	jle    2fec <really_clear_connection+0x17c>
    2eda:	83 3b 03             	cmpl   $0x3,(%rbx)
    2edd:	74 4e                	je     2f2d <really_clear_connection+0xbd>
    2edf:	48 8d 97 c0 02 00 00 	lea    0x2c0(%rdi),%rdx
    2ee6:	48 89 d0             	mov    %rdx,%rax
    2ee9:	48 c1 e8 03          	shr    $0x3,%rax
    2eed:	0f b6 80 00 80 ff 7f 	movzbl 0x7fff8000(%rax),%eax
    2ef4:	84 c0                	test   %al,%al
    2ef6:	74 08                	je     2f00 <really_clear_connection+0x90>
    2ef8:	3c 03                	cmp    $0x3,%al
    2efa:	0f 8e 01 01 00 00    	jle    3001 <really_clear_connection+0x191>
    2f00:	8b bf c0 02 00 00    	mov    0x2c0(%rdi),%edi
    2f06:	48 89 74 24 08       	mov    %rsi,0x8(%rsp)
    2f0b:	e8 00 00 00 00       	callq  2f10 <really_clear_connection+0xa0>
    2f10:	48 89 e8             	mov    %rbp,%rax
    2f13:	48 8b 74 24 08       	mov    0x8(%rsp),%rsi
    2f18:	48 c1 e8 03          	shr    $0x3,%rax
    2f1c:	80 b8 00 80 ff 7f 00 	cmpb   $0x0,0x7fff8000(%rax)
    2f23:	0f 85 e0 00 00 00    	jne    3009 <really_clear_connection+0x199>
    2f29:	48 8b 7b 08          	mov    0x8(%rbx),%rdi
    2f2d:	4c 8d 63 68          	lea    0x68(%rbx),%r12
    2f31:	e8 00 00 00 00       	callq  2f36 <really_clear_connection+0xc6>
    2f36:	4c 89 e5             	mov    %r12,%rbp
    2f39:	48 89 df             	mov    %rbx,%rdi
    2f3c:	48 c1 ed 03          	shr    $0x3,%rbp
    2f40:	e8 7b fe ff ff       	callq  2dc0 <clear_throttles.isra.0>
    2f45:	80 bd 00 80 ff 7f 00 	cmpb   $0x0,0x7fff8000(%rbp)
    2f4c:	0f 85 c7 00 00 00    	jne    3019 <really_clear_connection+0x1a9>
    2f52:	48 8b 7b 68          	mov    0x68(%rbx),%rdi
    2f56:	48 85 ff             	test   %rdi,%rdi
    2f59:	74 1a                	je     2f75 <really_clear_connection+0x105>
    2f5b:	e8 00 00 00 00       	callq  2f60 <really_clear_connection+0xf0>
    2f60:	80 bd 00 80 ff 7f 00 	cmpb   $0x0,0x7fff8000(%rbp)
    2f67:	0f 85 b4 00 00 00    	jne    3021 <really_clear_connection+0x1b1>
    2f6d:	48 c7 43 68 00 00 00 	movq   $0x0,0x68(%rbx)
    2f74:	00 
    2f75:	48 89 d8             	mov    %rbx,%rax
    2f78:	48 c1 e8 03          	shr    $0x3,%rax
    2f7c:	0f b6 80 00 80 ff 7f 	movzbl 0x7fff8000(%rax),%eax
    2f83:	84 c0                	test   %al,%al
    2f85:	74 04                	je     2f8b <really_clear_connection+0x11b>
    2f87:	3c 03                	cmp    $0x3,%al
    2f89:	7e 6e                	jle    2ff9 <really_clear_connection+0x189>
    2f8b:	48 8d 7b 04          	lea    0x4(%rbx),%rdi
    2f8f:	c7 03 00 00 00 00    	movl   $0x0,(%rbx)
    2f95:	8b 0d 00 00 00 00    	mov    0x0(%rip),%ecx        # 2f9b <really_clear_connection+0x12b>
    2f9b:	48 89 f8             	mov    %rdi,%rax
    2f9e:	48 c1 e8 03          	shr    $0x3,%rax
    2fa2:	0f b6 90 00 80 ff 7f 	movzbl 0x7fff8000(%rax),%edx
    2fa9:	48 89 f8             	mov    %rdi,%rax
    2fac:	83 e0 07             	and    $0x7,%eax
    2faf:	83 c0 03             	add    $0x3,%eax
    2fb2:	38 d0                	cmp    %dl,%al
    2fb4:	7c 04                	jl     2fba <really_clear_connection+0x14a>
    2fb6:	84 d2                	test   %dl,%dl
    2fb8:	75 3a                	jne    2ff4 <really_clear_connection+0x184>
    2fba:	89 4b 04             	mov    %ecx,0x4(%rbx)
    2fbd:	48 2b 1d 00 00 00 00 	sub    0x0(%rip),%rbx        # 2fc4 <really_clear_connection+0x154>
    2fc4:	48 b8 39 8e e3 38 8e 	movabs $0x8e38e38e38e38e39,%rax
    2fcb:	e3 38 8e 
    2fce:	83 2d 00 00 00 00 01 	subl   $0x1,0x0(%rip)        # 2fd5 <really_clear_connection+0x165>
    2fd5:	48 c1 fb 04          	sar    $0x4,%rbx
    2fd9:	48 0f af d8          	imul   %rax,%rbx
    2fdd:	89 1d 00 00 00 00    	mov    %ebx,0x0(%rip)        # 2fe3 <really_clear_connection+0x173>
    2fe3:	48 83 c4 10          	add    $0x10,%rsp
    2fe7:	5b                   	pop    %rbx
    2fe8:	5d                   	pop    %rbp
    2fe9:	41 5c                	pop    %r12
    2feb:	c3                   	retq   
    2fec:	48 89 df             	mov    %rbx,%rdi
    2fef:	e8 00 00 00 00       	callq  2ff4 <really_clear_connection+0x184>
    2ff4:	e8 00 00 00 00       	callq  2ff9 <really_clear_connection+0x189>
    2ff9:	48 89 df             	mov    %rbx,%rdi
    2ffc:	e8 00 00 00 00       	callq  3001 <really_clear_connection+0x191>
    3001:	48 89 d7             	mov    %rdx,%rdi
    3004:	e8 00 00 00 00       	callq  3009 <really_clear_connection+0x199>
    3009:	48 89 ef             	mov    %rbp,%rdi
    300c:	e8 00 00 00 00       	callq  3011 <really_clear_connection+0x1a1>
    3011:	48 89 ef             	mov    %rbp,%rdi
    3014:	e8 00 00 00 00       	callq  3019 <really_clear_connection+0x1a9>
    3019:	4c 89 e7             	mov    %r12,%rdi
    301c:	e8 00 00 00 00       	callq  3021 <really_clear_connection+0x1b1>
    3021:	4c 89 e7             	mov    %r12,%rdi
    3024:	e8 00 00 00 00       	callq  3029 <really_clear_connection+0x1b9>
    3029:	48 89 c7             	mov    %rax,%rdi
    302c:	e8 00 00 00 00       	callq  3031 <really_clear_connection+0x1c1>
    3031:	66 66 66 66 66 66 2e 	data32 data32 data32 data32 data32 nopw %cs:0x0(%rax,%rax,1)
    3038:	0f 1f 84 00 00 00 00 
    303f:	00 

0000000000003040 <clear_connection>:
    3040:	41 55                	push   %r13
    3042:	4c 8d 6f 60          	lea    0x60(%rdi),%r13
    3046:	41 54                	push   %r12
    3048:	55                   	push   %rbp
    3049:	53                   	push   %rbx
    304a:	4c 89 ed             	mov    %r13,%rbp
    304d:	48 c1 ed 03          	shr    $0x3,%rbp
    3051:	48 83 ec 08          	sub    $0x8,%rsp
    3055:	80 bd 00 80 ff 7f 00 	cmpb   $0x0,0x7fff8000(%rbp)
    305c:	0f 85 e7 02 00 00    	jne    3349 <clear_connection+0x309>
    3062:	48 89 fb             	mov    %rdi,%rbx
    3065:	48 8b 7f 60          	mov    0x60(%rdi),%rdi
    3069:	49 89 f4             	mov    %rsi,%r12
    306c:	48 85 ff             	test   %rdi,%rdi
    306f:	74 1a                	je     308b <clear_connection+0x4b>
    3071:	e8 00 00 00 00       	callq  3076 <clear_connection+0x36>
    3076:	80 bd 00 80 ff 7f 00 	cmpb   $0x0,0x7fff8000(%rbp)
    307d:	0f 85 08 03 00 00    	jne    338b <clear_connection+0x34b>
    3083:	48 c7 43 60 00 00 00 	movq   $0x0,0x60(%rbx)
    308a:	00 
    308b:	48 89 d8             	mov    %rbx,%rax
    308e:	48 c1 e8 03          	shr    $0x3,%rax
    3092:	0f b6 80 00 80 ff 7f 	movzbl 0x7fff8000(%rax),%eax
    3099:	84 c0                	test   %al,%al
    309b:	74 08                	je     30a5 <clear_connection+0x65>
    309d:	3c 03                	cmp    $0x3,%al
    309f:	0f 8e 5a 02 00 00    	jle    32ff <clear_connection+0x2bf>
    30a5:	8b 0b                	mov    (%rbx),%ecx
    30a7:	83 f9 04             	cmp    $0x4,%ecx
    30aa:	0f 84 b8 01 00 00    	je     3268 <clear_connection+0x228>
    30b0:	48 8d 6b 08          	lea    0x8(%rbx),%rbp
    30b4:	48 89 e8             	mov    %rbp,%rax
    30b7:	48 c1 e8 03          	shr    $0x3,%rax
    30bb:	80 b8 00 80 ff 7f 00 	cmpb   $0x0,0x7fff8000(%rax)
    30c2:	0f 85 ab 02 00 00    	jne    3373 <clear_connection+0x333>
    30c8:	48 8b 43 08          	mov    0x8(%rbx),%rax
    30cc:	48 8d b8 2c 02 00 00 	lea    0x22c(%rax),%rdi
    30d3:	48 89 fa             	mov    %rdi,%rdx
    30d6:	48 c1 ea 03          	shr    $0x3,%rdx
    30da:	0f b6 b2 00 80 ff 7f 	movzbl 0x7fff8000(%rdx),%esi
    30e1:	48 89 fa             	mov    %rdi,%rdx
    30e4:	83 e2 07             	and    $0x7,%edx
    30e7:	83 c2 03             	add    $0x3,%edx
    30ea:	40 38 f2             	cmp    %sil,%dl
    30ed:	7c 09                	jl     30f8 <clear_connection+0xb8>
    30ef:	40 84 f6             	test   %sil,%sil
    30f2:	0f 85 21 02 00 00    	jne    3319 <clear_connection+0x2d9>
    30f8:	8b 90 2c 02 00 00    	mov    0x22c(%rax),%edx
    30fe:	85 d2                	test   %edx,%edx
    3100:	0f 84 e4 01 00 00    	je     32ea <clear_connection+0x2aa>
    3106:	83 f9 03             	cmp    $0x3,%ecx
    3109:	74 45                	je     3150 <clear_connection+0x110>
    310b:	48 8d b8 c0 02 00 00 	lea    0x2c0(%rax),%rdi
    3112:	48 89 fa             	mov    %rdi,%rdx
    3115:	48 c1 ea 03          	shr    $0x3,%rdx
    3119:	0f b6 92 00 80 ff 7f 	movzbl 0x7fff8000(%rdx),%edx
    3120:	84 d2                	test   %dl,%dl
    3122:	74 09                	je     312d <clear_connection+0xed>
    3124:	80 fa 03             	cmp    $0x3,%dl
    3127:	0f 8e f1 01 00 00    	jle    331e <clear_connection+0x2de>
    312d:	8b b8 c0 02 00 00    	mov    0x2c0(%rax),%edi
    3133:	e8 00 00 00 00       	callq  3138 <clear_connection+0xf8>
    3138:	48 89 e8             	mov    %rbp,%rax
    313b:	48 c1 e8 03          	shr    $0x3,%rax
    313f:	80 b8 00 80 ff 7f 00 	cmpb   $0x0,0x7fff8000(%rax)
    3146:	0f 85 05 02 00 00    	jne    3351 <clear_connection+0x311>
    314c:	48 8b 43 08          	mov    0x8(%rbx),%rax
    3150:	48 89 da             	mov    %rbx,%rdx
    3153:	48 c1 ea 03          	shr    $0x3,%rdx
    3157:	0f b6 92 00 80 ff 7f 	movzbl 0x7fff8000(%rdx),%edx
    315e:	84 d2                	test   %dl,%dl
    3160:	74 09                	je     316b <clear_connection+0x12b>
    3162:	80 fa 03             	cmp    $0x3,%dl
    3165:	0f 8e a6 01 00 00    	jle    3311 <clear_connection+0x2d1>
    316b:	48 8d b8 c0 02 00 00 	lea    0x2c0(%rax),%rdi
    3172:	c7 03 04 00 00 00    	movl   $0x4,(%rbx)
    3178:	48 89 fa             	mov    %rdi,%rdx
    317b:	48 c1 ea 03          	shr    $0x3,%rdx
    317f:	0f b6 92 00 80 ff 7f 	movzbl 0x7fff8000(%rdx),%edx
    3186:	84 d2                	test   %dl,%dl
    3188:	74 09                	je     3193 <clear_connection+0x153>
    318a:	80 fa 03             	cmp    $0x3,%dl
    318d:	0f 8e 79 01 00 00    	jle    330c <clear_connection+0x2cc>
    3193:	8b b8 c0 02 00 00    	mov    0x2c0(%rax),%edi
    3199:	be 01 00 00 00       	mov    $0x1,%esi
    319e:	e8 00 00 00 00       	callq  31a3 <clear_connection+0x163>
    31a3:	48 89 e8             	mov    %rbp,%rax
    31a6:	48 c1 e8 03          	shr    $0x3,%rax
    31aa:	80 b8 00 80 ff 7f 00 	cmpb   $0x0,0x7fff8000(%rax)
    31b1:	0f 85 c4 01 00 00    	jne    337b <clear_connection+0x33b>
    31b7:	48 8b 43 08          	mov    0x8(%rbx),%rax
    31bb:	48 8d b8 c0 02 00 00 	lea    0x2c0(%rax),%rdi
    31c2:	48 89 fa             	mov    %rdi,%rdx
    31c5:	48 c1 ea 03          	shr    $0x3,%rdx
    31c9:	0f b6 92 00 80 ff 7f 	movzbl 0x7fff8000(%rdx),%edx
    31d0:	84 d2                	test   %dl,%dl
    31d2:	74 09                	je     31dd <clear_connection+0x19d>
    31d4:	80 fa 03             	cmp    $0x3,%dl
    31d7:	0f 8e 2a 01 00 00    	jle    3307 <clear_connection+0x2c7>
    31dd:	8b b8 c0 02 00 00    	mov    0x2c0(%rax),%edi
    31e3:	48 8d 6b 68          	lea    0x68(%rbx),%rbp
    31e7:	31 d2                	xor    %edx,%edx
    31e9:	48 89 de             	mov    %rbx,%rsi
    31ec:	e8 00 00 00 00       	callq  31f1 <clear_connection+0x1b1>
    31f1:	48 89 e8             	mov    %rbp,%rax
    31f4:	48 c1 e8 03          	shr    $0x3,%rax
    31f8:	80 b8 00 80 ff 7f 00 	cmpb   $0x0,0x7fff8000(%rax)
    31ff:	0f 85 3c 01 00 00    	jne    3341 <clear_connection+0x301>
    3205:	48 83 7b 68 00       	cmpq   $0x0,0x68(%rbx)
    320a:	74 11                	je     321d <clear_connection+0x1dd>
    320c:	be 00 00 00 00       	mov    $0x0,%esi
    3211:	bf 03 00 00 00       	mov    $0x3,%edi
    3216:	31 c0                	xor    %eax,%eax
    3218:	e8 00 00 00 00       	callq  321d <clear_connection+0x1dd>
    321d:	45 31 c0             	xor    %r8d,%r8d
    3220:	48 89 da             	mov    %rbx,%rdx
    3223:	b9 f4 01 00 00       	mov    $0x1f4,%ecx
    3228:	be 00 00 00 00       	mov    $0x0,%esi
    322d:	4c 89 e7             	mov    %r12,%rdi
    3230:	e8 00 00 00 00       	callq  3235 <clear_connection+0x1f5>
    3235:	48 89 ea             	mov    %rbp,%rdx
    3238:	48 c1 ea 03          	shr    $0x3,%rdx
    323c:	80 ba 00 80 ff 7f 00 	cmpb   $0x0,0x7fff8000(%rdx)
    3243:	0f 85 3a 01 00 00    	jne    3383 <clear_connection+0x343>
    3249:	48 85 c0             	test   %rax,%rax
    324c:	48 89 43 68          	mov    %rax,0x68(%rbx)
    3250:	0f 84 cd 00 00 00    	je     3323 <clear_connection+0x2e3>
    3256:	48 83 c4 08          	add    $0x8,%rsp
    325a:	5b                   	pop    %rbx
    325b:	5d                   	pop    %rbp
    325c:	41 5c                	pop    %r12
    325e:	41 5d                	pop    %r13
    3260:	c3                   	retq   
    3261:	0f 1f 80 00 00 00 00 	nopl   0x0(%rax)
    3268:	4c 8d 6b 68          	lea    0x68(%rbx),%r13
    326c:	4c 89 ed             	mov    %r13,%rbp
    326f:	48 c1 ed 03          	shr    $0x3,%rbp
    3273:	80 bd 00 80 ff 7f 00 	cmpb   $0x0,0x7fff8000(%rbp)
    327a:	0f 85 eb 00 00 00    	jne    336b <clear_connection+0x32b>
    3280:	48 8b 7b 68          	mov    0x68(%rbx),%rdi
    3284:	e8 00 00 00 00       	callq  3289 <clear_connection+0x249>
    3289:	80 bd 00 80 ff 7f 00 	cmpb   $0x0,0x7fff8000(%rbp)
    3290:	0f 85 cd 00 00 00    	jne    3363 <clear_connection+0x323>
    3296:	48 8d 7b 08          	lea    0x8(%rbx),%rdi
    329a:	48 c7 43 68 00 00 00 	movq   $0x0,0x68(%rbx)
    32a1:	00 
    32a2:	48 89 f8             	mov    %rdi,%rax
    32a5:	48 c1 e8 03          	shr    $0x3,%rax
    32a9:	80 b8 00 80 ff 7f 00 	cmpb   $0x0,0x7fff8000(%rax)
    32b0:	0f 85 a8 00 00 00    	jne    335e <clear_connection+0x31e>
    32b6:	48 8b 53 08          	mov    0x8(%rbx),%rdx
    32ba:	48 8d ba 2c 02 00 00 	lea    0x22c(%rdx),%rdi
    32c1:	48 89 f8             	mov    %rdi,%rax
    32c4:	48 c1 e8 03          	shr    $0x3,%rax
    32c8:	0f b6 88 00 80 ff 7f 	movzbl 0x7fff8000(%rax),%ecx
    32cf:	48 89 f8             	mov    %rdi,%rax
    32d2:	83 e0 07             	and    $0x7,%eax
    32d5:	83 c0 03             	add    $0x3,%eax
    32d8:	38 c8                	cmp    %cl,%al
    32da:	7c 04                	jl     32e0 <clear_connection+0x2a0>
    32dc:	84 c9                	test   %cl,%cl
    32de:	75 79                	jne    3359 <clear_connection+0x319>
    32e0:	c7 82 2c 02 00 00 00 	movl   $0x0,0x22c(%rdx)
    32e7:	00 00 00 
    32ea:	48 83 c4 08          	add    $0x8,%rsp
    32ee:	4c 89 e6             	mov    %r12,%rsi
    32f1:	48 89 df             	mov    %rbx,%rdi
    32f4:	5b                   	pop    %rbx
    32f5:	5d                   	pop    %rbp
    32f6:	41 5c                	pop    %r12
    32f8:	41 5d                	pop    %r13
    32fa:	e9 71 fb ff ff       	jmpq   2e70 <really_clear_connection>
    32ff:	48 89 df             	mov    %rbx,%rdi
    3302:	e8 00 00 00 00       	callq  3307 <clear_connection+0x2c7>
    3307:	e8 00 00 00 00       	callq  330c <clear_connection+0x2cc>
    330c:	e8 00 00 00 00       	callq  3311 <clear_connection+0x2d1>
    3311:	48 89 df             	mov    %rbx,%rdi
    3314:	e8 00 00 00 00       	callq  3319 <clear_connection+0x2d9>
    3319:	e8 00 00 00 00       	callq  331e <clear_connection+0x2de>
    331e:	e8 00 00 00 00       	callq  3323 <clear_connection+0x2e3>
    3323:	bf 02 00 00 00       	mov    $0x2,%edi
    3328:	be 00 00 00 00       	mov    $0x0,%esi
    332d:	e8 00 00 00 00       	callq  3332 <clear_connection+0x2f2>
    3332:	e8 00 00 00 00       	callq  3337 <clear_connection+0x2f7>
    3337:	bf 01 00 00 00       	mov    $0x1,%edi
    333c:	e8 00 00 00 00       	callq  3341 <clear_connection+0x301>
    3341:	48 89 ef             	mov    %rbp,%rdi
    3344:	e8 00 00 00 00       	callq  3349 <clear_connection+0x309>
    3349:	4c 89 ef             	mov    %r13,%rdi
    334c:	e8 00 00 00 00       	callq  3351 <clear_connection+0x311>
    3351:	48 89 ef             	mov    %rbp,%rdi
    3354:	e8 00 00 00 00       	callq  3359 <clear_connection+0x319>
    3359:	e8 00 00 00 00       	callq  335e <clear_connection+0x31e>
    335e:	e8 00 00 00 00       	callq  3363 <clear_connection+0x323>
    3363:	4c 89 ef             	mov    %r13,%rdi
    3366:	e8 00 00 00 00       	callq  336b <clear_connection+0x32b>
    336b:	4c 89 ef             	mov    %r13,%rdi
    336e:	e8 00 00 00 00       	callq  3373 <clear_connection+0x333>
    3373:	48 89 ef             	mov    %rbp,%rdi
    3376:	e8 00 00 00 00       	callq  337b <clear_connection+0x33b>
    337b:	48 89 ef             	mov    %rbp,%rdi
    337e:	e8 00 00 00 00       	callq  3383 <clear_connection+0x343>
    3383:	48 89 ef             	mov    %rbp,%rdi
    3386:	e8 00 00 00 00       	callq  338b <clear_connection+0x34b>
    338b:	4c 89 ef             	mov    %r13,%rdi
    338e:	e8 00 00 00 00       	callq  3393 <clear_connection+0x353>
    3393:	66 66 66 66 2e 0f 1f 	data32 data32 data32 nopw %cs:0x0(%rax,%rax,1)
    339a:	84 00 00 00 00 00 

00000000000033a0 <finish_connection>:
    33a0:	55                   	push   %rbp
    33a1:	53                   	push   %rbx
    33a2:	48 89 fb             	mov    %rdi,%rbx
    33a5:	48 83 c7 08          	add    $0x8,%rdi
    33a9:	48 89 f8             	mov    %rdi,%rax
    33ac:	48 83 ec 08          	sub    $0x8,%rsp
    33b0:	48 c1 e8 03          	shr    $0x3,%rax
    33b4:	80 b8 00 80 ff 7f 00 	cmpb   $0x0,0x7fff8000(%rax)
    33bb:	75 1d                	jne    33da <finish_connection+0x3a>
    33bd:	48 8b 7b 08          	mov    0x8(%rbx),%rdi
    33c1:	48 89 f5             	mov    %rsi,%rbp
    33c4:	e8 00 00 00 00       	callq  33c9 <finish_connection+0x29>
    33c9:	48 83 c4 08          	add    $0x8,%rsp
    33cd:	48 89 ee             	mov    %rbp,%rsi
    33d0:	48 89 df             	mov    %rbx,%rdi
    33d3:	5b                   	pop    %rbx
    33d4:	5d                   	pop    %rbp
    33d5:	e9 66 fc ff ff       	jmpq   3040 <clear_connection>
    33da:	e8 00 00 00 00       	callq  33df <finish_connection+0x3f>
    33df:	90                   	nop

00000000000033e0 <handle_read>:
    33e0:	41 57                	push   %r15
    33e2:	41 56                	push   %r14
    33e4:	41 55                	push   %r13
    33e6:	41 54                	push   %r12
    33e8:	55                   	push   %rbp
    33e9:	48 89 fd             	mov    %rdi,%rbp
    33ec:	48 83 c7 08          	add    $0x8,%rdi
    33f0:	53                   	push   %rbx
    33f1:	48 89 f8             	mov    %rdi,%rax
    33f4:	48 c1 e8 03          	shr    $0x3,%rax
    33f8:	48 83 ec 18          	sub    $0x18,%rsp
    33fc:	80 b8 00 80 ff 7f 00 	cmpb   $0x0,0x7fff8000(%rax)
    3403:	0f 85 7e 07 00 00    	jne    3b87 <handle_read+0x7a7>
    3409:	48 8b 5d 08          	mov    0x8(%rbp),%rbx
    340d:	4c 8d ab a0 00 00 00 	lea    0xa0(%rbx),%r13
    3414:	4d 89 ef             	mov    %r13,%r15
    3417:	49 c1 ef 03          	shr    $0x3,%r15
    341b:	41 80 bf 00 80 ff 7f 	cmpb   $0x0,0x7fff8000(%r15)
    3422:	00 
    3423:	0f 85 56 07 00 00    	jne    3b7f <handle_read+0x79f>
    3429:	4c 8d b3 98 00 00 00 	lea    0x98(%rbx),%r14
    3430:	49 89 f4             	mov    %rsi,%r12
    3433:	48 8b b3 a0 00 00 00 	mov    0xa0(%rbx),%rsi
    343a:	4c 89 f0             	mov    %r14,%rax
    343d:	48 c1 e8 03          	shr    $0x3,%rax
    3441:	80 b8 00 80 ff 7f 00 	cmpb   $0x0,0x7fff8000(%rax)
    3448:	0f 85 7a 07 00 00    	jne    3bc8 <handle_read+0x7e8>
    344e:	48 8b 93 98 00 00 00 	mov    0x98(%rbx),%rdx
    3455:	48 8d 8b 90 00 00 00 	lea    0x90(%rbx),%rcx
    345c:	48 39 d6             	cmp    %rdx,%rsi
    345f:	0f 82 cf 00 00 00    	jb     3534 <handle_read+0x154>
    3465:	48 81 fa 88 13 00 00 	cmp    $0x1388,%rdx
    346c:	76 72                	jbe    34e0 <handle_read+0x100>
    346e:	b8 00 00 00 00       	mov    $0x0,%eax
    3473:	48 c1 e8 03          	shr    $0x3,%rax
    3477:	80 b8 00 80 ff 7f 00 	cmpb   $0x0,0x7fff8000(%rax)
    347e:	0f 85 28 07 00 00    	jne    3bac <handle_read+0x7cc>
    3484:	b8 00 00 00 00       	mov    $0x0,%eax
    3489:	4c 8b 05 00 00 00 00 	mov    0x0(%rip),%r8        # 3490 <handle_read+0xb0>
    3490:	48 c1 e8 03          	shr    $0x3,%rax
    3494:	80 b8 00 80 ff 7f 00 	cmpb   $0x0,0x7fff8000(%rax)
    349b:	0f 85 15 07 00 00    	jne    3bb6 <handle_read+0x7d6>
    34a1:	48 8b 15 00 00 00 00 	mov    0x0(%rip),%rdx        # 34a8 <handle_read+0xc8>
    34a8:	41 b9 00 00 00 00    	mov    $0x0,%r9d
    34ae:	be 90 01 00 00       	mov    $0x190,%esi
    34b3:	4c 89 c9             	mov    %r9,%rcx
    34b6:	48 89 df             	mov    %rbx,%rdi
    34b9:	e8 00 00 00 00       	callq  34be <handle_read+0xde>
    34be:	48 83 c4 18          	add    $0x18,%rsp
    34c2:	4c 89 e6             	mov    %r12,%rsi
    34c5:	48 89 ef             	mov    %rbp,%rdi
    34c8:	5b                   	pop    %rbx
    34c9:	5d                   	pop    %rbp
    34ca:	41 5c                	pop    %r12
    34cc:	41 5d                	pop    %r13
    34ce:	41 5e                	pop    %r14
    34d0:	41 5f                	pop    %r15
    34d2:	e9 c9 fe ff ff       	jmpq   33a0 <finish_connection>
    34d7:	66 0f 1f 84 00 00 00 	nopw   0x0(%rax,%rax,1)
    34de:	00 00 
    34e0:	48 8d 8b 90 00 00 00 	lea    0x90(%rbx),%rcx
    34e7:	48 81 c2 e8 03 00 00 	add    $0x3e8,%rdx
    34ee:	4c 89 f6             	mov    %r14,%rsi
    34f1:	48 89 44 24 08       	mov    %rax,0x8(%rsp)
    34f6:	48 89 cf             	mov    %rcx,%rdi
    34f9:	48 89 0c 24          	mov    %rcx,(%rsp)
    34fd:	e8 00 00 00 00       	callq  3502 <handle_read+0x122>
    3502:	48 8b 44 24 08       	mov    0x8(%rsp),%rax
    3507:	48 8b 0c 24          	mov    (%rsp),%rcx
    350b:	80 b8 00 80 ff 7f 00 	cmpb   $0x0,0x7fff8000(%rax)
    3512:	0f 85 84 06 00 00    	jne    3b9c <handle_read+0x7bc>
    3518:	41 80 bf 00 80 ff 7f 	cmpb   $0x0,0x7fff8000(%r15)
    351f:	00 
    3520:	48 8b 93 98 00 00 00 	mov    0x98(%rbx),%rdx
    3527:	0f 85 77 06 00 00    	jne    3ba4 <handle_read+0x7c4>
    352d:	48 8b b3 a0 00 00 00 	mov    0xa0(%rbx),%rsi
    3534:	48 89 c8             	mov    %rcx,%rax
    3537:	48 29 f2             	sub    %rsi,%rdx
    353a:	48 c1 e8 03          	shr    $0x3,%rax
    353e:	80 b8 00 80 ff 7f 00 	cmpb   $0x0,0x7fff8000(%rax)
    3545:	0f 85 75 06 00 00    	jne    3bc0 <handle_read+0x7e0>
    354b:	4c 8d b3 c0 02 00 00 	lea    0x2c0(%rbx),%r14
    3552:	48 03 b3 90 00 00 00 	add    0x90(%rbx),%rsi
    3559:	4c 89 f0             	mov    %r14,%rax
    355c:	48 c1 e8 03          	shr    $0x3,%rax
    3560:	0f b6 80 00 80 ff 7f 	movzbl 0x7fff8000(%rax),%eax
    3567:	84 c0                	test   %al,%al
    3569:	74 08                	je     3573 <handle_read+0x193>
    356b:	3c 03                	cmp    $0x3,%al
    356d:	0f 8e 30 04 00 00    	jle    39a3 <handle_read+0x5c3>
    3573:	8b bb c0 02 00 00    	mov    0x2c0(%rbx),%edi
    3579:	e8 00 00 00 00       	callq  357e <handle_read+0x19e>
    357e:	85 c0                	test   %eax,%eax
    3580:	0f 84 ea 00 00 00    	je     3670 <handle_read+0x290>
    3586:	0f 88 a4 00 00 00    	js     3630 <handle_read+0x250>
    358c:	4c 89 ea             	mov    %r13,%rdx
    358f:	48 c1 ea 03          	shr    $0x3,%rdx
    3593:	80 ba 00 80 ff 7f 00 	cmpb   $0x0,0x7fff8000(%rdx)
    359a:	0f 85 ec 05 00 00    	jne    3b8c <handle_read+0x7ac>
    35a0:	48 98                	cltq   
    35a2:	48 01 83 a0 00 00 00 	add    %rax,0xa0(%rbx)
    35a9:	4c 89 e0             	mov    %r12,%rax
    35ac:	48 c1 e8 03          	shr    $0x3,%rax
    35b0:	80 b8 00 80 ff 7f 00 	cmpb   $0x0,0x7fff8000(%rax)
    35b7:	0f 85 d7 05 00 00    	jne    3b94 <handle_read+0x7b4>
    35bd:	48 8d 7d 58          	lea    0x58(%rbp),%rdi
    35c1:	49 8b 04 24          	mov    (%r12),%rax
    35c5:	48 89 fa             	mov    %rdi,%rdx
    35c8:	48 c1 ea 03          	shr    $0x3,%rdx
    35cc:	80 ba 00 80 ff 7f 00 	cmpb   $0x0,0x7fff8000(%rdx)
    35d3:	0f 85 f7 05 00 00    	jne    3bd0 <handle_read+0x7f0>
    35d9:	48 89 45 58          	mov    %rax,0x58(%rbp)
    35dd:	48 89 df             	mov    %rbx,%rdi
    35e0:	e8 00 00 00 00       	callq  35e5 <handle_read+0x205>
    35e5:	85 c0                	test   %eax,%eax
    35e7:	74 76                	je     365f <handle_read+0x27f>
    35e9:	83 f8 02             	cmp    $0x2,%eax
    35ec:	0f 85 06 01 00 00    	jne    36f8 <handle_read+0x318>
    35f2:	b8 00 00 00 00       	mov    $0x0,%eax
    35f7:	48 c1 e8 03          	shr    $0x3,%rax
    35fb:	80 b8 00 80 ff 7f 00 	cmpb   $0x0,0x7fff8000(%rax)
    3602:	0f 85 21 05 00 00    	jne    3b29 <handle_read+0x749>
    3608:	b8 00 00 00 00       	mov    $0x0,%eax
    360d:	4c 8b 05 00 00 00 00 	mov    0x0(%rip),%r8        # 3614 <handle_read+0x234>
    3614:	48 c1 e8 03          	shr    $0x3,%rax
    3618:	80 b8 00 80 ff 7f 00 	cmpb   $0x0,0x7fff8000(%rax)
    361f:	0f 84 7c fe ff ff    	je     34a1 <handle_read+0xc1>
    3625:	bf 00 00 00 00       	mov    $0x0,%edi
    362a:	e8 00 00 00 00       	callq  362f <handle_read+0x24f>
    362f:	90                   	nop
    3630:	e8 00 00 00 00       	callq  3635 <handle_read+0x255>
    3635:	48 89 c2             	mov    %rax,%rdx
    3638:	48 c1 ea 03          	shr    $0x3,%rdx
    363c:	0f b6 8a 00 80 ff 7f 	movzbl 0x7fff8000(%rdx),%ecx
    3643:	48 89 c2             	mov    %rax,%rdx
    3646:	83 e2 07             	and    $0x7,%edx
    3649:	83 c2 03             	add    $0x3,%edx
    364c:	38 ca                	cmp    %cl,%dl
    364e:	7c 08                	jl     3658 <handle_read+0x278>
    3650:	84 c9                	test   %cl,%cl
    3652:	0f 85 53 03 00 00    	jne    39ab <handle_read+0x5cb>
    3658:	8b 00                	mov    (%rax),%eax
    365a:	83 f8 04             	cmp    $0x4,%eax
    365d:	75 51                	jne    36b0 <handle_read+0x2d0>
    365f:	48 83 c4 18          	add    $0x18,%rsp
    3663:	5b                   	pop    %rbx
    3664:	5d                   	pop    %rbp
    3665:	41 5c                	pop    %r12
    3667:	41 5d                	pop    %r13
    3669:	41 5e                	pop    %r14
    366b:	41 5f                	pop    %r15
    366d:	c3                   	retq   
    366e:	66 90                	xchg   %ax,%ax
    3670:	b8 00 00 00 00       	mov    $0x0,%eax
    3675:	48 c1 e8 03          	shr    $0x3,%rax
    3679:	80 b8 00 80 ff 7f 00 	cmpb   $0x0,0x7fff8000(%rax)
    3680:	0f 85 ef 04 00 00    	jne    3b75 <handle_read+0x795>
    3686:	b8 00 00 00 00       	mov    $0x0,%eax
    368b:	4c 8b 05 00 00 00 00 	mov    0x0(%rip),%r8        # 3692 <handle_read+0x2b2>
    3692:	48 c1 e8 03          	shr    $0x3,%rax
    3696:	80 b8 00 80 ff 7f 00 	cmpb   $0x0,0x7fff8000(%rax)
    369d:	0f 84 fe fd ff ff    	je     34a1 <handle_read+0xc1>
    36a3:	bf 00 00 00 00       	mov    $0x0,%edi
    36a8:	e8 00 00 00 00       	callq  36ad <handle_read+0x2cd>
    36ad:	0f 1f 00             	nopl   (%rax)
    36b0:	83 f8 0b             	cmp    $0xb,%eax
    36b3:	74 aa                	je     365f <handle_read+0x27f>
    36b5:	b8 00 00 00 00       	mov    $0x0,%eax
    36ba:	48 c1 e8 03          	shr    $0x3,%rax
    36be:	80 b8 00 80 ff 7f 00 	cmpb   $0x0,0x7fff8000(%rax)
    36c5:	0f 85 0a 05 00 00    	jne    3bd5 <handle_read+0x7f5>
    36cb:	b8 00 00 00 00       	mov    $0x0,%eax
    36d0:	4c 8b 05 00 00 00 00 	mov    0x0(%rip),%r8        # 36d7 <handle_read+0x2f7>
    36d7:	48 c1 e8 03          	shr    $0x3,%rax
    36db:	80 b8 00 80 ff 7f 00 	cmpb   $0x0,0x7fff8000(%rax)
    36e2:	0f 84 b9 fd ff ff    	je     34a1 <handle_read+0xc1>
    36e8:	bf 00 00 00 00       	mov    $0x0,%edi
    36ed:	e8 00 00 00 00       	callq  36f2 <handle_read+0x312>
    36f2:	66 0f 1f 44 00 00    	nopw   0x0(%rax,%rax,1)
    36f8:	48 89 df             	mov    %rbx,%rdi
    36fb:	e8 00 00 00 00       	callq  3700 <handle_read+0x320>
    3700:	85 c0                	test   %eax,%eax
    3702:	0f 88 b6 fd ff ff    	js     34be <handle_read+0xde>
    3708:	48 89 ef             	mov    %rbp,%rdi
    370b:	e8 80 ef ff ff       	callq  2690 <check_throttles>
    3710:	85 c0                	test   %eax,%eax
    3712:	0f 84 18 02 00 00    	je     3930 <handle_read+0x550>
    3718:	4c 89 e6             	mov    %r12,%rsi
    371b:	48 89 df             	mov    %rbx,%rdi
    371e:	e8 00 00 00 00       	callq  3723 <handle_read+0x343>
    3723:	85 c0                	test   %eax,%eax
    3725:	0f 88 93 fd ff ff    	js     34be <handle_read+0xde>
    372b:	48 8d bb 10 02 00 00 	lea    0x210(%rbx),%rdi
    3732:	48 89 f8             	mov    %rdi,%rax
    3735:	48 c1 e8 03          	shr    $0x3,%rax
    3739:	0f b6 80 00 80 ff 7f 	movzbl 0x7fff8000(%rax),%eax
    3740:	84 c0                	test   %al,%al
    3742:	74 08                	je     374c <handle_read+0x36c>
    3744:	3c 03                	cmp    $0x3,%al
    3746:	0f 8e 98 04 00 00    	jle    3be4 <handle_read+0x804>
    374c:	8b 83 10 02 00 00    	mov    0x210(%rbx),%eax
    3752:	85 c0                	test   %eax,%eax
    3754:	0f 84 5e 02 00 00    	je     39b8 <handle_read+0x5d8>
    375a:	48 8d bb 18 02 00 00 	lea    0x218(%rbx),%rdi
    3761:	48 89 f8             	mov    %rdi,%rax
    3764:	48 c1 e8 03          	shr    $0x3,%rax
    3768:	80 b8 00 80 ff 7f 00 	cmpb   $0x0,0x7fff8000(%rax)
    376f:	0f 85 6a 04 00 00    	jne    3bdf <handle_read+0x7ff>
    3775:	48 8d bd 88 00 00 00 	lea    0x88(%rbp),%rdi
    377c:	48 8b 83 18 02 00 00 	mov    0x218(%rbx),%rax
    3783:	48 89 fa             	mov    %rdi,%rdx
    3786:	48 c1 ea 03          	shr    $0x3,%rdx
    378a:	80 ba 00 80 ff 7f 00 	cmpb   $0x0,0x7fff8000(%rdx)
    3791:	0f 85 86 04 00 00    	jne    3c1d <handle_read+0x83d>
    3797:	48 8d bb 20 02 00 00 	lea    0x220(%rbx),%rdi
    379e:	48 89 85 88 00 00 00 	mov    %rax,0x88(%rbp)
    37a5:	48 89 f8             	mov    %rdi,%rax
    37a8:	48 c1 e8 03          	shr    $0x3,%rax
    37ac:	80 b8 00 80 ff 7f 00 	cmpb   $0x0,0x7fff8000(%rax)
    37b3:	0f 85 5f 04 00 00    	jne    3c18 <handle_read+0x838>
    37b9:	48 8d bd 80 00 00 00 	lea    0x80(%rbp),%rdi
    37c0:	48 8b 83 20 02 00 00 	mov    0x220(%rbx),%rax
    37c7:	48 89 fa             	mov    %rdi,%rdx
    37ca:	48 c1 ea 03          	shr    $0x3,%rdx
    37ce:	48 83 c0 01          	add    $0x1,%rax
    37d2:	80 ba 00 80 ff 7f 00 	cmpb   $0x0,0x7fff8000(%rdx)
    37d9:	0f 85 34 04 00 00    	jne    3c13 <handle_read+0x833>
    37df:	48 89 85 80 00 00 00 	mov    %rax,0x80(%rbp)
    37e6:	48 8d 83 c8 02 00 00 	lea    0x2c8(%rbx),%rax
    37ed:	48 89 c2             	mov    %rax,%rdx
    37f0:	48 c1 ea 03          	shr    $0x3,%rdx
    37f4:	80 ba 00 80 ff 7f 00 	cmpb   $0x0,0x7fff8000(%rdx)
    37fb:	0f 85 0a 04 00 00    	jne    3c0b <handle_read+0x82b>
    3801:	48 83 bb c8 02 00 00 	cmpq   $0x0,0x2c8(%rbx)
    3808:	00 
    3809:	0f 84 f9 01 00 00    	je     3a08 <handle_read+0x628>
    380f:	48 8d 85 88 00 00 00 	lea    0x88(%rbp),%rax
    3816:	48 89 c2             	mov    %rax,%rdx
    3819:	48 c1 ea 03          	shr    $0x3,%rdx
    381d:	80 ba 00 80 ff 7f 00 	cmpb   $0x0,0x7fff8000(%rdx)
    3824:	0f 85 20 03 00 00    	jne    3b4a <handle_read+0x76a>
    382a:	48 89 fa             	mov    %rdi,%rdx
    382d:	48 8b 85 88 00 00 00 	mov    0x88(%rbp),%rax
    3834:	48 c1 ea 03          	shr    $0x3,%rdx
    3838:	80 ba 00 80 ff 7f 00 	cmpb   $0x0,0x7fff8000(%rdx)
    383f:	0f 85 dd 03 00 00    	jne    3c22 <handle_read+0x842>
    3845:	48 3b 85 80 00 00 00 	cmp    0x80(%rbp),%rax
    384c:	0f 8d 6c fc ff ff    	jge    34be <handle_read+0xde>
    3852:	48 89 e8             	mov    %rbp,%rax
    3855:	48 c1 e8 03          	shr    $0x3,%rax
    3859:	0f b6 80 00 80 ff 7f 	movzbl 0x7fff8000(%rax),%eax
    3860:	84 c0                	test   %al,%al
    3862:	74 08                	je     386c <handle_read+0x48c>
    3864:	3c 03                	cmp    $0x3,%al
    3866:	0f 8e 7d 03 00 00    	jle    3be9 <handle_read+0x809>
    386c:	4c 89 e0             	mov    %r12,%rax
    386f:	c7 45 00 02 00 00 00 	movl   $0x2,0x0(%rbp)
    3876:	48 c1 e8 03          	shr    $0x3,%rax
    387a:	80 b8 00 80 ff 7f 00 	cmpb   $0x0,0x7fff8000(%rax)
    3881:	0f 85 6f 03 00 00    	jne    3bf6 <handle_read+0x816>
    3887:	48 8d 7d 50          	lea    0x50(%rbp),%rdi
    388b:	49 8b 04 24          	mov    (%r12),%rax
    388f:	48 89 fa             	mov    %rdi,%rdx
    3892:	48 c1 ea 03          	shr    $0x3,%rdx
    3896:	80 ba 00 80 ff 7f 00 	cmpb   $0x0,0x7fff8000(%rdx)
    389d:	0f 85 4e 03 00 00    	jne    3bf1 <handle_read+0x811>
    38a3:	48 8d 7d 70          	lea    0x70(%rbp),%rdi
    38a7:	48 89 45 50          	mov    %rax,0x50(%rbp)
    38ab:	48 89 f8             	mov    %rdi,%rax
    38ae:	48 c1 e8 03          	shr    $0x3,%rax
    38b2:	80 b8 00 80 ff 7f 00 	cmpb   $0x0,0x7fff8000(%rax)
    38b9:	0f 85 3f 03 00 00    	jne    3bfe <handle_read+0x81e>
    38bf:	4c 89 f0             	mov    %r14,%rax
    38c2:	48 c7 45 70 00 00 00 	movq   $0x0,0x70(%rbp)
    38c9:	00 
    38ca:	48 c1 e8 03          	shr    $0x3,%rax
    38ce:	0f b6 80 00 80 ff 7f 	movzbl 0x7fff8000(%rax),%eax
    38d5:	84 c0                	test   %al,%al
    38d7:	74 08                	je     38e1 <handle_read+0x501>
    38d9:	3c 03                	cmp    $0x3,%al
    38db:	0f 8e 46 03 00 00    	jle    3c27 <handle_read+0x847>
    38e1:	8b bb c0 02 00 00    	mov    0x2c0(%rbx),%edi
    38e7:	e8 00 00 00 00       	callq  38ec <handle_read+0x50c>
    38ec:	4c 89 f0             	mov    %r14,%rax
    38ef:	48 c1 e8 03          	shr    $0x3,%rax
    38f3:	0f b6 80 00 80 ff 7f 	movzbl 0x7fff8000(%rax),%eax
    38fa:	84 c0                	test   %al,%al
    38fc:	74 08                	je     3906 <handle_read+0x526>
    38fe:	3c 03                	cmp    $0x3,%al
    3900:	0f 8e fd 02 00 00    	jle    3c03 <handle_read+0x823>
    3906:	8b bb c0 02 00 00    	mov    0x2c0(%rbx),%edi
    390c:	48 83 c4 18          	add    $0x18,%rsp
    3910:	48 89 ee             	mov    %rbp,%rsi
    3913:	5b                   	pop    %rbx
    3914:	5d                   	pop    %rbp
    3915:	41 5c                	pop    %r12
    3917:	41 5d                	pop    %r13
    3919:	41 5e                	pop    %r14
    391b:	41 5f                	pop    %r15
    391d:	ba 01 00 00 00       	mov    $0x1,%edx
    3922:	e9 00 00 00 00       	jmpq   3927 <handle_read+0x547>
    3927:	66 0f 1f 84 00 00 00 	nopw   0x0(%rax,%rax,1)
    392e:	00 00 
    3930:	48 8d bb d0 00 00 00 	lea    0xd0(%rbx),%rdi
    3937:	48 89 f8             	mov    %rdi,%rax
    393a:	48 c1 e8 03          	shr    $0x3,%rax
    393e:	80 b8 00 80 ff 7f 00 	cmpb   $0x0,0x7fff8000(%rax)
    3945:	0f 85 25 02 00 00    	jne    3b70 <handle_read+0x790>
    394b:	b8 00 00 00 00       	mov    $0x0,%eax
    3950:	4c 8b 8b d0 00 00 00 	mov    0xd0(%rbx),%r9
    3957:	48 c1 e8 03          	shr    $0x3,%rax
    395b:	80 b8 00 80 ff 7f 00 	cmpb   $0x0,0x7fff8000(%rax)
    3962:	0f 85 fe 01 00 00    	jne    3b66 <handle_read+0x786>
    3968:	b8 00 00 00 00       	mov    $0x0,%eax
    396d:	4c 8b 05 00 00 00 00 	mov    0x0(%rip),%r8        # 3974 <handle_read+0x594>
    3974:	48 c1 e8 03          	shr    $0x3,%rax
    3978:	80 b8 00 80 ff 7f 00 	cmpb   $0x0,0x7fff8000(%rax)
    397f:	0f 85 d7 01 00 00    	jne    3b5c <handle_read+0x77c>
    3985:	48 8b 15 00 00 00 00 	mov    0x0(%rip),%rdx        # 398c <handle_read+0x5ac>
    398c:	b9 00 00 00 00       	mov    $0x0,%ecx
    3991:	be f7 01 00 00       	mov    $0x1f7,%esi
    3996:	48 89 df             	mov    %rbx,%rdi
    3999:	e8 00 00 00 00       	callq  399e <handle_read+0x5be>
    399e:	e9 1b fb ff ff       	jmpq   34be <handle_read+0xde>
    39a3:	4c 89 f7             	mov    %r14,%rdi
    39a6:	e8 00 00 00 00       	callq  39ab <handle_read+0x5cb>
    39ab:	48 89 c7             	mov    %rax,%rdi
    39ae:	e8 00 00 00 00       	callq  39b3 <handle_read+0x5d3>
    39b3:	0f 1f 44 00 00       	nopl   0x0(%rax,%rax,1)
    39b8:	48 8d bb c0 00 00 00 	lea    0xc0(%rbx),%rdi
    39bf:	48 89 f8             	mov    %rdi,%rax
    39c2:	48 c1 e8 03          	shr    $0x3,%rax
    39c6:	80 b8 00 80 ff 7f 00 	cmpb   $0x0,0x7fff8000(%rax)
    39cd:	0f 85 5c 02 00 00    	jne    3c2f <handle_read+0x84f>
    39d3:	48 8b 83 c0 00 00 00 	mov    0xc0(%rbx),%rax
    39da:	48 8d bd 80 00 00 00 	lea    0x80(%rbp),%rdi
    39e1:	48 85 c0             	test   %rax,%rax
    39e4:	0f 88 ff 00 00 00    	js     3ae9 <handle_read+0x709>
    39ea:	48 89 fa             	mov    %rdi,%rdx
    39ed:	48 c1 ea 03          	shr    $0x3,%rdx
    39f1:	80 ba 00 80 ff 7f 00 	cmpb   $0x0,0x7fff8000(%rdx)
    39f8:	0f 84 e1 fd ff ff    	je     37df <handle_read+0x3ff>
    39fe:	e8 00 00 00 00       	callq  3a03 <handle_read+0x623>
    3a03:	0f 1f 44 00 00       	nopl   0x0(%rax,%rax,1)
    3a08:	48 8d 7d 38          	lea    0x38(%rbp),%rdi
    3a0c:	48 89 f8             	mov    %rdi,%rax
    3a0f:	48 c1 e8 03          	shr    $0x3,%rax
    3a13:	0f b6 80 00 80 ff 7f 	movzbl 0x7fff8000(%rax),%eax
    3a1a:	84 c0                	test   %al,%al
    3a1c:	74 08                	je     3a26 <handle_read+0x646>
    3a1e:	3c 03                	cmp    $0x3,%al
    3a20:	0f 8e 2c 01 00 00    	jle    3b52 <handle_read+0x772>
    3a26:	8b 45 38             	mov    0x38(%rbp),%eax
    3a29:	85 c0                	test   %eax,%eax
    3a2b:	0f 8e d8 00 00 00    	jle    3b09 <handle_read+0x729>
    3a31:	48 8d bb c8 00 00 00 	lea    0xc8(%rbx),%rdi
    3a38:	4c 8b 05 00 00 00 00 	mov    0x0(%rip),%r8        # 3a3f <handle_read+0x65f>
    3a3f:	48 89 fa             	mov    %rdi,%rdx
    3a42:	48 c1 ea 03          	shr    $0x3,%rdx
    3a46:	80 ba 00 80 ff 7f 00 	cmpb   $0x0,0x7fff8000(%rdx)
    3a4d:	0f 85 e8 00 00 00    	jne    3b3b <handle_read+0x75b>
    3a53:	83 e8 01             	sub    $0x1,%eax
    3a56:	48 8b b3 c8 00 00 00 	mov    0xc8(%rbx),%rsi
    3a5d:	48 8d 7d 10          	lea    0x10(%rbp),%rdi
    3a61:	4c 8d 4c 85 14       	lea    0x14(%rbp,%rax,4),%r9
    3a66:	66 2e 0f 1f 84 00 00 	nopw   %cs:0x0(%rax,%rax,1)
    3a6d:	00 00 00 
    3a70:	48 89 f8             	mov    %rdi,%rax
    3a73:	48 c1 e8 03          	shr    $0x3,%rax
    3a77:	0f b6 90 00 80 ff 7f 	movzbl 0x7fff8000(%rax),%edx
    3a7e:	48 89 f8             	mov    %rdi,%rax
    3a81:	83 e0 07             	and    $0x7,%eax
    3a84:	83 c0 03             	add    $0x3,%eax
    3a87:	38 d0                	cmp    %dl,%al
    3a89:	7c 08                	jl     3a93 <handle_read+0x6b3>
    3a8b:	84 d2                	test   %dl,%dl
    3a8d:	0f 85 ad 00 00 00    	jne    3b40 <handle_read+0x760>
    3a93:	48 63 07             	movslq (%rdi),%rax
    3a96:	48 8d 04 40          	lea    (%rax,%rax,2),%rax
    3a9a:	48 c1 e0 04          	shl    $0x4,%rax
    3a9e:	4c 01 c0             	add    %r8,%rax
    3aa1:	48 8d 50 20          	lea    0x20(%rax),%rdx
    3aa5:	48 89 d1             	mov    %rdx,%rcx
    3aa8:	48 c1 e9 03          	shr    $0x3,%rcx
    3aac:	80 b9 00 80 ff 7f 00 	cmpb   $0x0,0x7fff8000(%rcx)
    3ab3:	75 7e                	jne    3b33 <handle_read+0x753>
    3ab5:	48 83 c7 04          	add    $0x4,%rdi
    3ab9:	48 01 70 20          	add    %rsi,0x20(%rax)
    3abd:	4c 39 cf             	cmp    %r9,%rdi
    3ac0:	75 ae                	jne    3a70 <handle_read+0x690>
    3ac2:	48 8d bd 88 00 00 00 	lea    0x88(%rbp),%rdi
    3ac9:	48 89 f8             	mov    %rdi,%rax
    3acc:	48 c1 e8 03          	shr    $0x3,%rax
    3ad0:	80 b8 00 80 ff 7f 00 	cmpb   $0x0,0x7fff8000(%rax)
    3ad7:	0f 85 57 01 00 00    	jne    3c34 <handle_read+0x854>
    3add:	48 89 b5 88 00 00 00 	mov    %rsi,0x88(%rbp)
    3ae4:	e9 d5 f9 ff ff       	jmpq   34be <handle_read+0xde>
    3ae9:	48 89 f8             	mov    %rdi,%rax
    3aec:	48 c1 e8 03          	shr    $0x3,%rax
    3af0:	80 b8 00 80 ff 7f 00 	cmpb   $0x0,0x7fff8000(%rax)
    3af7:	75 4c                	jne    3b45 <handle_read+0x765>
    3af9:	48 c7 85 80 00 00 00 	movq   $0x0,0x80(%rbp)
    3b00:	00 00 00 00 
    3b04:	e9 dd fc ff ff       	jmpq   37e6 <handle_read+0x406>
    3b09:	48 8d bb c8 00 00 00 	lea    0xc8(%rbx),%rdi
    3b10:	48 89 f8             	mov    %rdi,%rax
    3b13:	48 c1 e8 03          	shr    $0x3,%rax
    3b17:	80 b8 00 80 ff 7f 00 	cmpb   $0x0,0x7fff8000(%rax)
    3b1e:	75 37                	jne    3b57 <handle_read+0x777>
    3b20:	48 8b b3 c8 00 00 00 	mov    0xc8(%rbx),%rsi
    3b27:	eb 99                	jmp    3ac2 <handle_read+0x6e2>
    3b29:	bf 00 00 00 00       	mov    $0x0,%edi
    3b2e:	e8 00 00 00 00       	callq  3b33 <handle_read+0x753>
    3b33:	48 89 d7             	mov    %rdx,%rdi
    3b36:	e8 00 00 00 00       	callq  3b3b <handle_read+0x75b>
    3b3b:	e8 00 00 00 00       	callq  3b40 <handle_read+0x760>
    3b40:	e8 00 00 00 00       	callq  3b45 <handle_read+0x765>
    3b45:	e8 00 00 00 00       	callq  3b4a <handle_read+0x76a>
    3b4a:	48 89 c7             	mov    %rax,%rdi
    3b4d:	e8 00 00 00 00       	callq  3b52 <handle_read+0x772>
    3b52:	e8 00 00 00 00       	callq  3b57 <handle_read+0x777>
    3b57:	e8 00 00 00 00       	callq  3b5c <handle_read+0x77c>
    3b5c:	bf 00 00 00 00       	mov    $0x0,%edi
    3b61:	e8 00 00 00 00       	callq  3b66 <handle_read+0x786>
    3b66:	bf 00 00 00 00       	mov    $0x0,%edi
    3b6b:	e8 00 00 00 00       	callq  3b70 <handle_read+0x790>
    3b70:	e8 00 00 00 00       	callq  3b75 <handle_read+0x795>
    3b75:	bf 00 00 00 00       	mov    $0x0,%edi
    3b7a:	e8 00 00 00 00       	callq  3b7f <handle_read+0x79f>
    3b7f:	4c 89 ef             	mov    %r13,%rdi
    3b82:	e8 00 00 00 00       	callq  3b87 <handle_read+0x7a7>
    3b87:	e8 00 00 00 00       	callq  3b8c <handle_read+0x7ac>
    3b8c:	4c 89 ef             	mov    %r13,%rdi
    3b8f:	e8 00 00 00 00       	callq  3b94 <handle_read+0x7b4>
    3b94:	4c 89 e7             	mov    %r12,%rdi
    3b97:	e8 00 00 00 00       	callq  3b9c <handle_read+0x7bc>
    3b9c:	4c 89 f7             	mov    %r14,%rdi
    3b9f:	e8 00 00 00 00       	callq  3ba4 <handle_read+0x7c4>
    3ba4:	4c 89 ef             	mov    %r13,%rdi
    3ba7:	e8 00 00 00 00       	callq  3bac <handle_read+0x7cc>
    3bac:	bf 00 00 00 00       	mov    $0x0,%edi
    3bb1:	e8 00 00 00 00       	callq  3bb6 <handle_read+0x7d6>
    3bb6:	bf 00 00 00 00       	mov    $0x0,%edi
    3bbb:	e8 00 00 00 00       	callq  3bc0 <handle_read+0x7e0>
    3bc0:	48 89 cf             	mov    %rcx,%rdi
    3bc3:	e8 00 00 00 00       	callq  3bc8 <handle_read+0x7e8>
    3bc8:	4c 89 f7             	mov    %r14,%rdi
    3bcb:	e8 00 00 00 00       	callq  3bd0 <handle_read+0x7f0>
    3bd0:	e8 00 00 00 00       	callq  3bd5 <handle_read+0x7f5>
    3bd5:	bf 00 00 00 00       	mov    $0x0,%edi
    3bda:	e8 00 00 00 00       	callq  3bdf <handle_read+0x7ff>
    3bdf:	e8 00 00 00 00       	callq  3be4 <handle_read+0x804>
    3be4:	e8 00 00 00 00       	callq  3be9 <handle_read+0x809>
    3be9:	48 89 ef             	mov    %rbp,%rdi
    3bec:	e8 00 00 00 00       	callq  3bf1 <handle_read+0x811>
    3bf1:	e8 00 00 00 00       	callq  3bf6 <handle_read+0x816>
    3bf6:	4c 89 e7             	mov    %r12,%rdi
    3bf9:	e8 00 00 00 00       	callq  3bfe <handle_read+0x81e>
    3bfe:	e8 00 00 00 00       	callq  3c03 <handle_read+0x823>
    3c03:	4c 89 f7             	mov    %r14,%rdi
    3c06:	e8 00 00 00 00       	callq  3c0b <handle_read+0x82b>
    3c0b:	48 89 c7             	mov    %rax,%rdi
    3c0e:	e8 00 00 00 00       	callq  3c13 <handle_read+0x833>
    3c13:	e8 00 00 00 00       	callq  3c18 <handle_read+0x838>
    3c18:	e8 00 00 00 00       	callq  3c1d <handle_read+0x83d>
    3c1d:	e8 00 00 00 00       	callq  3c22 <handle_read+0x842>
    3c22:	e8 00 00 00 00       	callq  3c27 <handle_read+0x847>
    3c27:	4c 89 f7             	mov    %r14,%rdi
    3c2a:	e8 00 00 00 00       	callq  3c2f <handle_read+0x84f>
    3c2f:	e8 00 00 00 00       	callq  3c34 <handle_read+0x854>
    3c34:	e8 00 00 00 00       	callq  3c39 <handle_read+0x859>
    3c39:	0f 1f 80 00 00 00 00 	nopl   0x0(%rax)

0000000000003c40 <idle>:
    3c40:	8b 05 00 00 00 00    	mov    0x0(%rip),%eax        # 3c46 <idle+0x6>
    3c46:	85 c0                	test   %eax,%eax
    3c48:	0f 8e b0 01 00 00    	jle    3dfe <idle+0x1be>
    3c4e:	41 57                	push   %r15
    3c50:	41 56                	push   %r14
    3c52:	49 89 f7             	mov    %rsi,%r15
    3c55:	41 55                	push   %r13
    3c57:	41 54                	push   %r12
    3c59:	41 bc 00 00 00 00    	mov    $0x0,%r12d
    3c5f:	55                   	push   %rbp
    3c60:	53                   	push   %rbx
    3c61:	49 c1 ec 03          	shr    $0x3,%r12
    3c65:	31 ed                	xor    %ebp,%ebp
    3c67:	49 89 f6             	mov    %rsi,%r14
    3c6a:	49 c1 ef 03          	shr    $0x3,%r15
    3c6e:	48 83 ec 18          	sub    $0x18,%rsp
    3c72:	4c 89 64 24 08       	mov    %r12,0x8(%rsp)
    3c77:	eb 56                	jmp    3ccf <idle+0x8f>
    3c79:	0f 1f 80 00 00 00 00 	nopl   0x0(%rax)
    3c80:	7c 3e                	jl     3cc0 <idle+0x80>
    3c82:	83 f8 03             	cmp    $0x3,%eax
    3c85:	7f 39                	jg     3cc0 <idle+0x80>
    3c87:	41 80 bf 00 80 ff 7f 	cmpb   $0x0,0x7fff8000(%r15)
    3c8e:	00 
    3c8f:	0f 85 f3 01 00 00    	jne    3e88 <idle+0x248>
    3c95:	48 8d 7b 58          	lea    0x58(%rbx),%rdi
    3c99:	49 8b 06             	mov    (%r14),%rax
    3c9c:	48 89 fa             	mov    %rdi,%rdx
    3c9f:	48 c1 ea 03          	shr    $0x3,%rdx
    3ca3:	80 ba 00 80 ff 7f 00 	cmpb   $0x0,0x7fff8000(%rdx)
    3caa:	0f 85 d3 01 00 00    	jne    3e83 <idle+0x243>
    3cb0:	48 2b 43 58          	sub    0x58(%rbx),%rax
    3cb4:	48 3d 2b 01 00 00    	cmp    $0x12b,%rax
    3cba:	0f 8f 40 01 00 00    	jg     3e00 <idle+0x1c0>
    3cc0:	83 c5 01             	add    $0x1,%ebp
    3cc3:	39 2d 00 00 00 00    	cmp    %ebp,0x0(%rip)        # 3cc9 <idle+0x89>
    3cc9:	0f 8e 21 01 00 00    	jle    3df0 <idle+0x1b0>
    3ccf:	48 63 c5             	movslq %ebp,%rax
    3cd2:	48 8d 1c c0          	lea    (%rax,%rax,8),%rbx
    3cd6:	48 c1 e3 04          	shl    $0x4,%rbx
    3cda:	48 03 1d 00 00 00 00 	add    0x0(%rip),%rbx        # 3ce1 <idle+0xa1>
    3ce1:	48 89 d8             	mov    %rbx,%rax
    3ce4:	48 c1 e8 03          	shr    $0x3,%rax
    3ce8:	0f b6 80 00 80 ff 7f 	movzbl 0x7fff8000(%rax),%eax
    3cef:	84 c0                	test   %al,%al
    3cf1:	74 08                	je     3cfb <idle+0xbb>
    3cf3:	3c 03                	cmp    $0x3,%al
    3cf5:	0f 8e 4a 01 00 00    	jle    3e45 <idle+0x205>
    3cfb:	8b 03                	mov    (%rbx),%eax
    3cfd:	83 f8 01             	cmp    $0x1,%eax
    3d00:	0f 85 7a ff ff ff    	jne    3c80 <idle+0x40>
    3d06:	41 80 bf 00 80 ff 7f 	cmpb   $0x0,0x7fff8000(%r15)
    3d0d:	00 
    3d0e:	0f 85 67 01 00 00    	jne    3e7b <idle+0x23b>
    3d14:	48 8d 7b 58          	lea    0x58(%rbx),%rdi
    3d18:	49 8b 06             	mov    (%r14),%rax
    3d1b:	48 89 fa             	mov    %rdi,%rdx
    3d1e:	48 c1 ea 03          	shr    $0x3,%rdx
    3d22:	80 ba 00 80 ff 7f 00 	cmpb   $0x0,0x7fff8000(%rdx)
    3d29:	0f 85 47 01 00 00    	jne    3e76 <idle+0x236>
    3d2f:	48 2b 43 58          	sub    0x58(%rbx),%rax
    3d33:	48 83 f8 3b          	cmp    $0x3b,%rax
    3d37:	7e 87                	jle    3cc0 <idle+0x80>
    3d39:	4c 8d 6b 08          	lea    0x8(%rbx),%r13
    3d3d:	4d 89 ec             	mov    %r13,%r12
    3d40:	49 c1 ec 03          	shr    $0x3,%r12
    3d44:	41 80 bc 24 00 80 ff 	cmpb   $0x0,0x7fff8000(%r12)
    3d4b:	7f 00 
    3d4d:	0f 85 1b 01 00 00    	jne    3e6e <idle+0x22e>
    3d53:	48 8b 43 08          	mov    0x8(%rbx),%rax
    3d57:	48 8d 78 10          	lea    0x10(%rax),%rdi
    3d5b:	e8 00 00 00 00       	callq  3d60 <idle+0x120>
    3d60:	be 00 00 00 00       	mov    $0x0,%esi
    3d65:	48 89 c2             	mov    %rax,%rdx
    3d68:	bf 06 00 00 00       	mov    $0x6,%edi
    3d6d:	31 c0                	xor    %eax,%eax
    3d6f:	e8 00 00 00 00       	callq  3d74 <idle+0x134>
    3d74:	48 8b 44 24 08       	mov    0x8(%rsp),%rax
    3d79:	80 b8 00 80 ff 7f 00 	cmpb   $0x0,0x7fff8000(%rax)
    3d80:	0f 85 de 00 00 00    	jne    3e64 <idle+0x224>
    3d86:	b8 00 00 00 00       	mov    $0x0,%eax
    3d8b:	4c 8b 05 00 00 00 00 	mov    0x0(%rip),%r8        # 3d92 <idle+0x152>
    3d92:	48 c1 e8 03          	shr    $0x3,%rax
    3d96:	80 b8 00 80 ff 7f 00 	cmpb   $0x0,0x7fff8000(%rax)
    3d9d:	0f 85 b7 00 00 00    	jne    3e5a <idle+0x21a>
    3da3:	41 80 bc 24 00 80 ff 	cmpb   $0x0,0x7fff8000(%r12)
    3daa:	7f 00 
    3dac:	48 8b 15 00 00 00 00 	mov    0x0(%rip),%rdx        # 3db3 <idle+0x173>
    3db3:	0f 85 99 00 00 00    	jne    3e52 <idle+0x212>
    3db9:	48 8b 7b 08          	mov    0x8(%rbx),%rdi
    3dbd:	41 b9 00 00 00 00    	mov    $0x0,%r9d
    3dc3:	be 98 01 00 00       	mov    $0x198,%esi
    3dc8:	4c 89 c9             	mov    %r9,%rcx
    3dcb:	83 c5 01             	add    $0x1,%ebp
    3dce:	e8 00 00 00 00       	callq  3dd3 <idle+0x193>
    3dd3:	4c 89 f6             	mov    %r14,%rsi
    3dd6:	48 89 df             	mov    %rbx,%rdi
    3dd9:	e8 c2 f5 ff ff       	callq  33a0 <finish_connection>
    3dde:	39 2d 00 00 00 00    	cmp    %ebp,0x0(%rip)        # 3de4 <idle+0x1a4>
    3de4:	0f 8f e5 fe ff ff    	jg     3ccf <idle+0x8f>
    3dea:	66 0f 1f 44 00 00    	nopw   0x0(%rax,%rax,1)
    3df0:	48 83 c4 18          	add    $0x18,%rsp
    3df4:	5b                   	pop    %rbx
    3df5:	5d                   	pop    %rbp
    3df6:	41 5c                	pop    %r12
    3df8:	41 5d                	pop    %r13
    3dfa:	41 5e                	pop    %r14
    3dfc:	41 5f                	pop    %r15
    3dfe:	f3 c3                	repz retq 
    3e00:	48 8d 7b 08          	lea    0x8(%rbx),%rdi
    3e04:	48 89 f8             	mov    %rdi,%rax
    3e07:	48 c1 e8 03          	shr    $0x3,%rax
    3e0b:	80 b8 00 80 ff 7f 00 	cmpb   $0x0,0x7fff8000(%rax)
    3e12:	75 39                	jne    3e4d <idle+0x20d>
    3e14:	48 8b 43 08          	mov    0x8(%rbx),%rax
    3e18:	48 8d 78 10          	lea    0x10(%rax),%rdi
    3e1c:	e8 00 00 00 00       	callq  3e21 <idle+0x1e1>
    3e21:	be 00 00 00 00       	mov    $0x0,%esi
    3e26:	48 89 c2             	mov    %rax,%rdx
    3e29:	bf 06 00 00 00       	mov    $0x6,%edi
    3e2e:	31 c0                	xor    %eax,%eax
    3e30:	e8 00 00 00 00       	callq  3e35 <idle+0x1f5>
    3e35:	4c 89 f6             	mov    %r14,%rsi
    3e38:	48 89 df             	mov    %rbx,%rdi
    3e3b:	e8 00 f2 ff ff       	callq  3040 <clear_connection>
    3e40:	e9 7b fe ff ff       	jmpq   3cc0 <idle+0x80>
    3e45:	48 89 df             	mov    %rbx,%rdi
    3e48:	e8 00 00 00 00       	callq  3e4d <idle+0x20d>
    3e4d:	e8 00 00 00 00       	callq  3e52 <idle+0x212>
    3e52:	4c 89 ef             	mov    %r13,%rdi
    3e55:	e8 00 00 00 00       	callq  3e5a <idle+0x21a>
    3e5a:	bf 00 00 00 00       	mov    $0x0,%edi
    3e5f:	e8 00 00 00 00       	callq  3e64 <idle+0x224>
    3e64:	bf 00 00 00 00       	mov    $0x0,%edi
    3e69:	e8 00 00 00 00       	callq  3e6e <idle+0x22e>
    3e6e:	4c 89 ef             	mov    %r13,%rdi
    3e71:	e8 00 00 00 00       	callq  3e76 <idle+0x236>
    3e76:	e8 00 00 00 00       	callq  3e7b <idle+0x23b>
    3e7b:	4c 89 f7             	mov    %r14,%rdi
    3e7e:	e8 00 00 00 00       	callq  3e83 <idle+0x243>
    3e83:	e8 00 00 00 00       	callq  3e88 <idle+0x248>
    3e88:	4c 89 f7             	mov    %r14,%rdi
    3e8b:	e8 00 00 00 00       	callq  3e90 <handle_send>

0000000000003e90 <handle_send>:
    3e90:	41 57                	push   %r15
    3e92:	41 56                	push   %r14
    3e94:	41 55                	push   %r13
    3e96:	41 54                	push   %r12
    3e98:	55                   	push   %rbp
    3e99:	53                   	push   %rbx
    3e9a:	48 89 fd             	mov    %rdi,%rbp
    3e9d:	48 81 ec 98 00 00 00 	sub    $0x98,%rsp
    3ea4:	8b 05 00 00 00 00    	mov    0x0(%rip),%eax        # 3eaa <handle_send+0x1a>
    3eaa:	48 89 74 24 08       	mov    %rsi,0x8(%rsp)
    3eaf:	4c 8d 74 24 30       	lea    0x30(%rsp),%r14
    3eb4:	85 c0                	test   %eax,%eax
    3eb6:	0f 85 0e 08 00 00    	jne    46ca <handle_send+0x83a>
    3ebc:	4c 8d 65 08          	lea    0x8(%rbp),%r12
    3ec0:	4c 89 f3             	mov    %r14,%rbx
    3ec3:	49 c7 06 b3 8a b5 41 	movq   $0x41b58ab3,(%r14)
    3eca:	48 c1 eb 03          	shr    $0x3,%rbx
    3ece:	49 c7 46 08 00 00 00 	movq   $0x0,0x8(%r14)
    3ed5:	00 
    3ed6:	49 c7 46 10 00 00 00 	movq   $0x0,0x10(%r14)
    3edd:	00 
    3ede:	4c 89 e0             	mov    %r12,%rax
    3ee1:	c7 83 00 80 ff 7f f1 	movl   $0xf1f1f1f1,0x7fff8000(%rbx)
    3ee8:	f1 f1 f1 
    3eeb:	c7 83 08 80 ff 7f f3 	movl   $0xf3f3f3f3,0x7fff8008(%rbx)
    3ef2:	f3 f3 f3 
    3ef5:	48 c1 e8 03          	shr    $0x3,%rax
    3ef9:	49 8d 76 60          	lea    0x60(%r14),%rsi
    3efd:	80 b8 00 80 ff 7f 00 	cmpb   $0x0,0x7fff8000(%rax)
    3f04:	0f 85 db 08 00 00    	jne    47e5 <handle_send+0x955>
    3f0a:	48 8d 45 40          	lea    0x40(%rbp),%rax
    3f0e:	48 8b 4d 08          	mov    0x8(%rbp),%rcx
    3f12:	48 89 44 24 18       	mov    %rax,0x18(%rsp)
    3f17:	48 c1 e8 03          	shr    $0x3,%rax
    3f1b:	80 b8 00 80 ff 7f 00 	cmpb   $0x0,0x7fff8000(%rax)
    3f22:	0f 85 ca 08 00 00    	jne    47f2 <handle_send+0x962>
    3f28:	48 8b 55 40          	mov    0x40(%rbp),%rdx
    3f2c:	b8 00 ca 9a 3b       	mov    $0x3b9aca00,%eax
    3f31:	48 83 fa ff          	cmp    $0xffffffffffffffff,%rdx
    3f35:	74 0f                	je     3f46 <handle_send+0xb6>
    3f37:	48 8d 42 03          	lea    0x3(%rdx),%rax
    3f3b:	48 85 d2             	test   %rdx,%rdx
    3f3e:	48 0f 49 c2          	cmovns %rdx,%rax
    3f42:	48 c1 f8 02          	sar    $0x2,%rax
    3f46:	4c 8d 81 d8 01 00 00 	lea    0x1d8(%rcx),%r8
    3f4d:	4c 89 c2             	mov    %r8,%rdx
    3f50:	48 c1 ea 03          	shr    $0x3,%rdx
    3f54:	80 ba 00 80 ff 7f 00 	cmpb   $0x0,0x7fff8000(%rdx)
    3f5b:	0f 85 74 08 00 00    	jne    47d5 <handle_send+0x945>
    3f61:	48 8b 91 d8 01 00 00 	mov    0x1d8(%rcx),%rdx
    3f68:	48 85 d2             	test   %rdx,%rdx
    3f6b:	0f 85 0f 03 00 00    	jne    4280 <handle_send+0x3f0>
    3f71:	4c 8d ad 80 00 00 00 	lea    0x80(%rbp),%r13
    3f78:	4c 89 ea             	mov    %r13,%rdx
    3f7b:	48 c1 ea 03          	shr    $0x3,%rdx
    3f7f:	80 ba 00 80 ff 7f 00 	cmpb   $0x0,0x7fff8000(%rdx)
    3f86:	0f 85 41 08 00 00    	jne    47cd <handle_send+0x93d>
    3f8c:	4c 8d bd 88 00 00 00 	lea    0x88(%rbp),%r15
    3f93:	48 8b 95 80 00 00 00 	mov    0x80(%rbp),%rdx
    3f9a:	4c 89 fe             	mov    %r15,%rsi
    3f9d:	48 c1 ee 03          	shr    $0x3,%rsi
    3fa1:	80 be 00 80 ff 7f 00 	cmpb   $0x0,0x7fff8000(%rsi)
    3fa8:	0f 85 17 08 00 00    	jne    47c5 <handle_send+0x935>
    3fae:	48 8b b5 88 00 00 00 	mov    0x88(%rbp),%rsi
    3fb5:	48 8d b9 c8 02 00 00 	lea    0x2c8(%rcx),%rdi
    3fbc:	48 29 f2             	sub    %rsi,%rdx
    3fbf:	48 39 c2             	cmp    %rax,%rdx
    3fc2:	48 0f 47 d0          	cmova  %rax,%rdx
    3fc6:	48 89 f8             	mov    %rdi,%rax
    3fc9:	48 c1 e8 03          	shr    $0x3,%rax
    3fcd:	80 b8 00 80 ff 7f 00 	cmpb   $0x0,0x7fff8000(%rax)
    3fd4:	0f 85 13 08 00 00    	jne    47ed <handle_send+0x95d>
    3fda:	48 8d 81 c0 02 00 00 	lea    0x2c0(%rcx),%rax
    3fe1:	48 03 b1 c8 02 00 00 	add    0x2c8(%rcx),%rsi
    3fe8:	48 89 44 24 10       	mov    %rax,0x10(%rsp)
    3fed:	48 c1 e8 03          	shr    $0x3,%rax
    3ff1:	0f b6 b8 00 80 ff 7f 	movzbl 0x7fff8000(%rax),%edi
    3ff8:	40 84 ff             	test   %dil,%dil
    3ffb:	74 0a                	je     4007 <handle_send+0x177>
    3ffd:	40 80 ff 03          	cmp    $0x3,%dil
    4001:	0f 8e aa 07 00 00    	jle    47b1 <handle_send+0x921>
    4007:	8b b9 c0 02 00 00    	mov    0x2c0(%rcx),%edi
    400d:	4c 89 44 24 28       	mov    %r8,0x28(%rsp)
    4012:	48 89 4c 24 20       	mov    %rcx,0x20(%rsp)
    4017:	e8 00 00 00 00       	callq  401c <handle_send+0x18c>
    401c:	85 c0                	test   %eax,%eax
    401e:	48 8b 4c 24 20       	mov    0x20(%rsp),%rcx
    4023:	4c 8b 44 24 28       	mov    0x28(%rsp),%r8
    4028:	0f 88 4b 03 00 00    	js     4379 <handle_send+0x4e9>
    402e:	0f 84 ec 03 00 00    	je     4420 <handle_send+0x590>
    4034:	48 8b 54 24 08       	mov    0x8(%rsp),%rdx
    4039:	48 c1 ea 03          	shr    $0x3,%rdx
    403d:	80 ba 00 80 ff 7f 00 	cmpb   $0x0,0x7fff8000(%rdx)
    4044:	0f 85 e2 06 00 00    	jne    472c <handle_send+0x89c>
    404a:	48 8b 74 24 08       	mov    0x8(%rsp),%rsi
    404f:	48 8d 7d 58          	lea    0x58(%rbp),%rdi
    4053:	48 8b 16             	mov    (%rsi),%rdx
    4056:	48 89 fe             	mov    %rdi,%rsi
    4059:	48 c1 ee 03          	shr    $0x3,%rsi
    405d:	80 be 00 80 ff 7f 00 	cmpb   $0x0,0x7fff8000(%rsi)
    4064:	0f 85 cc 06 00 00    	jne    4736 <handle_send+0x8a6>
    406a:	48 89 55 58          	mov    %rdx,0x58(%rbp)
    406e:	4c 89 c2             	mov    %r8,%rdx
    4071:	48 c1 ea 03          	shr    $0x3,%rdx
    4075:	80 ba 00 80 ff 7f 00 	cmpb   $0x0,0x7fff8000(%rdx)
    407c:	0f 85 27 07 00 00    	jne    47a9 <handle_send+0x919>
    4082:	48 8b 91 d8 01 00 00 	mov    0x1d8(%rcx),%rdx
    4089:	48 85 d2             	test   %rdx,%rdx
    408c:	74 19                	je     40a7 <handle_send+0x217>
    408e:	48 63 f0             	movslq %eax,%rsi
    4091:	48 39 f2             	cmp    %rsi,%rdx
    4094:	0f 87 b6 04 00 00    	ja     4550 <handle_send+0x6c0>
    409a:	29 d0                	sub    %edx,%eax
    409c:	48 c7 81 d8 01 00 00 	movq   $0x0,0x1d8(%rcx)
    40a3:	00 00 00 00 
    40a7:	48 63 d0             	movslq %eax,%rdx
    40aa:	4c 89 f8             	mov    %r15,%rax
    40ad:	48 c1 e8 03          	shr    $0x3,%rax
    40b1:	80 b8 00 80 ff 7f 00 	cmpb   $0x0,0x7fff8000(%rax)
    40b8:	0f 85 e3 06 00 00    	jne    47a1 <handle_send+0x911>
    40be:	4c 89 e0             	mov    %r12,%rax
    40c1:	49 89 d2             	mov    %rdx,%r10
    40c4:	4c 03 95 88 00 00 00 	add    0x88(%rbp),%r10
    40cb:	48 c1 e8 03          	shr    $0x3,%rax
    40cf:	80 b8 00 80 ff 7f 00 	cmpb   $0x0,0x7fff8000(%rax)
    40d6:	4c 89 95 88 00 00 00 	mov    %r10,0x88(%rbp)
    40dd:	0f 85 58 06 00 00    	jne    473b <handle_send+0x8ab>
    40e3:	48 8b 45 08          	mov    0x8(%rbp),%rax
    40e7:	48 8d b8 c8 00 00 00 	lea    0xc8(%rax),%rdi
    40ee:	48 89 fe             	mov    %rdi,%rsi
    40f1:	48 c1 ee 03          	shr    $0x3,%rsi
    40f5:	80 be 00 80 ff 7f 00 	cmpb   $0x0,0x7fff8000(%rsi)
    40fc:	0f 85 88 06 00 00    	jne    478a <handle_send+0x8fa>
    4102:	49 89 d1             	mov    %rdx,%r9
    4105:	4c 03 88 c8 00 00 00 	add    0xc8(%rax),%r9
    410c:	48 8d 7d 38          	lea    0x38(%rbp),%rdi
    4110:	4c 89 88 c8 00 00 00 	mov    %r9,0xc8(%rax)
    4117:	48 89 f8             	mov    %rdi,%rax
    411a:	48 c1 e8 03          	shr    $0x3,%rax
    411e:	0f b6 80 00 80 ff 7f 	movzbl 0x7fff8000(%rax),%eax
    4125:	84 c0                	test   %al,%al
    4127:	74 08                	je     4131 <handle_send+0x2a1>
    4129:	3c 03                	cmp    $0x3,%al
    412b:	0f 8e 5e 06 00 00    	jle    478f <handle_send+0x8ff>
    4131:	8b 45 38             	mov    0x38(%rbp),%eax
    4134:	85 c0                	test   %eax,%eax
    4136:	7e 71                	jle    41a9 <handle_send+0x319>
    4138:	83 e8 01             	sub    $0x1,%eax
    413b:	4c 8b 3d 00 00 00 00 	mov    0x0(%rip),%r15        # 4142 <handle_send+0x2b2>
    4142:	48 8d 7d 10          	lea    0x10(%rbp),%rdi
    4146:	4c 8d 5c 85 14       	lea    0x14(%rbp,%rax,4),%r11
    414b:	0f 1f 44 00 00       	nopl   0x0(%rax,%rax,1)
    4150:	48 89 f8             	mov    %rdi,%rax
    4153:	48 c1 e8 03          	shr    $0x3,%rax
    4157:	0f b6 b0 00 80 ff 7f 	movzbl 0x7fff8000(%rax),%esi
    415e:	48 89 f8             	mov    %rdi,%rax
    4161:	83 e0 07             	and    $0x7,%eax
    4164:	83 c0 03             	add    $0x3,%eax
    4167:	40 38 f0             	cmp    %sil,%al
    416a:	7c 09                	jl     4175 <handle_send+0x2e5>
    416c:	40 84 f6             	test   %sil,%sil
    416f:	0f 85 1f 06 00 00    	jne    4794 <handle_send+0x904>
    4175:	48 63 07             	movslq (%rdi),%rax
    4178:	48 8d 04 40          	lea    (%rax,%rax,2),%rax
    417c:	48 c1 e0 04          	shl    $0x4,%rax
    4180:	4c 01 f8             	add    %r15,%rax
    4183:	48 8d 70 20          	lea    0x20(%rax),%rsi
    4187:	49 89 f0             	mov    %rsi,%r8
    418a:	49 c1 e8 03          	shr    $0x3,%r8
    418e:	41 80 b8 00 80 ff 7f 	cmpb   $0x0,0x7fff8000(%r8)
    4195:	00 
    4196:	0f 85 fd 05 00 00    	jne    4799 <handle_send+0x909>
    419c:	48 83 c7 04          	add    $0x4,%rdi
    41a0:	48 01 50 20          	add    %rdx,0x20(%rax)
    41a4:	4c 39 df             	cmp    %r11,%rdi
    41a7:	75 a7                	jne    4150 <handle_send+0x2c0>
    41a9:	4c 89 e8             	mov    %r13,%rax
    41ac:	48 c1 e8 03          	shr    $0x3,%rax
    41b0:	80 b8 00 80 ff 7f 00 	cmpb   $0x0,0x7fff8000(%rax)
    41b7:	0f 85 bd 05 00 00    	jne    477a <handle_send+0x8ea>
    41bd:	4c 3b 95 80 00 00 00 	cmp    0x80(%rbp),%r10
    41c4:	0f 8d ee 04 00 00    	jge    46b8 <handle_send+0x828>
    41ca:	48 8d 7d 70          	lea    0x70(%rbp),%rdi
    41ce:	48 89 f8             	mov    %rdi,%rax
    41d1:	48 c1 e8 03          	shr    $0x3,%rax
    41d5:	80 b8 00 80 ff 7f 00 	cmpb   $0x0,0x7fff8000(%rax)
    41dc:	0f 85 59 06 00 00    	jne    483b <handle_send+0x9ab>
    41e2:	48 8b 45 70          	mov    0x70(%rbp),%rax
    41e6:	48 83 f8 64          	cmp    $0x64,%rax
    41ea:	0f 8f 50 03 00 00    	jg     4540 <handle_send+0x6b0>
    41f0:	48 8b 44 24 18       	mov    0x18(%rsp),%rax
    41f5:	48 c1 e8 03          	shr    $0x3,%rax
    41f9:	80 b8 00 80 ff 7f 00 	cmpb   $0x0,0x7fff8000(%rax)
    4200:	0f 85 26 06 00 00    	jne    482c <handle_send+0x99c>
    4206:	48 8b 75 40          	mov    0x40(%rbp),%rsi
    420a:	48 83 fe ff          	cmp    $0xffffffffffffffff,%rsi
    420e:	0f 84 ef 02 00 00    	je     4503 <handle_send+0x673>
    4214:	48 8b 44 24 08       	mov    0x8(%rsp),%rax
    4219:	48 8d 7d 50          	lea    0x50(%rbp),%rdi
    421d:	4c 8b 28             	mov    (%rax),%r13
    4220:	48 89 f8             	mov    %rdi,%rax
    4223:	48 c1 e8 03          	shr    $0x3,%rax
    4227:	80 b8 00 80 ff 7f 00 	cmpb   $0x0,0x7fff8000(%rax)
    422e:	0f 85 02 06 00 00    	jne    4836 <handle_send+0x9a6>
    4234:	4c 2b 6d 50          	sub    0x50(%rbp),%r13
    4238:	b8 01 00 00 00       	mov    $0x1,%eax
    423d:	4c 0f 44 e8          	cmove  %rax,%r13
    4241:	4c 89 c8             	mov    %r9,%rax
    4244:	48 99                	cqto   
    4246:	49 f7 fd             	idiv   %r13
    4249:	48 39 c6             	cmp    %rax,%rsi
    424c:	0f 8d b1 02 00 00    	jge    4503 <handle_send+0x673>
    4252:	48 89 e8             	mov    %rbp,%rax
    4255:	48 c1 e8 03          	shr    $0x3,%rax
    4259:	0f b6 80 00 80 ff 7f 	movzbl 0x7fff8000(%rax),%eax
    4260:	84 c0                	test   %al,%al
    4262:	0f 84 40 03 00 00    	je     45a8 <handle_send+0x718>
    4268:	3c 03                	cmp    $0x3,%al
    426a:	0f 8f 38 03 00 00    	jg     45a8 <handle_send+0x718>
    4270:	48 89 ef             	mov    %rbp,%rdi
    4273:	e8 00 00 00 00       	callq  4278 <handle_send+0x3e8>
    4278:	0f 1f 84 00 00 00 00 	nopl   0x0(%rax,%rax,1)
    427f:	00 
    4280:	48 8d b9 70 01 00 00 	lea    0x170(%rcx),%rdi
    4287:	49 89 fb             	mov    %rdi,%r11
    428a:	49 c1 eb 03          	shr    $0x3,%r11
    428e:	41 80 bb 00 80 ff 7f 	cmpb   $0x0,0x7fff8000(%r11)
    4295:	00 
    4296:	0f 85 8b 04 00 00    	jne    4727 <handle_send+0x897>
    429c:	48 8b b9 70 01 00 00 	mov    0x170(%rcx),%rdi
    42a3:	48 89 56 c8          	mov    %rdx,-0x38(%rsi)
    42a7:	48 89 7e c0          	mov    %rdi,-0x40(%rsi)
    42ab:	48 8d b9 c8 02 00 00 	lea    0x2c8(%rcx),%rdi
    42b2:	48 89 fa             	mov    %rdi,%rdx
    42b5:	48 c1 ea 03          	shr    $0x3,%rdx
    42b9:	80 ba 00 80 ff 7f 00 	cmpb   $0x0,0x7fff8000(%rdx)
    42c0:	0f 85 5c 04 00 00    	jne    4722 <handle_send+0x892>
    42c6:	4c 8d bd 88 00 00 00 	lea    0x88(%rbp),%r15
    42cd:	48 8b 91 c8 02 00 00 	mov    0x2c8(%rcx),%rdx
    42d4:	4c 89 ff             	mov    %r15,%rdi
    42d7:	48 c1 ef 03          	shr    $0x3,%rdi
    42db:	80 bf 00 80 ff 7f 00 	cmpb   $0x0,0x7fff8000(%rdi)
    42e2:	0f 85 23 04 00 00    	jne    470b <handle_send+0x87b>
    42e8:	48 8b bd 88 00 00 00 	mov    0x88(%rbp),%rdi
    42ef:	4c 8d ad 80 00 00 00 	lea    0x80(%rbp),%r13
    42f6:	48 01 fa             	add    %rdi,%rdx
    42f9:	48 89 56 d0          	mov    %rdx,-0x30(%rsi)
    42fd:	4c 89 ea             	mov    %r13,%rdx
    4300:	48 c1 ea 03          	shr    $0x3,%rdx
    4304:	80 ba 00 80 ff 7f 00 	cmpb   $0x0,0x7fff8000(%rdx)
    430b:	0f 85 cc 04 00 00    	jne    47dd <handle_send+0x94d>
    4311:	48 8b 95 80 00 00 00 	mov    0x80(%rbp),%rdx
    4318:	48 29 fa             	sub    %rdi,%rdx
    431b:	48 39 c2             	cmp    %rax,%rdx
    431e:	48 0f 47 d0          	cmova  %rax,%rdx
    4322:	48 8d 81 c0 02 00 00 	lea    0x2c0(%rcx),%rax
    4329:	48 89 56 d8          	mov    %rdx,-0x28(%rsi)
    432d:	48 89 44 24 10       	mov    %rax,0x10(%rsp)
    4332:	48 c1 e8 03          	shr    $0x3,%rax
    4336:	0f b6 80 00 80 ff 7f 	movzbl 0x7fff8000(%rax),%eax
    433d:	84 c0                	test   %al,%al
    433f:	74 08                	je     4349 <handle_send+0x4b9>
    4341:	3c 03                	cmp    $0x3,%al
    4343:	0f 8e 72 04 00 00    	jle    47bb <handle_send+0x92b>
    4349:	8b b9 c0 02 00 00    	mov    0x2c0(%rcx),%edi
    434f:	48 83 ee 40          	sub    $0x40,%rsi
    4353:	ba 02 00 00 00       	mov    $0x2,%edx
    4358:	4c 89 44 24 28       	mov    %r8,0x28(%rsp)
    435d:	48 89 4c 24 20       	mov    %rcx,0x20(%rsp)
    4362:	e8 00 00 00 00       	callq  4367 <handle_send+0x4d7>
    4367:	85 c0                	test   %eax,%eax
    4369:	4c 8b 44 24 28       	mov    0x28(%rsp),%r8
    436e:	48 8b 4c 24 20       	mov    0x20(%rsp),%rcx
    4373:	0f 89 b5 fc ff ff    	jns    402e <handle_send+0x19e>
    4379:	48 89 4c 24 18       	mov    %rcx,0x18(%rsp)
    437e:	e8 00 00 00 00       	callq  4383 <handle_send+0x4f3>
    4383:	48 89 c2             	mov    %rax,%rdx
    4386:	48 8b 4c 24 18       	mov    0x18(%rsp),%rcx
    438b:	48 c1 ea 03          	shr    $0x3,%rdx
    438f:	0f b6 b2 00 80 ff 7f 	movzbl 0x7fff8000(%rdx),%esi
    4396:	48 89 c2             	mov    %rax,%rdx
    4399:	83 e2 07             	and    $0x7,%edx
    439c:	83 c2 03             	add    $0x3,%edx
    439f:	40 38 f2             	cmp    %sil,%dl
    43a2:	7c 09                	jl     43ad <handle_send+0x51d>
    43a4:	40 84 f6             	test   %sil,%sil
    43a7:	0f 85 96 03 00 00    	jne    4743 <handle_send+0x8b3>
    43ad:	8b 00                	mov    (%rax),%eax
    43af:	83 f8 04             	cmp    $0x4,%eax
    43b2:	0f 84 4b 01 00 00    	je     4503 <handle_send+0x673>
    43b8:	83 f8 0b             	cmp    $0xb,%eax
    43bb:	74 63                	je     4420 <handle_send+0x590>
    43bd:	83 f8 20             	cmp    $0x20,%eax
    43c0:	40 0f 95 c6          	setne  %sil
    43c4:	83 f8 16             	cmp    $0x16,%eax
    43c7:	0f 95 c2             	setne  %dl
    43ca:	40 84 d6             	test   %dl,%sil
    43cd:	74 38                	je     4407 <handle_send+0x577>
    43cf:	83 f8 68             	cmp    $0x68,%eax
    43d2:	74 33                	je     4407 <handle_send+0x577>
    43d4:	48 8d b9 d0 00 00 00 	lea    0xd0(%rcx),%rdi
    43db:	48 89 f8             	mov    %rdi,%rax
    43de:	48 c1 e8 03          	shr    $0x3,%rax
    43e2:	80 b8 00 80 ff 7f 00 	cmpb   $0x0,0x7fff8000(%rax)
    43e9:	0f 85 2e 03 00 00    	jne    471d <handle_send+0x88d>
    43ef:	48 8b 91 d0 00 00 00 	mov    0xd0(%rcx),%rdx
    43f6:	be 00 00 00 00       	mov    $0x0,%esi
    43fb:	bf 03 00 00 00       	mov    $0x3,%edi
    4400:	31 c0                	xor    %eax,%eax
    4402:	e8 00 00 00 00       	callq  4407 <handle_send+0x577>
    4407:	48 8b 74 24 08       	mov    0x8(%rsp),%rsi
    440c:	48 89 ef             	mov    %rbp,%rdi
    440f:	e8 2c ec ff ff       	callq  3040 <clear_connection>
    4414:	e9 ea 00 00 00       	jmpq   4503 <handle_send+0x673>
    4419:	0f 1f 80 00 00 00 00 	nopl   0x0(%rax)
    4420:	4c 8d 65 70          	lea    0x70(%rbp),%r12
    4424:	4c 89 e0             	mov    %r12,%rax
    4427:	48 c1 e8 03          	shr    $0x3,%rax
    442b:	80 b8 00 80 ff 7f 00 	cmpb   $0x0,0x7fff8000(%rax)
    4432:	0f 85 3a 03 00 00    	jne    4772 <handle_send+0x8e2>
    4438:	48 89 e8             	mov    %rbp,%rax
    443b:	48 83 45 70 64       	addq   $0x64,0x70(%rbp)
    4440:	48 c1 e8 03          	shr    $0x3,%rax
    4444:	0f b6 80 00 80 ff 7f 	movzbl 0x7fff8000(%rax),%eax
    444b:	84 c0                	test   %al,%al
    444d:	74 08                	je     4457 <handle_send+0x5c7>
    444f:	3c 03                	cmp    $0x3,%al
    4451:	0f 8e f4 02 00 00    	jle    474b <handle_send+0x8bb>
    4457:	48 8b 44 24 10       	mov    0x10(%rsp),%rax
    445c:	c7 45 00 03 00 00 00 	movl   $0x3,0x0(%rbp)
    4463:	48 c1 e8 03          	shr    $0x3,%rax
    4467:	0f b6 80 00 80 ff 7f 	movzbl 0x7fff8000(%rax),%eax
    446e:	84 c0                	test   %al,%al
    4470:	74 08                	je     447a <handle_send+0x5ea>
    4472:	3c 03                	cmp    $0x3,%al
    4474:	0f 8e 99 02 00 00    	jle    4713 <handle_send+0x883>
    447a:	8b b9 c0 02 00 00    	mov    0x2c0(%rcx),%edi
    4480:	4c 8d 6d 60          	lea    0x60(%rbp),%r13
    4484:	e8 00 00 00 00       	callq  4489 <handle_send+0x5f9>
    4489:	4c 89 e8             	mov    %r13,%rax
    448c:	48 c1 e8 03          	shr    $0x3,%rax
    4490:	80 b8 00 80 ff 7f 00 	cmpb   $0x0,0x7fff8000(%rax)
    4497:	0f 85 e5 02 00 00    	jne    4782 <handle_send+0x8f2>
    449d:	48 83 7d 60 00       	cmpq   $0x0,0x60(%rbp)
    44a2:	74 11                	je     44b5 <handle_send+0x625>
    44a4:	be 00 00 00 00       	mov    $0x0,%esi
    44a9:	bf 03 00 00 00       	mov    $0x3,%edi
    44ae:	31 c0                	xor    %eax,%eax
    44b0:	e8 00 00 00 00       	callq  44b5 <handle_send+0x625>
    44b5:	4c 89 e0             	mov    %r12,%rax
    44b8:	48 c1 e8 03          	shr    $0x3,%rax
    44bc:	80 b8 00 80 ff 7f 00 	cmpb   $0x0,0x7fff8000(%rax)
    44c3:	0f 85 53 03 00 00    	jne    481c <handle_send+0x98c>
    44c9:	48 8b 4d 70          	mov    0x70(%rbp),%rcx
    44cd:	48 8b 7c 24 08       	mov    0x8(%rsp),%rdi
    44d2:	45 31 c0             	xor    %r8d,%r8d
    44d5:	48 89 ea             	mov    %rbp,%rdx
    44d8:	be 00 00 00 00       	mov    $0x0,%esi
    44dd:	e8 00 00 00 00       	callq  44e2 <handle_send+0x652>
    44e2:	4c 89 ea             	mov    %r13,%rdx
    44e5:	48 c1 ea 03          	shr    $0x3,%rdx
    44e9:	80 ba 00 80 ff 7f 00 	cmpb   $0x0,0x7fff8000(%rdx)
    44f0:	0f 85 2e 03 00 00    	jne    4824 <handle_send+0x994>
    44f6:	48 85 c0             	test   %rax,%rax
    44f9:	48 89 45 60          	mov    %rax,0x60(%rbp)
    44fd:	0f 84 f9 02 00 00    	je     47fc <handle_send+0x96c>
    4503:	48 8d 44 24 30       	lea    0x30(%rsp),%rax
    4508:	4c 39 f0             	cmp    %r14,%rax
    450b:	0f 85 ce 01 00 00    	jne    46df <handle_send+0x84f>
    4511:	c7 83 00 80 ff 7f 00 	movl   $0x0,0x7fff8000(%rbx)
    4518:	00 00 00 
    451b:	c7 83 08 80 ff 7f 00 	movl   $0x0,0x7fff8008(%rbx)
    4522:	00 00 00 
    4525:	48 81 c4 98 00 00 00 	add    $0x98,%rsp
    452c:	5b                   	pop    %rbx
    452d:	5d                   	pop    %rbp
    452e:	41 5c                	pop    %r12
    4530:	41 5d                	pop    %r13
    4532:	41 5e                	pop    %r14
    4534:	41 5f                	pop    %r15
    4536:	c3                   	retq   
    4537:	66 0f 1f 84 00 00 00 	nopw   0x0(%rax,%rax,1)
    453e:	00 00 
    4540:	48 83 e8 64          	sub    $0x64,%rax
    4544:	48 89 45 70          	mov    %rax,0x70(%rbp)
    4548:	e9 a3 fc ff ff       	jmpq   41f0 <handle_send+0x360>
    454d:	0f 1f 00             	nopl   (%rax)
    4550:	48 8d b9 70 01 00 00 	lea    0x170(%rcx),%rdi
    4557:	29 c2                	sub    %eax,%edx
    4559:	4c 63 c2             	movslq %edx,%r8
    455c:	48 89 f8             	mov    %rdi,%rax
    455f:	48 c1 e8 03          	shr    $0x3,%rax
    4563:	80 b8 00 80 ff 7f 00 	cmpb   $0x0,0x7fff8000(%rax)
    456a:	0f 85 96 01 00 00    	jne    4706 <handle_send+0x876>
    4570:	48 8b b9 70 01 00 00 	mov    0x170(%rcx),%rdi
    4577:	4c 89 c2             	mov    %r8,%rdx
    457a:	48 89 4c 24 28       	mov    %rcx,0x28(%rsp)
    457f:	4c 89 44 24 20       	mov    %r8,0x20(%rsp)
    4584:	48 01 fe             	add    %rdi,%rsi
    4587:	e8 00 00 00 00       	callq  458c <handle_send+0x6fc>
    458c:	4c 8b 44 24 20       	mov    0x20(%rsp),%r8
    4591:	48 8b 4c 24 28       	mov    0x28(%rsp),%rcx
    4596:	31 d2                	xor    %edx,%edx
    4598:	4c 89 81 d8 01 00 00 	mov    %r8,0x1d8(%rcx)
    459f:	e9 06 fb ff ff       	jmpq   40aa <handle_send+0x21a>
    45a4:	0f 1f 40 00          	nopl   0x0(%rax)
    45a8:	48 8b 44 24 10       	mov    0x10(%rsp),%rax
    45ad:	c7 45 00 03 00 00 00 	movl   $0x3,0x0(%rbp)
    45b4:	48 c1 e8 03          	shr    $0x3,%rax
    45b8:	0f b6 80 00 80 ff 7f 	movzbl 0x7fff8000(%rax),%eax
    45bf:	84 c0                	test   %al,%al
    45c1:	74 15                	je     45d8 <handle_send+0x748>
    45c3:	3c 03                	cmp    $0x3,%al
    45c5:	7f 11                	jg     45d8 <handle_send+0x748>
    45c7:	48 8b 7c 24 10       	mov    0x10(%rsp),%rdi
    45cc:	e8 00 00 00 00       	callq  45d1 <handle_send+0x741>
    45d1:	0f 1f 80 00 00 00 00 	nopl   0x0(%rax)
    45d8:	8b b9 c0 02 00 00    	mov    0x2c0(%rcx),%edi
    45de:	e8 00 00 00 00       	callq  45e3 <handle_send+0x753>
    45e3:	4c 89 e0             	mov    %r12,%rax
    45e6:	48 c1 e8 03          	shr    $0x3,%rax
    45ea:	80 b8 00 80 ff 7f 00 	cmpb   $0x0,0x7fff8000(%rax)
    45f1:	0f 85 73 01 00 00    	jne    476a <handle_send+0x8da>
    45f7:	48 8b 45 08          	mov    0x8(%rbp),%rax
    45fb:	48 8d b8 c8 00 00 00 	lea    0xc8(%rax),%rdi
    4602:	48 89 fa             	mov    %rdi,%rdx
    4605:	48 c1 ea 03          	shr    $0x3,%rdx
    4609:	80 ba 00 80 ff 7f 00 	cmpb   $0x0,0x7fff8000(%rdx)
    4610:	0f 85 4f 01 00 00    	jne    4765 <handle_send+0x8d5>
    4616:	48 8b 54 24 18       	mov    0x18(%rsp),%rdx
    461b:	48 8b 80 c8 00 00 00 	mov    0xc8(%rax),%rax
    4622:	48 c1 ea 03          	shr    $0x3,%rdx
    4626:	80 ba 00 80 ff 7f 00 	cmpb   $0x0,0x7fff8000(%rdx)
    462d:	0f 85 28 01 00 00    	jne    475b <handle_send+0x8cb>
    4633:	48 99                	cqto   
    4635:	4c 8d 65 60          	lea    0x60(%rbp),%r12
    4639:	48 f7 7d 40          	idivq  0x40(%rbp)
    463d:	44 29 e8             	sub    %r13d,%eax
    4640:	4c 63 e8             	movslq %eax,%r13
    4643:	4c 89 e0             	mov    %r12,%rax
    4646:	48 c1 e8 03          	shr    $0x3,%rax
    464a:	80 b8 00 80 ff 7f 00 	cmpb   $0x0,0x7fff8000(%rax)
    4651:	0f 85 fc 00 00 00    	jne    4753 <handle_send+0x8c3>
    4657:	48 83 7d 60 00       	cmpq   $0x0,0x60(%rbp)
    465c:	74 11                	je     466f <handle_send+0x7df>
    465e:	be 00 00 00 00       	mov    $0x0,%esi
    4663:	bf 03 00 00 00       	mov    $0x3,%edi
    4668:	31 c0                	xor    %eax,%eax
    466a:	e8 00 00 00 00       	callq  466f <handle_send+0x7df>
    466f:	45 85 ed             	test   %r13d,%r13d
    4672:	b9 f4 01 00 00       	mov    $0x1f4,%ecx
    4677:	7e 07                	jle    4680 <handle_send+0x7f0>
    4679:	49 69 cd e8 03 00 00 	imul   $0x3e8,%r13,%rcx
    4680:	48 8b 7c 24 08       	mov    0x8(%rsp),%rdi
    4685:	45 31 c0             	xor    %r8d,%r8d
    4688:	48 89 ea             	mov    %rbp,%rdx
    468b:	be 00 00 00 00       	mov    $0x0,%esi
    4690:	e8 00 00 00 00       	callq  4695 <handle_send+0x805>
    4695:	4c 89 e2             	mov    %r12,%rdx
    4698:	48 c1 ea 03          	shr    $0x3,%rdx
    469c:	80 ba 00 80 ff 7f 00 	cmpb   $0x0,0x7fff8000(%rdx)
    46a3:	0f 84 4d fe ff ff    	je     44f6 <handle_send+0x666>
    46a9:	4c 89 e7             	mov    %r12,%rdi
    46ac:	e8 00 00 00 00       	callq  46b1 <handle_send+0x821>
    46b1:	0f 1f 80 00 00 00 00 	nopl   0x0(%rax)
    46b8:	48 8b 74 24 08       	mov    0x8(%rsp),%rsi
    46bd:	48 89 ef             	mov    %rbp,%rdi
    46c0:	e8 db ec ff ff       	callq  33a0 <finish_connection>
    46c5:	e9 39 fe ff ff       	jmpq   4503 <handle_send+0x673>
    46ca:	4c 89 f6             	mov    %r14,%rsi
    46cd:	bf 60 00 00 00       	mov    $0x60,%edi
    46d2:	e8 00 00 00 00       	callq  46d7 <handle_send+0x847>
    46d7:	49 89 c6             	mov    %rax,%r14
    46da:	e9 dd f7 ff ff       	jmpq   3ebc <handle_send+0x2c>
    46df:	48 b8 f5 f5 f5 f5 f5 	movabs $0xf5f5f5f5f5f5f5f5,%rax
    46e6:	f5 f5 f5 
    46e9:	49 c7 06 0e 36 e0 45 	movq   $0x45e0360e,(%r14)
    46f0:	c7 83 08 80 ff 7f f5 	movl   $0xf5f5f5f5,0x7fff8008(%rbx)
    46f7:	f5 f5 f5 
    46fa:	48 89 83 00 80 ff 7f 	mov    %rax,0x7fff8000(%rbx)
    4701:	e9 1f fe ff ff       	jmpq   4525 <handle_send+0x695>
    4706:	e8 00 00 00 00       	callq  470b <handle_send+0x87b>
    470b:	4c 89 ff             	mov    %r15,%rdi
    470e:	e8 00 00 00 00       	callq  4713 <handle_send+0x883>
    4713:	48 8b 7c 24 10       	mov    0x10(%rsp),%rdi
    4718:	e8 00 00 00 00       	callq  471d <handle_send+0x88d>
    471d:	e8 00 00 00 00       	callq  4722 <handle_send+0x892>
    4722:	e8 00 00 00 00       	callq  4727 <handle_send+0x897>
    4727:	e8 00 00 00 00       	callq  472c <handle_send+0x89c>
    472c:	48 8b 7c 24 08       	mov    0x8(%rsp),%rdi
    4731:	e8 00 00 00 00       	callq  4736 <handle_send+0x8a6>
    4736:	e8 00 00 00 00       	callq  473b <handle_send+0x8ab>
    473b:	4c 89 e7             	mov    %r12,%rdi
    473e:	e8 00 00 00 00       	callq  4743 <handle_send+0x8b3>
    4743:	48 89 c7             	mov    %rax,%rdi
    4746:	e8 00 00 00 00       	callq  474b <handle_send+0x8bb>
    474b:	48 89 ef             	mov    %rbp,%rdi
    474e:	e8 00 00 00 00       	callq  4753 <handle_send+0x8c3>
    4753:	4c 89 e7             	mov    %r12,%rdi
    4756:	e8 00 00 00 00       	callq  475b <handle_send+0x8cb>
    475b:	48 8b 7c 24 18       	mov    0x18(%rsp),%rdi
    4760:	e8 00 00 00 00       	callq  4765 <handle_send+0x8d5>
    4765:	e8 00 00 00 00       	callq  476a <handle_send+0x8da>
    476a:	4c 89 e7             	mov    %r12,%rdi
    476d:	e8 00 00 00 00       	callq  4772 <handle_send+0x8e2>
    4772:	4c 89 e7             	mov    %r12,%rdi
    4775:	e8 00 00 00 00       	callq  477a <handle_send+0x8ea>
    477a:	4c 89 ef             	mov    %r13,%rdi
    477d:	e8 00 00 00 00       	callq  4782 <handle_send+0x8f2>
    4782:	4c 89 ef             	mov    %r13,%rdi
    4785:	e8 00 00 00 00       	callq  478a <handle_send+0x8fa>
    478a:	e8 00 00 00 00       	callq  478f <handle_send+0x8ff>
    478f:	e8 00 00 00 00       	callq  4794 <handle_send+0x904>
    4794:	e8 00 00 00 00       	callq  4799 <handle_send+0x909>
    4799:	48 89 f7             	mov    %rsi,%rdi
    479c:	e8 00 00 00 00       	callq  47a1 <handle_send+0x911>
    47a1:	4c 89 ff             	mov    %r15,%rdi
    47a4:	e8 00 00 00 00       	callq  47a9 <handle_send+0x919>
    47a9:	4c 89 c7             	mov    %r8,%rdi
    47ac:	e8 00 00 00 00       	callq  47b1 <handle_send+0x921>
    47b1:	48 8b 7c 24 10       	mov    0x10(%rsp),%rdi
    47b6:	e8 00 00 00 00       	callq  47bb <handle_send+0x92b>
    47bb:	48 8b 7c 24 10       	mov    0x10(%rsp),%rdi
    47c0:	e8 00 00 00 00       	callq  47c5 <handle_send+0x935>
    47c5:	4c 89 ff             	mov    %r15,%rdi
    47c8:	e8 00 00 00 00       	callq  47cd <handle_send+0x93d>
    47cd:	4c 89 ef             	mov    %r13,%rdi
    47d0:	e8 00 00 00 00       	callq  47d5 <handle_send+0x945>
    47d5:	4c 89 c7             	mov    %r8,%rdi
    47d8:	e8 00 00 00 00       	callq  47dd <handle_send+0x94d>
    47dd:	4c 89 ef             	mov    %r13,%rdi
    47e0:	e8 00 00 00 00       	callq  47e5 <handle_send+0x955>
    47e5:	4c 89 e7             	mov    %r12,%rdi
    47e8:	e8 00 00 00 00       	callq  47ed <handle_send+0x95d>
    47ed:	e8 00 00 00 00       	callq  47f2 <handle_send+0x962>
    47f2:	48 8b 7c 24 18       	mov    0x18(%rsp),%rdi
    47f7:	e8 00 00 00 00       	callq  47fc <handle_send+0x96c>
    47fc:	bf 02 00 00 00       	mov    $0x2,%edi
    4801:	be 00 00 00 00       	mov    $0x0,%esi
    4806:	31 c0                	xor    %eax,%eax
    4808:	e8 00 00 00 00       	callq  480d <handle_send+0x97d>
    480d:	e8 00 00 00 00       	callq  4812 <handle_send+0x982>
    4812:	bf 01 00 00 00       	mov    $0x1,%edi
    4817:	e8 00 00 00 00       	callq  481c <handle_send+0x98c>
    481c:	4c 89 e7             	mov    %r12,%rdi
    481f:	e8 00 00 00 00       	callq  4824 <handle_send+0x994>
    4824:	4c 89 ef             	mov    %r13,%rdi
    4827:	e8 00 00 00 00       	callq  482c <handle_send+0x99c>
    482c:	48 8b 7c 24 18       	mov    0x18(%rsp),%rdi
    4831:	e8 00 00 00 00       	callq  4836 <handle_send+0x9a6>
    4836:	e8 00 00 00 00       	callq  483b <handle_send+0x9ab>
    483b:	e8 00 00 00 00       	callq  4840 <linger_clear_connection>

0000000000004840 <linger_clear_connection>:
    4840:	48 83 ec 18          	sub    $0x18,%rsp
    4844:	48 89 e0             	mov    %rsp,%rax
    4847:	48 89 3c 24          	mov    %rdi,(%rsp)
    484b:	48 c1 e8 03          	shr    $0x3,%rax
    484f:	80 b8 00 80 ff 7f 00 	cmpb   $0x0,0x7fff8000(%rax)
    4856:	75 2a                	jne    4882 <linger_clear_connection+0x42>
    4858:	48 8b 3c 24          	mov    (%rsp),%rdi
    485c:	48 8d 47 68          	lea    0x68(%rdi),%rax
    4860:	48 89 c2             	mov    %rax,%rdx
    4863:	48 c1 ea 03          	shr    $0x3,%rdx
    4867:	80 ba 00 80 ff 7f 00 	cmpb   $0x0,0x7fff8000(%rdx)
    486e:	75 1a                	jne    488a <linger_clear_connection+0x4a>
    4870:	48 c7 47 68 00 00 00 	movq   $0x0,0x68(%rdi)
    4877:	00 
    4878:	e8 f3 e5 ff ff       	callq  2e70 <really_clear_connection>
    487d:	48 83 c4 18          	add    $0x18,%rsp
    4881:	c3                   	retq   
    4882:	48 89 e7             	mov    %rsp,%rdi
    4885:	e8 00 00 00 00       	callq  488a <linger_clear_connection+0x4a>
    488a:	48 89 c7             	mov    %rax,%rdi
    488d:	e8 00 00 00 00       	callq  4892 <linger_clear_connection+0x52>
    4892:	66 66 66 66 66 2e 0f 	data32 data32 data32 data32 nopw %cs:0x0(%rax,%rax,1)
    4899:	1f 84 00 00 00 00 00 

00000000000048a0 <handle_linger>:
    48a0:	41 56                	push   %r14
    48a2:	41 55                	push   %r13
    48a4:	49 89 fe             	mov    %rdi,%r14
    48a7:	41 54                	push   %r12
    48a9:	55                   	push   %rbp
    48aa:	49 89 f5             	mov    %rsi,%r13
    48ad:	53                   	push   %rbx
    48ae:	48 81 ec 40 10 00 00 	sub    $0x1040,%rsp
    48b5:	8b 05 00 00 00 00    	mov    0x0(%rip),%eax        # 48bb <handle_linger+0x1b>
    48bb:	48 89 e3             	mov    %rsp,%rbx
    48be:	49 89 e4             	mov    %rsp,%r12
    48c1:	85 c0                	test   %eax,%eax
    48c3:	0f 85 11 01 00 00    	jne    49da <handle_linger+0x13a>
    48c9:	49 8d 7e 08          	lea    0x8(%r14),%rdi
    48cd:	48 89 dd             	mov    %rbx,%rbp
    48d0:	48 c7 03 b3 8a b5 41 	movq   $0x41b58ab3,(%rbx)
    48d7:	48 c1 ed 03          	shr    $0x3,%rbp
    48db:	48 c7 43 08 00 00 00 	movq   $0x0,0x8(%rbx)
    48e2:	00 
    48e3:	48 c7 43 10 00 00 00 	movq   $0x0,0x10(%rbx)
    48ea:	00 
    48eb:	48 89 f8             	mov    %rdi,%rax
    48ee:	c7 85 00 80 ff 7f f1 	movl   $0xf1f1f1f1,0x7fff8000(%rbp)
    48f5:	f1 f1 f1 
    48f8:	c7 85 04 82 ff 7f f3 	movl   $0xf3f3f3f3,0x7fff8204(%rbp)
    48ff:	f3 f3 f3 
    4902:	48 c1 e8 03          	shr    $0x3,%rax
    4906:	48 8d b3 40 10 00 00 	lea    0x1040(%rbx),%rsi
    490d:	80 b8 00 80 ff 7f 00 	cmpb   $0x0,0x7fff8000(%rax)
    4914:	0f 85 f1 00 00 00    	jne    4a0b <handle_linger+0x16b>
    491a:	49 8b 46 08          	mov    0x8(%r14),%rax
    491e:	48 8d b8 c0 02 00 00 	lea    0x2c0(%rax),%rdi
    4925:	48 89 fa             	mov    %rdi,%rdx
    4928:	48 c1 ea 03          	shr    $0x3,%rdx
    492c:	0f b6 92 00 80 ff 7f 	movzbl 0x7fff8000(%rdx),%edx
    4933:	84 d2                	test   %dl,%dl
    4935:	74 09                	je     4940 <handle_linger+0xa0>
    4937:	80 fa 03             	cmp    $0x3,%dl
    493a:	0f 8e 8d 00 00 00    	jle    49cd <handle_linger+0x12d>
    4940:	8b b8 c0 02 00 00    	mov    0x2c0(%rax),%edi
    4946:	48 81 ee 20 10 00 00 	sub    $0x1020,%rsi
    494d:	ba 00 10 00 00       	mov    $0x1000,%edx
    4952:	e8 00 00 00 00       	callq  4957 <handle_linger+0xb7>
    4957:	85 c0                	test   %eax,%eax
    4959:	78 35                	js     4990 <handle_linger+0xf0>
    495b:	74 63                	je     49c0 <handle_linger+0x120>
    495d:	49 39 dc             	cmp    %rbx,%r12
    4960:	0f 85 89 00 00 00    	jne    49ef <handle_linger+0x14f>
    4966:	c7 85 00 80 ff 7f 00 	movl   $0x0,0x7fff8000(%rbp)
    496d:	00 00 00 
    4970:	c7 85 04 82 ff 7f 00 	movl   $0x0,0x7fff8204(%rbp)
    4977:	00 00 00 
    497a:	48 81 c4 40 10 00 00 	add    $0x1040,%rsp
    4981:	5b                   	pop    %rbx
    4982:	5d                   	pop    %rbp
    4983:	41 5c                	pop    %r12
    4985:	41 5d                	pop    %r13
    4987:	41 5e                	pop    %r14
    4989:	c3                   	retq   
    498a:	66 0f 1f 44 00 00    	nopw   0x0(%rax,%rax,1)
    4990:	e8 00 00 00 00       	callq  4995 <handle_linger+0xf5>
    4995:	48 89 c2             	mov    %rax,%rdx
    4998:	48 c1 ea 03          	shr    $0x3,%rdx
    499c:	0f b6 8a 00 80 ff 7f 	movzbl 0x7fff8000(%rdx),%ecx
    49a3:	48 89 c2             	mov    %rax,%rdx
    49a6:	83 e2 07             	and    $0x7,%edx
    49a9:	83 c2 03             	add    $0x3,%edx
    49ac:	38 ca                	cmp    %cl,%dl
    49ae:	7c 04                	jl     49b4 <handle_linger+0x114>
    49b0:	84 c9                	test   %cl,%cl
    49b2:	75 1e                	jne    49d2 <handle_linger+0x132>
    49b4:	8b 00                	mov    (%rax),%eax
    49b6:	83 f8 04             	cmp    $0x4,%eax
    49b9:	74 a2                	je     495d <handle_linger+0xbd>
    49bb:	83 f8 0b             	cmp    $0xb,%eax
    49be:	74 9d                	je     495d <handle_linger+0xbd>
    49c0:	4c 89 ee             	mov    %r13,%rsi
    49c3:	4c 89 f7             	mov    %r14,%rdi
    49c6:	e8 a5 e4 ff ff       	callq  2e70 <really_clear_connection>
    49cb:	eb 90                	jmp    495d <handle_linger+0xbd>
    49cd:	e8 00 00 00 00       	callq  49d2 <handle_linger+0x132>
    49d2:	48 89 c7             	mov    %rax,%rdi
    49d5:	e8 00 00 00 00       	callq  49da <handle_linger+0x13a>
    49da:	48 89 e6             	mov    %rsp,%rsi
    49dd:	bf 40 10 00 00       	mov    $0x1040,%edi
    49e2:	e8 00 00 00 00       	callq  49e7 <handle_linger+0x147>
    49e7:	48 89 c3             	mov    %rax,%rbx
    49ea:	e9 da fe ff ff       	jmpq   48c9 <handle_linger+0x29>
    49ef:	48 c7 03 0e 36 e0 45 	movq   $0x45e0360e,(%rbx)
    49f6:	4c 89 e2             	mov    %r12,%rdx
    49f9:	be 40 10 00 00       	mov    $0x1040,%esi
    49fe:	48 89 df             	mov    %rbx,%rdi
    4a01:	e8 00 00 00 00       	callq  4a06 <handle_linger+0x166>
    4a06:	e9 6f ff ff ff       	jmpq   497a <handle_linger+0xda>
    4a0b:	e8 00 00 00 00       	callq  4a10 <lookup_hostname.constprop.1>

0000000000004a10 <lookup_hostname.constprop.1>:
    4a10:	41 57                	push   %r15
    4a12:	41 56                	push   %r14
    4a14:	41 55                	push   %r13
    4a16:	41 54                	push   %r12
    4a18:	49 89 cd             	mov    %rcx,%r13
    4a1b:	55                   	push   %rbp
    4a1c:	53                   	push   %rbx
    4a1d:	49 89 f4             	mov    %rsi,%r12
    4a20:	48 81 ec 28 01 00 00 	sub    $0x128,%rsp
    4a27:	8b 05 00 00 00 00    	mov    0x0(%rip),%eax        # 4a2d <lookup_hostname.constprop.1+0x1d>
    4a2d:	48 89 7c 24 08       	mov    %rdi,0x8(%rsp)
    4a32:	48 89 54 24 10       	mov    %rdx,0x10(%rsp)
    4a37:	48 8d 5c 24 20       	lea    0x20(%rsp),%rbx
    4a3c:	85 c0                	test   %eax,%eax
    4a3e:	0f 85 74 03 00 00    	jne    4db8 <lookup_hostname.constprop.1+0x3a8>
    4a44:	4c 8d 93 a0 00 00 00 	lea    0xa0(%rbx),%r10
    4a4b:	49 89 df             	mov    %rbx,%r15
    4a4e:	48 c7 03 b3 8a b5 41 	movq   $0x41b58ab3,(%rbx)
    4a55:	49 c1 ef 03          	shr    $0x3,%r15
    4a59:	48 c7 43 08 00 00 00 	movq   $0x0,0x8(%rbx)
    4a60:	00 
    4a61:	48 c7 43 10 00 00 00 	movq   $0x0,0x10(%rbx)
    4a68:	00 
    4a69:	4c 89 d7             	mov    %r10,%rdi
    4a6c:	31 f6                	xor    %esi,%esi
    4a6e:	41 c7 87 00 80 ff 7f 	movl   $0xf1f1f1f1,0x7fff8000(%r15)
    4a75:	f1 f1 f1 f1 
    4a79:	41 c7 87 04 80 ff 7f 	movl   $0xf4f4f400,0x7fff8004(%r15)
    4a80:	00 f4 f4 f4 
    4a84:	41 c7 87 08 80 ff 7f 	movl   $0xf2f2f2f2,0x7fff8008(%r15)
    4a8b:	f2 f2 f2 f2 
    4a8f:	ba 30 00 00 00       	mov    $0x30,%edx
    4a94:	41 c7 87 0c 80 ff 7f 	movl   $0xf4f40200,0x7fff800c(%r15)
    4a9b:	00 02 f4 f4 
    4a9f:	41 c7 87 10 80 ff 7f 	movl   $0xf2f2f2f2,0x7fff8010(%r15)
    4aa6:	f2 f2 f2 f2 
    4aaa:	4c 8d 73 60          	lea    0x60(%rbx),%r14
    4aae:	41 c7 87 18 80 ff 7f 	movl   $0xf4f40000,0x7fff8018(%r15)
    4ab5:	00 00 f4 f4 
    4ab9:	41 c7 87 1c 80 ff 7f 	movl   $0xf3f3f3f3,0x7fff801c(%r15)
    4ac0:	f3 f3 f3 f3 
    4ac4:	48 8d ab 00 01 00 00 	lea    0x100(%rbx),%rbp
    4acb:	4c 89 54 24 18       	mov    %r10,0x18(%rsp)
    4ad0:	e8 00 00 00 00       	callq  4ad5 <lookup_hostname.constprop.1+0xc5>
    4ad5:	0f b7 0d 00 00 00 00 	movzwl 0x0(%rip),%ecx        # 4adc <lookup_hostname.constprop.1+0xcc>
    4adc:	4c 89 f7             	mov    %r14,%rdi
    4adf:	ba 00 00 00 00       	mov    $0x0,%edx
    4ae4:	be 0a 00 00 00       	mov    $0xa,%esi
    4ae9:	31 c0                	xor    %eax,%eax
    4aeb:	c7 45 a0 01 00 00 00 	movl   $0x1,-0x60(%rbp)
    4af2:	c7 45 a8 01 00 00 00 	movl   $0x1,-0x58(%rbp)
    4af9:	e8 00 00 00 00       	callq  4afe <lookup_hostname.constprop.1+0xee>
    4afe:	4c 8b 54 24 18       	mov    0x18(%rsp),%r10
    4b03:	48 8b 3d 00 00 00 00 	mov    0x0(%rip),%rdi        # 4b0a <lookup_hostname.constprop.1+0xfa>
    4b0a:	48 8d 4b 20          	lea    0x20(%rbx),%rcx
    4b0e:	4c 89 f6             	mov    %r14,%rsi
    4b11:	4c 89 d2             	mov    %r10,%rdx
    4b14:	e8 00 00 00 00       	callq  4b19 <lookup_hostname.constprop.1+0x109>
    4b19:	85 c0                	test   %eax,%eax
    4b1b:	41 89 c6             	mov    %eax,%r14d
    4b1e:	0f 85 ea 02 00 00    	jne    4e0e <lookup_hostname.constprop.1+0x3fe>
    4b24:	48 8b 85 20 ff ff ff 	mov    -0xe0(%rbp),%rax
    4b2b:	48 85 c0             	test   %rax,%rax
    4b2e:	0f 84 1d 02 00 00    	je     4d51 <lookup_hostname.constprop.1+0x341>
    4b34:	45 31 f6             	xor    %r14d,%r14d
    4b37:	45 31 d2             	xor    %r10d,%r10d
    4b3a:	eb 31                	jmp    4b6d <lookup_hostname.constprop.1+0x15d>
    4b3c:	0f 1f 40 00          	nopl   0x0(%rax)
    4b40:	83 fa 0a             	cmp    $0xa,%edx
    4b43:	75 07                	jne    4b4c <lookup_hostname.constprop.1+0x13c>
    4b45:	4d 85 d2             	test   %r10,%r10
    4b48:	4c 0f 44 d0          	cmove  %rax,%r10
    4b4c:	48 8d 78 28          	lea    0x28(%rax),%rdi
    4b50:	48 89 fa             	mov    %rdi,%rdx
    4b53:	48 c1 ea 03          	shr    $0x3,%rdx
    4b57:	80 ba 00 80 ff 7f 00 	cmpb   $0x0,0x7fff8000(%rdx)
    4b5e:	0f 85 9b 02 00 00    	jne    4dff <lookup_hostname.constprop.1+0x3ef>
    4b64:	48 8b 40 28          	mov    0x28(%rax),%rax
    4b68:	48 85 c0             	test   %rax,%rax
    4b6b:	74 43                	je     4bb0 <lookup_hostname.constprop.1+0x1a0>
    4b6d:	48 8d 78 04          	lea    0x4(%rax),%rdi
    4b71:	48 89 fa             	mov    %rdi,%rdx
    4b74:	48 c1 ea 03          	shr    $0x3,%rdx
    4b78:	0f b6 b2 00 80 ff 7f 	movzbl 0x7fff8000(%rdx),%esi
    4b7f:	48 89 fa             	mov    %rdi,%rdx
    4b82:	83 e2 07             	and    $0x7,%edx
    4b85:	83 c2 03             	add    $0x3,%edx
    4b88:	40 38 f2             	cmp    %sil,%dl
    4b8b:	7c 09                	jl     4b96 <lookup_hostname.constprop.1+0x186>
    4b8d:	40 84 f6             	test   %sil,%sil
    4b90:	0f 85 6e 02 00 00    	jne    4e04 <lookup_hostname.constprop.1+0x3f4>
    4b96:	8b 50 04             	mov    0x4(%rax),%edx
    4b99:	83 fa 02             	cmp    $0x2,%edx
    4b9c:	75 a2                	jne    4b40 <lookup_hostname.constprop.1+0x130>
    4b9e:	4d 85 f6             	test   %r14,%r14
    4ba1:	4c 0f 44 f0          	cmove  %rax,%r14
    4ba5:	eb a5                	jmp    4b4c <lookup_hostname.constprop.1+0x13c>
    4ba7:	66 0f 1f 84 00 00 00 	nopw   0x0(%rax,%rax,1)
    4bae:	00 00 
    4bb0:	4d 85 d2             	test   %r10,%r10
    4bb3:	0f 84 95 01 00 00    	je     4d4e <lookup_hostname.constprop.1+0x33e>
    4bb9:	49 8d 7a 10          	lea    0x10(%r10),%rdi
    4bbd:	48 89 f8             	mov    %rdi,%rax
    4bc0:	48 c1 e8 03          	shr    $0x3,%rax
    4bc4:	0f b6 80 00 80 ff 7f 	movzbl 0x7fff8000(%rax),%eax
    4bcb:	84 c0                	test   %al,%al
    4bcd:	74 08                	je     4bd7 <lookup_hostname.constprop.1+0x1c7>
    4bcf:	3c 03                	cmp    $0x3,%al
    4bd1:	0f 8e b8 02 00 00    	jle    4e8f <lookup_hostname.constprop.1+0x47f>
    4bd7:	45 8b 42 10          	mov    0x10(%r10),%r8d
    4bdb:	49 81 f8 80 00 00 00 	cmp    $0x80,%r8
    4be2:	0f 87 b1 02 00 00    	ja     4e99 <lookup_hostname.constprop.1+0x489>
    4be8:	48 8b 7c 24 10       	mov    0x10(%rsp),%rdi
    4bed:	ba 80 00 00 00       	mov    $0x80,%edx
    4bf2:	31 f6                	xor    %esi,%esi
    4bf4:	4c 89 54 24 18       	mov    %r10,0x18(%rsp)
    4bf9:	e8 00 00 00 00       	callq  4bfe <lookup_hostname.constprop.1+0x1ee>
    4bfe:	4c 8b 54 24 18       	mov    0x18(%rsp),%r10
    4c03:	49 8d 7a 18          	lea    0x18(%r10),%rdi
    4c07:	41 8b 52 10          	mov    0x10(%r10),%edx
    4c0b:	48 89 f8             	mov    %rdi,%rax
    4c0e:	48 c1 e8 03          	shr    $0x3,%rax
    4c12:	80 b8 00 80 ff 7f 00 	cmpb   $0x0,0x7fff8000(%rax)
    4c19:	0f 85 75 02 00 00    	jne    4e94 <lookup_hostname.constprop.1+0x484>
    4c1f:	49 8b 72 18          	mov    0x18(%r10),%rsi
    4c23:	48 8b 7c 24 10       	mov    0x10(%rsp),%rdi
    4c28:	e8 00 00 00 00       	callq  4c2d <lookup_hostname.constprop.1+0x21d>
    4c2d:	4c 89 e8             	mov    %r13,%rax
    4c30:	48 c1 e8 03          	shr    $0x3,%rax
    4c34:	0f b6 90 00 80 ff 7f 	movzbl 0x7fff8000(%rax),%edx
    4c3b:	4c 89 e8             	mov    %r13,%rax
    4c3e:	83 e0 07             	and    $0x7,%eax
    4c41:	83 c0 03             	add    $0x3,%eax
    4c44:	38 d0                	cmp    %dl,%al
    4c46:	7c 08                	jl     4c50 <lookup_hostname.constprop.1+0x240>
    4c48:	84 d2                	test   %dl,%dl
    4c4a:	0f 85 2d 02 00 00    	jne    4e7d <lookup_hostname.constprop.1+0x46d>
    4c50:	41 c7 45 00 01 00 00 	movl   $0x1,0x0(%r13)
    4c57:	00 
    4c58:	4d 85 f6             	test   %r14,%r14
    4c5b:	0f 84 1f 01 00 00    	je     4d80 <lookup_hostname.constprop.1+0x370>
    4c61:	49 8d 7e 10          	lea    0x10(%r14),%rdi
    4c65:	48 89 f8             	mov    %rdi,%rax
    4c68:	48 c1 e8 03          	shr    $0x3,%rax
    4c6c:	0f b6 80 00 80 ff 7f 	movzbl 0x7fff8000(%rax),%eax
    4c73:	84 c0                	test   %al,%al
    4c75:	74 08                	je     4c7f <lookup_hostname.constprop.1+0x26f>
    4c77:	3c 03                	cmp    $0x3,%al
    4c79:	0f 8e 4e 02 00 00    	jle    4ecd <lookup_hostname.constprop.1+0x4bd>
    4c7f:	45 8b 46 10          	mov    0x10(%r14),%r8d
    4c83:	49 81 f8 80 00 00 00 	cmp    $0x80,%r8
    4c8a:	0f 87 09 02 00 00    	ja     4e99 <lookup_hostname.constprop.1+0x489>
    4c90:	48 8b 7c 24 08       	mov    0x8(%rsp),%rdi
    4c95:	ba 80 00 00 00       	mov    $0x80,%edx
    4c9a:	31 f6                	xor    %esi,%esi
    4c9c:	e8 00 00 00 00       	callq  4ca1 <lookup_hostname.constprop.1+0x291>
    4ca1:	49 8d 7e 18          	lea    0x18(%r14),%rdi
    4ca5:	41 8b 56 10          	mov    0x10(%r14),%edx
    4ca9:	48 89 f8             	mov    %rdi,%rax
    4cac:	48 c1 e8 03          	shr    $0x3,%rax
    4cb0:	80 b8 00 80 ff 7f 00 	cmpb   $0x0,0x7fff8000(%rax)
    4cb7:	0f 85 4c 01 00 00    	jne    4e09 <lookup_hostname.constprop.1+0x3f9>
    4cbd:	49 8b 76 18          	mov    0x18(%r14),%rsi
    4cc1:	48 8b 7c 24 08       	mov    0x8(%rsp),%rdi
    4cc6:	e8 00 00 00 00       	callq  4ccb <lookup_hostname.constprop.1+0x2bb>
    4ccb:	4c 89 e0             	mov    %r12,%rax
    4cce:	48 c1 e8 03          	shr    $0x3,%rax
    4cd2:	0f b6 90 00 80 ff 7f 	movzbl 0x7fff8000(%rax),%edx
    4cd9:	4c 89 e0             	mov    %r12,%rax
    4cdc:	83 e0 07             	and    $0x7,%eax
    4cdf:	83 c0 03             	add    $0x3,%eax
    4ce2:	38 d0                	cmp    %dl,%al
    4ce4:	7c 08                	jl     4cee <lookup_hostname.constprop.1+0x2de>
    4ce6:	84 d2                	test   %dl,%dl
    4ce8:	0f 85 d7 01 00 00    	jne    4ec5 <lookup_hostname.constprop.1+0x4b5>
    4cee:	41 c7 04 24 01 00 00 	movl   $0x1,(%r12)
    4cf5:	00 
    4cf6:	48 8b bd 20 ff ff ff 	mov    -0xe0(%rbp),%rdi
    4cfd:	e8 00 00 00 00       	callq  4d02 <lookup_hostname.constprop.1+0x2f2>
    4d02:	48 8d 44 24 20       	lea    0x20(%rsp),%rax
    4d07:	48 39 d8             	cmp    %rbx,%rax
    4d0a:	0f 85 bd 00 00 00    	jne    4dcd <lookup_hostname.constprop.1+0x3bd>
    4d10:	49 c7 87 00 80 ff 7f 	movq   $0x0,0x7fff8000(%r15)
    4d17:	00 00 00 00 
    4d1b:	49 c7 87 08 80 ff 7f 	movq   $0x0,0x7fff8008(%r15)
    4d22:	00 00 00 00 
    4d26:	41 c7 87 10 80 ff 7f 	movl   $0x0,0x7fff8010(%r15)
    4d2d:	00 00 00 00 
    4d31:	49 c7 87 18 80 ff 7f 	movq   $0x0,0x7fff8018(%r15)
    4d38:	00 00 00 00 
    4d3c:	48 81 c4 28 01 00 00 	add    $0x128,%rsp
    4d43:	5b                   	pop    %rbx
    4d44:	5d                   	pop    %rbp
    4d45:	41 5c                	pop    %r12
    4d47:	41 5d                	pop    %r13
    4d49:	41 5e                	pop    %r14
    4d4b:	41 5f                	pop    %r15
    4d4d:	c3                   	retq   
    4d4e:	4c 89 f0             	mov    %r14,%rax
    4d51:	4c 89 ea             	mov    %r13,%rdx
    4d54:	48 c1 ea 03          	shr    $0x3,%rdx
    4d58:	0f b6 8a 00 80 ff 7f 	movzbl 0x7fff8000(%rdx),%ecx
    4d5f:	4c 89 ea             	mov    %r13,%rdx
    4d62:	83 e2 07             	and    $0x7,%edx
    4d65:	83 c2 03             	add    $0x3,%edx
    4d68:	38 ca                	cmp    %cl,%dl
    4d6a:	7c 04                	jl     4d70 <lookup_hostname.constprop.1+0x360>
    4d6c:	84 c9                	test   %cl,%cl
    4d6e:	75 40                	jne    4db0 <lookup_hostname.constprop.1+0x3a0>
    4d70:	41 c7 45 00 00 00 00 	movl   $0x0,0x0(%r13)
    4d77:	00 
    4d78:	49 89 c6             	mov    %rax,%r14
    4d7b:	e9 d8 fe ff ff       	jmpq   4c58 <lookup_hostname.constprop.1+0x248>
    4d80:	4c 89 e0             	mov    %r12,%rax
    4d83:	48 c1 e8 03          	shr    $0x3,%rax
    4d87:	0f b6 90 00 80 ff 7f 	movzbl 0x7fff8000(%rax),%edx
    4d8e:	4c 89 e0             	mov    %r12,%rax
    4d91:	83 e0 07             	and    $0x7,%eax
    4d94:	83 c0 03             	add    $0x3,%eax
    4d97:	38 d0                	cmp    %dl,%al
    4d99:	7c 08                	jl     4da3 <lookup_hostname.constprop.1+0x393>
    4d9b:	84 d2                	test   %dl,%dl
    4d9d:	0f 85 2f 01 00 00    	jne    4ed2 <lookup_hostname.constprop.1+0x4c2>
    4da3:	41 c7 04 24 00 00 00 	movl   $0x0,(%r12)
    4daa:	00 
    4dab:	e9 46 ff ff ff       	jmpq   4cf6 <lookup_hostname.constprop.1+0x2e6>
    4db0:	4c 89 ef             	mov    %r13,%rdi
    4db3:	e8 00 00 00 00       	callq  4db8 <lookup_hostname.constprop.1+0x3a8>
    4db8:	48 89 de             	mov    %rbx,%rsi
    4dbb:	bf 00 01 00 00       	mov    $0x100,%edi
    4dc0:	e8 00 00 00 00       	callq  4dc5 <lookup_hostname.constprop.1+0x3b5>
    4dc5:	48 89 c3             	mov    %rax,%rbx
    4dc8:	e9 77 fc ff ff       	jmpq   4a44 <lookup_hostname.constprop.1+0x34>
    4dcd:	48 b8 f5 f5 f5 f5 f5 	movabs $0xf5f5f5f5f5f5f5f5,%rax
    4dd4:	f5 f5 f5 
    4dd7:	48 c7 03 0e 36 e0 45 	movq   $0x45e0360e,(%rbx)
    4dde:	49 89 87 00 80 ff 7f 	mov    %rax,0x7fff8000(%r15)
    4de5:	49 89 87 08 80 ff 7f 	mov    %rax,0x7fff8008(%r15)
    4dec:	49 89 87 10 80 ff 7f 	mov    %rax,0x7fff8010(%r15)
    4df3:	49 89 87 18 80 ff 7f 	mov    %rax,0x7fff8018(%r15)
    4dfa:	e9 3d ff ff ff       	jmpq   4d3c <lookup_hostname.constprop.1+0x32c>
    4dff:	e8 00 00 00 00       	callq  4e04 <lookup_hostname.constprop.1+0x3f4>
    4e04:	e8 00 00 00 00       	callq  4e09 <lookup_hostname.constprop.1+0x3f9>
    4e09:	e8 00 00 00 00       	callq  4e0e <lookup_hostname.constprop.1+0x3fe>
    4e0e:	89 c7                	mov    %eax,%edi
    4e10:	e8 00 00 00 00       	callq  4e15 <lookup_hostname.constprop.1+0x405>
    4e15:	48 8b 15 00 00 00 00 	mov    0x0(%rip),%rdx        # 4e1c <lookup_hostname.constprop.1+0x40c>
    4e1c:	48 89 c1             	mov    %rax,%rcx
    4e1f:	be 00 00 00 00       	mov    $0x0,%esi
    4e24:	31 c0                	xor    %eax,%eax
    4e26:	bf 02 00 00 00       	mov    $0x2,%edi
    4e2b:	e8 00 00 00 00       	callq  4e30 <lookup_hostname.constprop.1+0x420>
    4e30:	44 89 f7             	mov    %r14d,%edi
    4e33:	e8 00 00 00 00       	callq  4e38 <lookup_hostname.constprop.1+0x428>
    4e38:	be 00 00 00 00       	mov    $0x0,%esi
    4e3d:	49 89 c0             	mov    %rax,%r8
    4e40:	48 8b 0d 00 00 00 00 	mov    0x0(%rip),%rcx        # 4e47 <lookup_hostname.constprop.1+0x437>
    4e47:	48 c1 ee 03          	shr    $0x3,%rsi
    4e4b:	48 8b 15 00 00 00 00 	mov    0x0(%rip),%rdx        # 4e52 <lookup_hostname.constprop.1+0x442>
    4e52:	80 be 00 80 ff 7f 00 	cmpb   $0x0,0x7fff8000(%rsi)
    4e59:	75 2a                	jne    4e85 <lookup_hostname.constprop.1+0x475>
    4e5b:	48 8b 3d 00 00 00 00 	mov    0x0(%rip),%rdi        # 4e62 <lookup_hostname.constprop.1+0x452>
    4e62:	be 00 00 00 00       	mov    $0x0,%esi
    4e67:	31 c0                	xor    %eax,%eax
    4e69:	e8 00 00 00 00       	callq  4e6e <lookup_hostname.constprop.1+0x45e>
    4e6e:	e8 00 00 00 00       	callq  4e73 <lookup_hostname.constprop.1+0x463>
    4e73:	bf 01 00 00 00       	mov    $0x1,%edi
    4e78:	e8 00 00 00 00       	callq  4e7d <lookup_hostname.constprop.1+0x46d>
    4e7d:	4c 89 ef             	mov    %r13,%rdi
    4e80:	e8 00 00 00 00       	callq  4e85 <lookup_hostname.constprop.1+0x475>
    4e85:	bf 00 00 00 00       	mov    $0x0,%edi
    4e8a:	e8 00 00 00 00       	callq  4e8f <lookup_hostname.constprop.1+0x47f>
    4e8f:	e8 00 00 00 00       	callq  4e94 <lookup_hostname.constprop.1+0x484>
    4e94:	e8 00 00 00 00       	callq  4e99 <lookup_hostname.constprop.1+0x489>
    4e99:	48 8b 15 00 00 00 00 	mov    0x0(%rip),%rdx        # 4ea0 <lookup_hostname.constprop.1+0x490>
    4ea0:	bf 02 00 00 00       	mov    $0x2,%edi
    4ea5:	b9 80 00 00 00       	mov    $0x80,%ecx
    4eaa:	be 00 00 00 00       	mov    $0x0,%esi
    4eaf:	31 c0                	xor    %eax,%eax
    4eb1:	e8 00 00 00 00       	callq  4eb6 <lookup_hostname.constprop.1+0x4a6>
    4eb6:	e8 00 00 00 00       	callq  4ebb <lookup_hostname.constprop.1+0x4ab>
    4ebb:	bf 01 00 00 00       	mov    $0x1,%edi
    4ec0:	e8 00 00 00 00       	callq  4ec5 <lookup_hostname.constprop.1+0x4b5>
    4ec5:	4c 89 e7             	mov    %r12,%rdi
    4ec8:	e8 00 00 00 00       	callq  4ecd <lookup_hostname.constprop.1+0x4bd>
    4ecd:	e8 00 00 00 00       	callq  4ed2 <lookup_hostname.constprop.1+0x4c2>
    4ed2:	4c 89 e7             	mov    %r12,%rdi
    4ed5:	e8 00 00 00 00       	callq  4eda <lookup_hostname.constprop.1+0x4ca>

Disassembly of section .data:

0000000000000000 <.data>:
	...
       8:	87 00                	xchg   %eax,(%rax)
       a:	00 00                	add    %al,(%rax)
       c:	28 00                	sub    %al,(%rax)
	...
      16:	00 00                	add    %al,(%rax)
      18:	87 00                	xchg   %eax,(%rax)
      1a:	00 00                	add    %al,(%rax)
      1c:	1e                   	(bad)  
	...
      25:	00 00                	add    %al,(%rax)
      27:	00 87 00 00 00 15    	add    %al,0x15000000(%rdi)
	...
      35:	00 00                	add    %al,(%rax)
      37:	00 81 00 00 00 05    	add    %al,0x5000000(%rcx)
	...
      45:	00 00                	add    %al,(%rax)
      47:	00 80 00 00 00 16    	add    %al,0x16000000(%rax)
	...
      55:	00 00                	add    %al,(%rax)
      57:	00 76 00             	add    %dh,0x0(%rsi)
      5a:	00 00                	add    %al,(%rax)
      5c:	0c 00                	or     $0x0,%al
	...
      66:	00 00                	add    %al,(%rax)
      68:	75 00                	jne    6a <.data+0x6a>
      6a:	00 00                	add    %al,(%rax)
      6c:	28 00                	sub    %al,(%rax)
	...
      76:	00 00                	add    %al,(%rax)
      78:	75 00                	jne    7a <.data+0x7a>
      7a:	00 00                	add    %al,(%rax)
      7c:	1a 00                	sbb    (%rax),%al
	...
      86:	00 00                	add    %al,(%rax)
      88:	75 00                	jne    8a <.data+0x8a>
      8a:	00 00                	add    %al,(%rax)
      8c:	0c 00                	or     $0x0,%al
	...
      96:	00 00                	add    %al,(%rax)
      98:	74 00                	je     9a <.data+0x9a>
      9a:	00 00                	add    %al,(%rax)
      9c:	14 00                	adc    $0x0,%al
	...
      a6:	00 00                	add    %al,(%rax)
      a8:	60                   	(bad)  
      a9:	00 00                	add    %al,(%rax)
      ab:	00 1a                	add    %bl,(%rdx)
	...
      b5:	00 00                	add    %al,(%rax)
      b7:	00 60 00             	add    %ah,0x0(%rax)
      ba:	00 00                	add    %al,(%rax)
      bc:	0c 00                	or     $0x0,%al
	...
      c6:	00 00                	add    %al,(%rax)
      c8:	5f                   	pop    %rdi
      c9:	00 00                	add    %al,(%rax)
      cb:	00 15 00 00 00 00    	add    %dl,0x0(%rip)        # d1 <.data+0xd1>
      d1:	00 00                	add    %al,(%rax)
      d3:	00 00                	add    %al,(%rax)
      d5:	00 00                	add    %al,(%rax)
      d7:	00 55 00             	add    %dl,0x0(%rbp)
      da:	00 00                	add    %al,(%rax)
      dc:	0c 00                	or     $0x0,%al
	...
      e6:	00 00                	add    %al,(%rax)
      e8:	54                   	push   %rsp
      e9:	00 00                	add    %al,(%rax)
      eb:	00 0e                	add    %cl,(%rsi)
	...
      f5:	00 00                	add    %al,(%rax)
      f7:	00 53 00             	add    %dl,0x0(%rbx)
      fa:	00 00                	add    %al,(%rax)
      fc:	0e                   	(bad)  
	...
     105:	00 00                	add    %al,(%rax)
     107:	00 52 00             	add    %dl,0x0(%rdx)
     10a:	00 00                	add    %al,(%rax)
     10c:	0e                   	(bad)  
	...
     115:	00 00                	add    %al,(%rax)
     117:	00 51 00             	add    %dl,0x0(%rcx)
     11a:	00 00                	add    %al,(%rax)
     11c:	0e                   	(bad)  
	...
     125:	00 00                	add    %al,(%rax)
     127:	00 50 00             	add    %dl,0x0(%rax)
     12a:	00 00                	add    %al,(%rax)
     12c:	0e                   	(bad)  
	...
     135:	00 00                	add    %al,(%rax)
     137:	00 4f 00             	add    %cl,0x0(%rdi)
     13a:	00 00                	add    %al,(%rax)
     13c:	0e                   	(bad)  
	...
     145:	00 00                	add    %al,(%rax)
     147:	00 4e 00             	add    %cl,0x0(%rsi)
     14a:	00 00                	add    %al,(%rax)
     14c:	0e                   	(bad)  
	...
     155:	00 00                	add    %al,(%rax)
     157:	00 4d 00             	add    %cl,0x0(%rbp)
     15a:	00 00                	add    %al,(%rax)
     15c:	0e                   	(bad)  
	...
     165:	00 00                	add    %al,(%rax)
     167:	00 4c 00 00          	add    %cl,0x0(%rax,%rax,1)
     16b:	00 0c 00             	add    %cl,(%rax,%rax,1)
	...
     176:	00 00                	add    %al,(%rax)
     178:	4b 00 00             	rex.WXB add %al,(%r8)
     17b:	00 0e                	add    %cl,(%rsi)
	...
     185:	00 00                	add    %al,(%rax)
     187:	00 4a 00             	add    %cl,0x0(%rdx)
     18a:	00 00                	add    %al,(%rax)
     18c:	0c 00                	or     $0x0,%al
	...
     196:	00 00                	add    %al,(%rax)
     198:	49 00 00             	rex.WB add %al,(%r8)
     19b:	00 0e                	add    %cl,(%rsi)
	...
     1a5:	00 00                	add    %al,(%rax)
     1a7:	00 48 00             	add    %cl,0x0(%rax)
     1aa:	00 00                	add    %al,(%rax)
     1ac:	3b 00                	cmp    (%rax),%eax
	...
     1b6:	00 00                	add    %al,(%rax)
     1b8:	48 00 00             	rex.W add %al,(%rax)
     1bb:	00 31                	add    %dh,(%rcx)
	...
     1c5:	00 00                	add    %al,(%rax)
     1c7:	00 48 00             	add    %cl,0x0(%rax)
     1ca:	00 00                	add    %al,(%rax)
     1cc:	1f                   	(bad)  
	...
     1d5:	00 00                	add    %al,(%rax)
     1d7:	00 48 00             	add    %cl,0x0(%rax)
     1da:	00 00                	add    %al,(%rax)
     1dc:	17                   	(bad)  
	...
     1e5:	00 00                	add    %al,(%rax)
     1e7:	00 48 00             	add    %cl,0x0(%rax)
     1ea:	00 00                	add    %al,(%rax)
     1ec:	0c 00                	or     $0x0,%al
	...
     1f6:	00 00                	add    %al,(%rax)
     1f8:	47 00 00             	rex.RXB add %r8b,(%r8)
     1fb:	00 0e                	add    %cl,(%rsi)
	...
     205:	00 00                	add    %al,(%rax)
     207:	00 46 00             	add    %al,0x0(%rsi)
     20a:	00 00                	add    %al,(%rax)
     20c:	0e                   	(bad)  
	...
     215:	00 00                	add    %al,(%rax)
     217:	00 45 00             	add    %al,0x0(%rbp)
     21a:	00 00                	add    %al,(%rax)
     21c:	17                   	(bad)  
	...
     225:	00 00                	add    %al,(%rax)
     227:	00 44 00 00          	add    %al,0x0(%rax,%rax,1)
     22b:	00 0c 00             	add    %cl,(%rax,%rax,1)
	...
     236:	00 00                	add    %al,(%rax)
     238:	43 00 00             	rex.XB add %al,(%r8)
     23b:	00 0e                	add    %cl,(%rsi)
	...
     245:	00 00                	add    %al,(%rax)
     247:	00 04 00             	add    %al,(%rax,%rax,1)
     24a:	00 00                	add    %al,(%rax)
     24c:	00 00                	add    %al,(%rax)
     24e:	00 00                	add    %al,(%rax)
     250:	40 00 00             	add    %al,(%rax)
	...
     27f:	00 04 00             	add    %al,(%rax,%rax,1)
     282:	00 00                	add    %al,(%rax)
     284:	00 00                	add    %al,(%rax)
     286:	00 00                	add    %al,(%rax)
     288:	40 00 00             	add    %al,(%rax)
	...
     2b7:	00 04 00             	add    %al,(%rax,%rax,1)
     2ba:	00 00                	add    %al,(%rax)
     2bc:	00 00                	add    %al,(%rax)
     2be:	00 00                	add    %al,(%rax)
     2c0:	40 00 00             	add    %al,(%rax)
	...
     2ef:	00 04 00             	add    %al,(%rax,%rax,1)
     2f2:	00 00                	add    %al,(%rax)
     2f4:	00 00                	add    %al,(%rax)
     2f6:	00 00                	add    %al,(%rax)
     2f8:	40 00 00             	add    %al,(%rax)
	...
     327:	00 08                	add    %cl,(%rax)
     329:	00 00                	add    %al,(%rax)
     32b:	00 00                	add    %al,(%rax)
     32d:	00 00                	add    %al,(%rax)
     32f:	00 40 00             	add    %al,0x0(%rax)
	...
     35e:	00 00                	add    %al,(%rax)
     360:	04 00                	add    $0x0,%al
     362:	00 00                	add    %al,(%rax)
     364:	00 00                	add    %al,(%rax)
     366:	00 00                	add    %al,(%rax)
     368:	40 00 00             	add    %al,(%rax)
	...
     397:	00 04 00             	add    %al,(%rax,%rax,1)
     39a:	00 00                	add    %al,(%rax)
     39c:	00 00                	add    %al,(%rax)
     39e:	00 00                	add    %al,(%rax)
     3a0:	40 00 00             	add    %al,(%rax)
	...
     3cf:	00 04 00             	add    %al,(%rax,%rax,1)
     3d2:	00 00                	add    %al,(%rax)
     3d4:	00 00                	add    %al,(%rax)
     3d6:	00 00                	add    %al,(%rax)
     3d8:	40 00 00             	add    %al,(%rax)
	...
     407:	00 04 00             	add    %al,(%rax,%rax,1)
     40a:	00 00                	add    %al,(%rax)
     40c:	00 00                	add    %al,(%rax)
     40e:	00 00                	add    %al,(%rax)
     410:	40 00 00             	add    %al,(%rax)
	...
     43f:	00 08                	add    %cl,(%rax)
     441:	00 00                	add    %al,(%rax)
     443:	00 00                	add    %al,(%rax)
     445:	00 00                	add    %al,(%rax)
     447:	00 40 00             	add    %al,0x0(%rax)
	...
     476:	00 00                	add    %al,(%rax)
     478:	04 00                	add    $0x0,%al
     47a:	00 00                	add    %al,(%rax)
     47c:	00 00                	add    %al,(%rax)
     47e:	00 00                	add    %al,(%rax)
     480:	40 00 00             	add    %al,(%rax)
	...
     4af:	00 04 00             	add    %al,(%rax,%rax,1)
     4b2:	00 00                	add    %al,(%rax)
     4b4:	00 00                	add    %al,(%rax)
     4b6:	00 00                	add    %al,(%rax)
     4b8:	40 00 00             	add    %al,(%rax)
	...
     4e7:	00 08                	add    %cl,(%rax)
     4e9:	00 00                	add    %al,(%rax)
     4eb:	00 00                	add    %al,(%rax)
     4ed:	00 00                	add    %al,(%rax)
     4ef:	00 40 00             	add    %al,0x0(%rax)
	...
     51e:	00 00                	add    %al,(%rax)
     520:	04 00                	add    $0x0,%al
     522:	00 00                	add    %al,(%rax)
     524:	00 00                	add    %al,(%rax)
     526:	00 00                	add    %al,(%rax)
     528:	40 00 00             	add    %al,(%rax)
	...
     557:	00 08                	add    %cl,(%rax)
     559:	00 00                	add    %al,(%rax)
     55b:	00 00                	add    %al,(%rax)
     55d:	00 00                	add    %al,(%rax)
     55f:	00 40 00             	add    %al,0x0(%rax)
	...
     58e:	00 00                	add    %al,(%rax)
     590:	08 00                	or     %al,(%rax)
     592:	00 00                	add    %al,(%rax)
     594:	00 00                	add    %al,(%rax)
     596:	00 00                	add    %al,(%rax)
     598:	40 00 00             	add    %al,(%rax)
	...
     5c7:	00 08                	add    %cl,(%rax)
     5c9:	00 00                	add    %al,(%rax)
     5cb:	00 00                	add    %al,(%rax)
     5cd:	00 00                	add    %al,(%rax)
     5cf:	00 40 00             	add    %al,0x0(%rax)
	...
     5fe:	00 00                	add    %al,(%rax)
     600:	08 00                	or     %al,(%rax)
     602:	00 00                	add    %al,(%rax)
     604:	00 00                	add    %al,(%rax)
     606:	00 00                	add    %al,(%rax)
     608:	40 00 00             	add    %al,(%rax)
	...
     637:	00 08                	add    %cl,(%rax)
     639:	00 00                	add    %al,(%rax)
     63b:	00 00                	add    %al,(%rax)
     63d:	00 00                	add    %al,(%rax)
     63f:	00 40 00             	add    %al,0x0(%rax)
	...
     66e:	00 00                	add    %al,(%rax)
     670:	08 00                	or     %al,(%rax)
     672:	00 00                	add    %al,(%rax)
     674:	00 00                	add    %al,(%rax)
     676:	00 00                	add    %al,(%rax)
     678:	40 00 00             	add    %al,(%rax)
	...
     6a7:	00 08                	add    %cl,(%rax)
     6a9:	00 00                	add    %al,(%rax)
     6ab:	00 00                	add    %al,(%rax)
     6ad:	00 00                	add    %al,(%rax)
     6af:	00 40 00             	add    %al,0x0(%rax)
	...
     6de:	00 00                	add    %al,(%rax)
     6e0:	08 00                	or     %al,(%rax)
     6e2:	00 00                	add    %al,(%rax)
     6e4:	00 00                	add    %al,(%rax)
     6e6:	00 00                	add    %al,(%rax)
     6e8:	40 00 00             	add    %al,(%rax)
	...
     717:	00 04 00             	add    %al,(%rax,%rax,1)
     71a:	00 00                	add    %al,(%rax)
     71c:	00 00                	add    %al,(%rax)
     71e:	00 00                	add    %al,(%rax)
     720:	40 00 00             	add    %al,(%rax)
	...
     74f:	00 08                	add    %cl,(%rax)
     751:	00 00                	add    %al,(%rax)
     753:	00 00                	add    %al,(%rax)
     755:	00 00                	add    %al,(%rax)
     757:	00 40 00             	add    %al,0x0(%rax)
	...
     786:	00 00                	add    %al,(%rax)
     788:	04 00                	add    $0x0,%al
     78a:	00 00                	add    %al,(%rax)
     78c:	00 00                	add    %al,(%rax)
     78e:	00 00                	add    %al,(%rax)
     790:	40 00 00             	add    %al,(%rax)
	...
     7bf:	00 08                	add    %cl,(%rax)
     7c1:	00 00                	add    %al,(%rax)
     7c3:	00 00                	add    %al,(%rax)
     7c5:	00 00                	add    %al,(%rax)
     7c7:	00 40 00             	add    %al,0x0(%rax)
	...
     7f6:	00 00                	add    %al,(%rax)
     7f8:	04 00                	add    $0x0,%al
     7fa:	00 00                	add    %al,(%rax)
     7fc:	00 00                	add    %al,(%rax)
     7fe:	00 00                	add    %al,(%rax)
     800:	40 00 00             	add    %al,(%rax)
	...
     82f:	00 04 00             	add    %al,(%rax,%rax,1)
     832:	00 00                	add    %al,(%rax)
     834:	00 00                	add    %al,(%rax)
     836:	00 00                	add    %al,(%rax)
     838:	40 00 00             	add    %al,(%rax)
	...
     867:	00 04 00             	add    %al,(%rax,%rax,1)
     86a:	00 00                	add    %al,(%rax)
     86c:	00 00                	add    %al,(%rax)
     86e:	00 00                	add    %al,(%rax)
     870:	40 00 00             	add    %al,(%rax)
	...
     89f:	00 04 00             	add    %al,(%rax,%rax,1)
     8a2:	00 00                	add    %al,(%rax)
     8a4:	00 00                	add    %al,(%rax)
     8a6:	00 00                	add    %al,(%rax)
     8a8:	40 00 00             	add    %al,(%rax)
	...
     8d7:	00 04 00             	add    %al,(%rax,%rax,1)
     8da:	00 00                	add    %al,(%rax)
     8dc:	00 00                	add    %al,(%rax)
     8de:	00 00                	add    %al,(%rax)
     8e0:	40 00 00             	add    %al,(%rax)
	...
     90f:	00 08                	add    %cl,(%rax)
     911:	00 00                	add    %al,(%rax)
     913:	00 00                	add    %al,(%rax)
     915:	00 00                	add    %al,(%rax)
     917:	00 40 00             	add    %al,0x0(%rax)
	...
     946:	00 00                	add    %al,(%rax)
     948:	08 00                	or     %al,(%rax)
     94a:	00 00                	add    %al,(%rax)
     94c:	00 00                	add    %al,(%rax)
     94e:	00 00                	add    %al,(%rax)
     950:	40 00 00             	add    %al,(%rax)
	...
     97f:	00 02                	add    %al,(%rdx)
     981:	00 00                	add    %al,(%rax)
     983:	00 00                	add    %al,(%rax)
     985:	00 00                	add    %al,(%rax)
     987:	00 40 00             	add    %al,0x0(%rax)
	...
     9b6:	00 00                	add    %al,(%rax)
     9b8:	04 00                	add    $0x0,%al
     9ba:	00 00                	add    %al,(%rax)
     9bc:	00 00                	add    %al,(%rax)
     9be:	00 00                	add    %al,(%rax)
     9c0:	40 00 00             	add    %al,(%rax)
	...
     9ef:	00 08                	add    %cl,(%rax)
     9f1:	00 00                	add    %al,(%rax)
     9f3:	00 00                	add    %al,(%rax)
     9f5:	00 00                	add    %al,(%rax)
     9f7:	00 40 00             	add    %al,0x0(%rax)
	...
     a26:	00 00                	add    %al,(%rax)
     a28:	23 00                	and    (%rax),%eax
     a2a:	00 00                	add    %al,(%rax)
     a2c:	00 00                	add    %al,(%rax)
     a2e:	00 00                	add    %al,(%rax)
     a30:	60                   	(bad)  
	...
     a5d:	00 00                	add    %al,(%rax)
     a5f:	00 0b                	add    %cl,(%rbx)
     a61:	00 00                	add    %al,(%rax)
     a63:	00 00                	add    %al,(%rax)
     a65:	00 00                	add    %al,(%rax)
     a67:	00 40 00             	add    %al,0x0(%rax)
	...
     a96:	00 00                	add    %al,(%rax)
     a98:	0d 00 00 00 00       	or     $0x0,%eax
     a9d:	00 00                	add    %al,(%rax)
     a9f:	00 40 00             	add    %al,0x0(%rax)
	...
     ace:	00 00                	add    %al,(%rax)
     ad0:	13 00                	adc    (%rax),%eax
     ad2:	00 00                	add    %al,(%rax)
     ad4:	00 00                	add    %al,(%rax)
     ad6:	00 00                	add    %al,(%rax)
     ad8:	40 00 00             	add    %al,(%rax)
	...
     b07:	00 10                	add    %dl,(%rax)
     b09:	00 00                	add    %al,(%rax)
     b0b:	00 00                	add    %al,(%rax)
     b0d:	00 00                	add    %al,(%rax)
     b0f:	00 40 00             	add    %al,0x0(%rax)
	...
     b3e:	00 00                	add    %al,(%rax)
     b40:	03 00                	add    (%rax),%eax
     b42:	00 00                	add    %al,(%rax)
     b44:	00 00                	add    %al,(%rax)
     b46:	00 00                	add    %al,(%rax)
     b48:	40 00 00             	add    %al,(%rax)
	...
     b77:	00 27                	add    %ah,(%rdi)
     b79:	00 00                	add    %al,(%rax)
     b7b:	00 00                	add    %al,(%rax)
     b7d:	00 00                	add    %al,(%rax)
     b7f:	00 60 00             	add    %ah,0x0(%rax)
	...
     bae:	00 00                	add    %al,(%rax)
     bb0:	46 00 00             	rex.RX add %r8b,(%rax)
     bb3:	00 00                	add    %al,(%rax)
     bb5:	00 00                	add    %al,(%rax)
     bb7:	00 80 00 00 00 00    	add    %al,0x0(%rax)
	...
     be5:	00 00                	add    %al,(%rax)
     be7:	00 14 00             	add    %dl,(%rax,%rax,1)
     bea:	00 00                	add    %al,(%rax)
     bec:	00 00                	add    %al,(%rax)
     bee:	00 00                	add    %al,(%rax)
     bf0:	40 00 00             	add    %al,(%rax)
	...
     c1f:	00 18                	add    %bl,(%rax)
     c21:	00 00                	add    %al,(%rax)
     c23:	00 00                	add    %al,(%rax)
     c25:	00 00                	add    %al,(%rax)
     c27:	00 40 00             	add    %al,0x0(%rax)
	...
     c56:	00 00                	add    %al,(%rax)
     c58:	03 00                	add    (%rax),%eax
     c5a:	00 00                	add    %al,(%rax)
     c5c:	00 00                	add    %al,(%rax)
     c5e:	00 00                	add    %al,(%rax)
     c60:	40 00 00             	add    %al,(%rax)
	...
     c8f:	00 05 00 00 00 00    	add    %al,0x0(%rip)        # c95 <.data+0xc95>
     c95:	00 00                	add    %al,(%rax)
     c97:	00 40 00             	add    %al,0x0(%rax)
	...
     cc6:	00 00                	add    %al,(%rax)
     cc8:	03 00                	add    (%rax),%eax
     cca:	00 00                	add    %al,(%rax)
     ccc:	00 00                	add    %al,(%rax)
     cce:	00 00                	add    %al,(%rax)
     cd0:	40 00 00             	add    %al,(%rax)
	...
     cff:	00 10                	add    %dl,(%rax)
     d01:	00 00                	add    %al,(%rax)
     d03:	00 00                	add    %al,(%rax)
     d05:	00 00                	add    %al,(%rax)
     d07:	00 40 00             	add    %al,0x0(%rax)
	...
     d36:	00 00                	add    %al,(%rax)
     d38:	03 00                	add    (%rax),%eax
     d3a:	00 00                	add    %al,(%rax)
     d3c:	00 00                	add    %al,(%rax)
     d3e:	00 00                	add    %al,(%rax)
     d40:	40 00 00             	add    %al,(%rax)
	...
     d6f:	00 02                	add    %al,(%rdx)
     d71:	00 00                	add    %al,(%rax)
     d73:	00 00                	add    %al,(%rax)
     d75:	00 00                	add    %al,(%rax)
     d77:	00 40 00             	add    %al,0x0(%rax)
	...
     da6:	00 00                	add    %al,(%rax)
     da8:	03 00                	add    (%rax),%eax
     daa:	00 00                	add    %al,(%rax)
     dac:	00 00                	add    %al,(%rax)
     dae:	00 00                	add    %al,(%rax)
     db0:	40 00 00             	add    %al,(%rax)
	...
     ddf:	00 0c 00             	add    %cl,(%rax,%rax,1)
     de2:	00 00                	add    %al,(%rax)
     de4:	00 00                	add    %al,(%rax)
     de6:	00 00                	add    %al,(%rax)
     de8:	40 00 00             	add    %al,(%rax)
	...
     e17:	00 0f                	add    %cl,(%rdi)
     e19:	00 00                	add    %al,(%rax)
     e1b:	00 00                	add    %al,(%rax)
     e1d:	00 00                	add    %al,(%rax)
     e1f:	00 40 00             	add    %al,0x0(%rax)
	...
     e4e:	00 00                	add    %al,(%rax)
     e50:	08 00                	or     %al,(%rax)
     e52:	00 00                	add    %al,(%rax)
     e54:	00 00                	add    %al,(%rax)
     e56:	00 00                	add    %al,(%rax)
     e58:	40 00 00             	add    %al,(%rax)
	...
     e87:	00 07                	add    %al,(%rdi)
     e89:	00 00                	add    %al,(%rax)
     e8b:	00 00                	add    %al,(%rax)
     e8d:	00 00                	add    %al,(%rax)
     e8f:	00 40 00             	add    %al,0x0(%rax)
	...
     ebe:	00 00                	add    %al,(%rax)
     ec0:	10 00                	adc    %al,(%rax)
     ec2:	00 00                	add    %al,(%rax)
     ec4:	00 00                	add    %al,(%rax)
     ec6:	00 00                	add    %al,(%rax)
     ec8:	40 00 00             	add    %al,(%rax)
	...
     ef7:	00 0c 00             	add    %cl,(%rax,%rax,1)
     efa:	00 00                	add    %al,(%rax)
     efc:	00 00                	add    %al,(%rax)
     efe:	00 00                	add    %al,(%rax)
     f00:	40 00 00             	add    %al,(%rax)
	...
     f2f:	00 05 00 00 00 00    	add    %al,0x0(%rip)        # f35 <.data+0xf35>
     f35:	00 00                	add    %al,(%rax)
     f37:	00 40 00             	add    %al,0x0(%rax)
	...
     f66:	00 00                	add    %al,(%rax)
     f68:	20 00                	and    %al,(%rax)
     f6a:	00 00                	add    %al,(%rax)
     f6c:	00 00                	add    %al,(%rax)
     f6e:	00 00                	add    %al,(%rax)
     f70:	40 00 00             	add    %al,(%rax)
	...
     f9f:	00 1a                	add    %bl,(%rdx)
     fa1:	00 00                	add    %al,(%rax)
     fa3:	00 00                	add    %al,(%rax)
     fa5:	00 00                	add    %al,(%rax)
     fa7:	00 40 00             	add    %al,0x0(%rax)
	...
     fd6:	00 00                	add    %al,(%rax)
     fd8:	07                   	(bad)  
     fd9:	00 00                	add    %al,(%rax)
     fdb:	00 00                	add    %al,(%rax)
     fdd:	00 00                	add    %al,(%rax)
     fdf:	00 40 00             	add    %al,0x0(%rax)
	...
    100e:	00 00                	add    %al,(%rax)
    1010:	db 00                	fildl  (%rax)
    1012:	00 00                	add    %al,(%rax)
    1014:	00 00                	add    %al,(%rax)
    1016:	00 00                	add    %al,(%rax)
    1018:	00 01                	add    %al,(%rcx)
	...
    1046:	00 00                	add    %al,(%rax)
    1048:	41 00 00             	add    %al,(%r8)
    104b:	00 00                	add    %al,(%rax)
    104d:	00 00                	add    %al,(%rax)
    104f:	00 80 00 00 00 00    	add    %al,0x0(%rax)
	...
    107d:	00 00                	add    %al,(%rax)
    107f:	00 1d 00 00 00 00    	add    %bl,0x0(%rip)        # 1085 <.data+0x1085>
    1085:	00 00                	add    %al,(%rax)
    1087:	00 40 00             	add    %al,0x0(%rax)
	...
    10b6:	00 00                	add    %al,(%rax)
    10b8:	27                   	(bad)  
    10b9:	00 00                	add    %al,(%rax)
    10bb:	00 00                	add    %al,(%rax)
    10bd:	00 00                	add    %al,(%rax)
    10bf:	00 60 00             	add    %ah,0x0(%rax)
	...
    10ee:	00 00                	add    %al,(%rax)
    10f0:	14 00                	adc    $0x0,%al
    10f2:	00 00                	add    %al,(%rax)
    10f4:	00 00                	add    %al,(%rax)
    10f6:	00 00                	add    %al,(%rax)
    10f8:	40 00 00             	add    %al,(%rax)
	...
    1127:	00 21                	add    %ah,(%rcx)
    1129:	00 00                	add    %al,(%rax)
    112b:	00 00                	add    %al,(%rax)
    112d:	00 00                	add    %al,(%rax)
    112f:	00 60 00             	add    %ah,0x0(%rax)
	...
    115e:	00 00                	add    %al,(%rax)
    1160:	0f 00 00             	sldt   (%rax)
    1163:	00 00                	add    %al,(%rax)
    1165:	00 00                	add    %al,(%rax)
    1167:	00 40 00             	add    %al,0x0(%rax)
	...
    1196:	00 00                	add    %al,(%rax)
    1198:	07                   	(bad)  
    1199:	00 00                	add    %al,(%rax)
    119b:	00 00                	add    %al,(%rax)
    119d:	00 00                	add    %al,(%rax)
    119f:	00 40 00             	add    %al,0x0(%rax)
	...
    11ce:	00 00                	add    %al,(%rax)
    11d0:	0f 00 00             	sldt   (%rax)
    11d3:	00 00                	add    %al,(%rax)
    11d5:	00 00                	add    %al,(%rax)
    11d7:	00 40 00             	add    %al,0x0(%rax)
	...
    1206:	00 00                	add    %al,(%rax)
    1208:	03 00                	add    (%rax),%eax
    120a:	00 00                	add    %al,(%rax)
    120c:	00 00                	add    %al,(%rax)
    120e:	00 00                	add    %al,(%rax)
    1210:	40 00 00             	add    %al,(%rax)
	...
    123f:	00 04 00             	add    %al,(%rax,%rax,1)
    1242:	00 00                	add    %al,(%rax)
    1244:	00 00                	add    %al,(%rax)
    1246:	00 00                	add    %al,(%rax)
    1248:	40 00 00             	add    %al,(%rax)
	...
    1277:	00 08                	add    %cl,(%rax)
    1279:	00 00                	add    %al,(%rax)
    127b:	00 00                	add    %al,(%rax)
    127d:	00 00                	add    %al,(%rax)
    127f:	00 40 00             	add    %al,0x0(%rax)
	...
    12ae:	00 00                	add    %al,(%rax)
    12b0:	02 00                	add    (%rax),%al
    12b2:	00 00                	add    %al,(%rax)
    12b4:	00 00                	add    %al,(%rax)
    12b6:	00 00                	add    %al,(%rax)
    12b8:	40 00 00             	add    %al,(%rax)
	...
    12e7:	00 03                	add    %al,(%rbx)
    12e9:	00 00                	add    %al,(%rax)
    12eb:	00 00                	add    %al,(%rax)
    12ed:	00 00                	add    %al,(%rax)
    12ef:	00 40 00             	add    %al,0x0(%rax)
	...
    131e:	00 00                	add    %al,(%rax)
    1320:	09 00                	or     %eax,(%rax)
    1322:	00 00                	add    %al,(%rax)
    1324:	00 00                	add    %al,(%rax)
    1326:	00 00                	add    %al,(%rax)
    1328:	40 00 00             	add    %al,(%rax)
	...
    1357:	00 68 00             	add    %ch,0x0(%rax)
    135a:	00 00                	add    %al,(%rax)
    135c:	00 00                	add    %al,(%rax)
    135e:	00 00                	add    %al,(%rax)
    1360:	a0 00 00 00 00 00 00 	movabs 0x0,%al
    1367:	00 00 
	...
    138d:	00 00                	add    %al,(%rax)
    138f:	00 02                	add    %al,(%rdx)
    1391:	00 00                	add    %al,(%rax)
    1393:	00 00                	add    %al,(%rax)
    1395:	00 00                	add    %al,(%rax)
    1397:	00 40 00             	add    %al,0x0(%rax)
	...
    13c6:	00 00                	add    %al,(%rax)
    13c8:	0c 00                	or     $0x0,%al
    13ca:	00 00                	add    %al,(%rax)
    13cc:	00 00                	add    %al,(%rax)
    13ce:	00 00                	add    %al,(%rax)
    13d0:	40 00 00             	add    %al,(%rax)
	...
    13ff:	00 04 00             	add    %al,(%rax,%rax,1)
    1402:	00 00                	add    %al,(%rax)
    1404:	00 00                	add    %al,(%rax)
    1406:	00 00                	add    %al,(%rax)
    1408:	40 00 00             	add    %al,(%rax)
	...
    1437:	00 10                	add    %dl,(%rax)
    1439:	00 00                	add    %al,(%rax)
    143b:	00 00                	add    %al,(%rax)
    143d:	00 00                	add    %al,(%rax)
    143f:	00 40 00             	add    %al,0x0(%rax)
	...
    146e:	00 00                	add    %al,(%rax)
    1470:	07                   	(bad)  
    1471:	00 00                	add    %al,(%rax)
    1473:	00 00                	add    %al,(%rax)
    1475:	00 00                	add    %al,(%rax)
    1477:	00 40 00             	add    %al,0x0(%rax)
	...
    14a6:	00 00                	add    %al,(%rax)
    14a8:	0b 00                	or     (%rax),%eax
    14aa:	00 00                	add    %al,(%rax)
    14ac:	00 00                	add    %al,(%rax)
    14ae:	00 00                	add    %al,(%rax)
    14b0:	40 00 00             	add    %al,(%rax)
	...
    14df:	00 03                	add    %al,(%rbx)
    14e1:	00 00                	add    %al,(%rax)
    14e3:	00 00                	add    %al,(%rax)
    14e5:	00 00                	add    %al,(%rax)
    14e7:	00 40 00             	add    %al,0x0(%rax)
	...
    1516:	00 00                	add    %al,(%rax)
    1518:	0d 00 00 00 00       	or     $0x0,%eax
    151d:	00 00                	add    %al,(%rax)
    151f:	00 40 00             	add    %al,0x0(%rax)
	...
    154e:	00 00                	add    %al,(%rax)
    1550:	04 00                	add    $0x0,%al
    1552:	00 00                	add    %al,(%rax)
    1554:	00 00                	add    %al,(%rax)
    1556:	00 00                	add    %al,(%rax)
    1558:	40 00 00             	add    %al,(%rax)
	...
    1587:	00 25 00 00 00 00    	add    %ah,0x0(%rip)        # 158d <.data+0x158d>
    158d:	00 00                	add    %al,(%rax)
    158f:	00 60 00             	add    %ah,0x0(%rax)
	...
    15be:	00 00                	add    %al,(%rax)
    15c0:	05 00 00 00 00       	add    $0x0,%eax
    15c5:	00 00                	add    %al,(%rax)
    15c7:	00 40 00             	add    %al,0x0(%rax)
	...
    15f6:	00 00                	add    %al,(%rax)
    15f8:	0a 00                	or     (%rax),%al
    15fa:	00 00                	add    %al,(%rax)
    15fc:	00 00                	add    %al,(%rax)
    15fe:	00 00                	add    %al,(%rax)
    1600:	40 00 00             	add    %al,(%rax)
	...
    162f:	00 12                	add    %dl,(%rdx)
    1631:	00 00                	add    %al,(%rax)
    1633:	00 00                	add    %al,(%rax)
    1635:	00 00                	add    %al,(%rax)
    1637:	00 40 00             	add    %al,0x0(%rax)
	...
    1666:	00 00                	add    %al,(%rax)
    1668:	17                   	(bad)  
    1669:	00 00                	add    %al,(%rax)
    166b:	00 00                	add    %al,(%rax)
    166d:	00 00                	add    %al,(%rax)
    166f:	00 40 00             	add    %al,0x0(%rax)
	...
    169e:	00 00                	add    %al,(%rax)
    16a0:	19 00                	sbb    %eax,(%rax)
    16a2:	00 00                	add    %al,(%rax)
    16a4:	00 00                	add    %al,(%rax)
    16a6:	00 00                	add    %al,(%rax)
    16a8:	40 00 00             	add    %al,(%rax)
	...
    16d7:	00 0d 00 00 00 00    	add    %cl,0x0(%rip)        # 16dd <.data+0x16dd>
    16dd:	00 00                	add    %al,(%rax)
    16df:	00 40 00             	add    %al,0x0(%rax)
	...
    170e:	00 00                	add    %al,(%rax)
    1710:	04 00                	add    $0x0,%al
    1712:	00 00                	add    %al,(%rax)
    1714:	00 00                	add    %al,(%rax)
    1716:	00 00                	add    %al,(%rax)
    1718:	40 00 00             	add    %al,(%rax)
	...
    1747:	00 1a                	add    %bl,(%rdx)
    1749:	00 00                	add    %al,(%rax)
    174b:	00 00                	add    %al,(%rax)
    174d:	00 00                	add    %al,(%rax)
    174f:	00 40 00             	add    %al,0x0(%rax)
	...
    177e:	00 00                	add    %al,(%rax)
    1780:	03 00                	add    (%rax),%eax
    1782:	00 00                	add    %al,(%rax)
    1784:	00 00                	add    %al,(%rax)
    1786:	00 00                	add    %al,(%rax)
    1788:	40 00 00             	add    %al,(%rax)
	...
    17b7:	00 27                	add    %ah,(%rdi)
    17b9:	00 00                	add    %al,(%rax)
    17bb:	00 00                	add    %al,(%rax)
    17bd:	00 00                	add    %al,(%rax)
    17bf:	00 60 00             	add    %ah,0x0(%rax)
	...
    17ee:	00 00                	add    %al,(%rax)
    17f0:	03 00                	add    (%rax),%eax
    17f2:	00 00                	add    %al,(%rax)
    17f4:	00 00                	add    %al,(%rax)
    17f6:	00 00                	add    %al,(%rax)
    17f8:	40 00 00             	add    %al,(%rax)
	...
    1827:	00 03                	add    %al,(%rbx)
    1829:	00 00                	add    %al,(%rax)
    182b:	00 00                	add    %al,(%rax)
    182d:	00 00                	add    %al,(%rax)
    182f:	00 40 00             	add    %al,0x0(%rax)
	...
    185e:	00 00                	add    %al,(%rax)
    1860:	03 00                	add    (%rax),%eax
    1862:	00 00                	add    %al,(%rax)
    1864:	00 00                	add    %al,(%rax)
    1866:	00 00                	add    %al,(%rax)
    1868:	40 00 00             	add    %al,(%rax)
	...
    1897:	00 48 00             	add    %cl,0x0(%rax)
    189a:	00 00                	add    %al,(%rax)
    189c:	00 00                	add    %al,(%rax)
    189e:	00 00                	add    %al,(%rax)
    18a0:	80 00 00             	addb   $0x0,(%rax)
	...
    18cf:	00 02                	add    %al,(%rdx)
    18d1:	00 00                	add    %al,(%rax)
    18d3:	00 00                	add    %al,(%rax)
    18d5:	00 00                	add    %al,(%rax)
    18d7:	00 40 00             	add    %al,0x0(%rax)
	...
    1906:	00 00                	add    %al,(%rax)
    1908:	02 00                	add    (%rax),%al
    190a:	00 00                	add    %al,(%rax)
    190c:	00 00                	add    %al,(%rax)
    190e:	00 00                	add    %al,(%rax)
    1910:	40 00 00             	add    %al,(%rax)
	...
    193f:	00 0c 00             	add    %cl,(%rax,%rax,1)
    1942:	00 00                	add    %al,(%rax)
    1944:	00 00                	add    %al,(%rax)
    1946:	00 00                	add    %al,(%rax)
    1948:	40 00 00             	add    %al,(%rax)
	...
    1977:	00 26                	add    %ah,(%rsi)
    1979:	00 00                	add    %al,(%rax)
    197b:	00 00                	add    %al,(%rax)
    197d:	00 00                	add    %al,(%rax)
    197f:	00 60 00             	add    %ah,0x0(%rax)
	...
    19ae:	00 00                	add    %al,(%rax)
    19b0:	1f                   	(bad)  
    19b1:	00 00                	add    %al,(%rax)
    19b3:	00 00                	add    %al,(%rax)
    19b5:	00 00                	add    %al,(%rax)
    19b7:	00 40 00             	add    %al,0x0(%rax)
	...
    19e6:	00 00                	add    %al,(%rax)
    19e8:	25 00 00 00 00       	and    $0x0,%eax
    19ed:	00 00                	add    %al,(%rax)
    19ef:	00 60 00             	add    %ah,0x0(%rax)
	...
    1a1e:	00 00                	add    %al,(%rax)
    1a20:	4a 00 00             	rex.WX add %al,(%rax)
    1a23:	00 00                	add    %al,(%rax)
    1a25:	00 00                	add    %al,(%rax)
    1a27:	00 80 00 00 00 00    	add    %al,0x0(%rax)
	...
    1a55:	00 00                	add    %al,(%rax)
    1a57:	00 05 00 00 00 00    	add    %al,0x0(%rip)        # 1a5d <.data+0x1a5d>
    1a5d:	00 00                	add    %al,(%rax)
    1a5f:	00 40 00             	add    %al,0x0(%rax)
	...
    1a8e:	00 00                	add    %al,(%rax)
    1a90:	05 00 00 00 00       	add    $0x0,%eax
    1a95:	00 00                	add    %al,(%rax)
    1a97:	00 40 00             	add    %al,0x0(%rax)
	...
    1ac6:	00 00                	add    %al,(%rax)
    1ac8:	09 00                	or     %eax,(%rax)
    1aca:	00 00                	add    %al,(%rax)
    1acc:	00 00                	add    %al,(%rax)
    1ace:	00 00                	add    %al,(%rax)
    1ad0:	40 00 00             	add    %al,(%rax)
	...
    1aff:	00 08                	add    %cl,(%rax)
    1b01:	00 00                	add    %al,(%rax)
    1b03:	00 00                	add    %al,(%rax)
    1b05:	00 00                	add    %al,(%rax)
    1b07:	00 40 00             	add    %al,0x0(%rax)
	...
    1b36:	00 00                	add    %al,(%rax)
    1b38:	05 00 00 00 00       	add    $0x0,%eax
    1b3d:	00 00                	add    %al,(%rax)
    1b3f:	00 40 00             	add    %al,0x0(%rax)
	...
    1b6e:	00 00                	add    %al,(%rax)
    1b70:	09 00                	or     %eax,(%rax)
    1b72:	00 00                	add    %al,(%rax)
    1b74:	00 00                	add    %al,(%rax)
    1b76:	00 00                	add    %al,(%rax)
    1b78:	40 00 00             	add    %al,(%rax)
	...
    1ba7:	00 16                	add    %dl,(%rsi)
    1ba9:	00 00                	add    %al,(%rax)
    1bab:	00 00                	add    %al,(%rax)
    1bad:	00 00                	add    %al,(%rax)
    1baf:	00 40 00             	add    %al,0x0(%rax)
	...
    1bde:	00 00                	add    %al,(%rax)
    1be0:	09 00                	or     %eax,(%rax)
    1be2:	00 00                	add    %al,(%rax)
    1be4:	00 00                	add    %al,(%rax)
    1be6:	00 00                	add    %al,(%rax)
    1be8:	40 00 00             	add    %al,(%rax)
	...
    1c17:	00 01                	add    %al,(%rcx)
    1c19:	00 00                	add    %al,(%rax)
    1c1b:	00 00                	add    %al,(%rax)
    1c1d:	00 00                	add    %al,(%rax)
    1c1f:	00 40 00             	add    %al,0x0(%rax)
	...
    1c4e:	00 00                	add    %al,(%rax)
    1c50:	06                   	(bad)  
    1c51:	00 00                	add    %al,(%rax)
    1c53:	00 00                	add    %al,(%rax)
    1c55:	00 00                	add    %al,(%rax)
    1c57:	00 40 00             	add    %al,0x0(%rax)
	...
    1c86:	00 00                	add    %al,(%rax)
    1c88:	4f 00 00             	rex.WRXB add %r8b,(%r8)
    1c8b:	00 00                	add    %al,(%rax)
    1c8d:	00 00                	add    %al,(%rax)
    1c8f:	00 80 00 00 00 00    	add    %al,0x0(%rax)
	...
    1cbd:	00 00                	add    %al,(%rax)
    1cbf:	00 19                	add    %bl,(%rcx)
    1cc1:	00 00                	add    %al,(%rax)
    1cc3:	00 00                	add    %al,(%rax)
    1cc5:	00 00                	add    %al,(%rax)
    1cc7:	00 40 00             	add    %al,0x0(%rax)
	...
    1cf6:	00 00                	add    %al,(%rax)
    1cf8:	19 00                	sbb    %eax,(%rax)
    1cfa:	00 00                	add    %al,(%rax)
    1cfc:	00 00                	add    %al,(%rax)
    1cfe:	00 00                	add    %al,(%rax)
    1d00:	40 00 00             	add    %al,(%rax)
	...
    1d2f:	00 3a                	add    %bh,(%rdx)
    1d31:	00 00                	add    %al,(%rax)
    1d33:	00 00                	add    %al,(%rax)
    1d35:	00 00                	add    %al,(%rax)
    1d37:	00 60 00             	add    %ah,0x0(%rax)
	...
    1d66:	00 00                	add    %al,(%rax)
    1d68:	23 00                	and    (%rax),%eax
    1d6a:	00 00                	add    %al,(%rax)
    1d6c:	00 00                	add    %al,(%rax)
    1d6e:	00 00                	add    %al,(%rax)
    1d70:	60                   	(bad)  
	...
    1d9d:	00 00                	add    %al,(%rax)
    1d9f:	00 0b                	add    %cl,(%rbx)
    1da1:	00 00                	add    %al,(%rax)
    1da3:	00 00                	add    %al,(%rax)
    1da5:	00 00                	add    %al,(%rax)
    1da7:	00 40 00             	add    %al,0x0(%rax)
	...
    1dd6:	00 00                	add    %al,(%rax)
    1dd8:	27                   	(bad)  
    1dd9:	00 00                	add    %al,(%rax)
    1ddb:	00 00                	add    %al,(%rax)
    1ddd:	00 00                	add    %al,(%rax)
    1ddf:	00 60 00             	add    %ah,0x0(%rax)
	...
    1e0e:	00 00                	add    %al,(%rax)
    1e10:	1e                   	(bad)  
    1e11:	00 00                	add    %al,(%rax)
    1e13:	00 00                	add    %al,(%rax)
    1e15:	00 00                	add    %al,(%rax)
    1e17:	00 40 00             	add    %al,0x0(%rax)
	...
    1e46:	00 00                	add    %al,(%rax)
    1e48:	03 00                	add    (%rax),%eax
    1e4a:	00 00                	add    %al,(%rax)
    1e4c:	00 00                	add    %al,(%rax)
    1e4e:	00 00                	add    %al,(%rax)
    1e50:	40 00 00             	add    %al,(%rax)
	...
    1e7f:	00 2c 00             	add    %ch,(%rax,%rax,1)
    1e82:	00 00                	add    %al,(%rax)
    1e84:	00 00                	add    %al,(%rax)
    1e86:	00 00                	add    %al,(%rax)
    1e88:	60                   	(bad)  
	...
    1eb5:	00 00                	add    %al,(%rax)
    1eb7:	00 03                	add    %al,(%rbx)
    1eb9:	00 00                	add    %al,(%rax)
    1ebb:	00 00                	add    %al,(%rax)
    1ebd:	00 00                	add    %al,(%rax)
    1ebf:	00 40 00             	add    %al,0x0(%rax)
	...
    1eee:	00 00                	add    %al,(%rax)
    1ef0:	03 00                	add    (%rax),%eax
    1ef2:	00 00                	add    %al,(%rax)
    1ef4:	00 00                	add    %al,(%rax)
    1ef6:	00 00                	add    %al,(%rax)
    1ef8:	40 00 00             	add    %al,(%rax)
	...
    1f27:	00 03                	add    %al,(%rbx)
    1f29:	00 00                	add    %al,(%rax)
    1f2b:	00 00                	add    %al,(%rax)
    1f2d:	00 00                	add    %al,(%rax)
    1f2f:	00 40 00             	add    %al,0x0(%rax)
	...
    1f5e:	00 00                	add    %al,(%rax)
    1f60:	0f 00 00             	sldt   (%rax)
    1f63:	00 00                	add    %al,(%rax)
    1f65:	00 00                	add    %al,(%rax)
    1f67:	00 40 00             	add    %al,0x0(%rax)
	...
    1f96:	00 00                	add    %al,(%rax)
    1f98:	38 00                	cmp    %al,(%rax)
    1f9a:	00 00                	add    %al,(%rax)
    1f9c:	00 00                	add    %al,(%rax)
    1f9e:	00 00                	add    %al,(%rax)
    1fa0:	60                   	(bad)  
	...
    1fcd:	00 00                	add    %al,(%rax)
    1fcf:	00 26                	add    %ah,(%rsi)
    1fd1:	00 00                	add    %al,(%rax)
    1fd3:	00 00                	add    %al,(%rax)
    1fd5:	00 00                	add    %al,(%rax)
    1fd7:	00 60 00             	add    %ah,0x0(%rax)
	...
    2006:	00 00                	add    %al,(%rax)
    2008:	3e 00 00             	add    %al,%ds:(%rax)
    200b:	00 00                	add    %al,(%rax)
    200d:	00 00                	add    %al,(%rax)
    200f:	00 60 00             	add    %ah,0x0(%rax)
	...
    203e:	00 00                	add    %al,(%rax)
    2040:	21 00                	and    %eax,(%rax)
    2042:	00 00                	add    %al,(%rax)
    2044:	00 00                	add    %al,(%rax)
    2046:	00 00                	add    %al,(%rax)
    2048:	60                   	(bad)  
	...
    2075:	00 00                	add    %al,(%rax)
    2077:	00 22                	add    %ah,(%rdx)
    2079:	00 00                	add    %al,(%rax)
    207b:	00 00                	add    %al,(%rax)
    207d:	00 00                	add    %al,(%rax)
    207f:	00 60 00             	add    %ah,0x0(%rax)
	...
    20ae:	00 00                	add    %al,(%rax)
    20b0:	2b 00                	sub    (%rax),%eax
    20b2:	00 00                	add    %al,(%rax)
    20b4:	00 00                	add    %al,(%rax)
    20b6:	00 00                	add    %al,(%rax)
    20b8:	60                   	(bad)  
	...
    20e5:	00 00                	add    %al,(%rax)
    20e7:	00 24 00             	add    %ah,(%rax,%rax,1)
    20ea:	00 00                	add    %al,(%rax)
    20ec:	00 00                	add    %al,(%rax)
    20ee:	00 00                	add    %al,(%rax)
    20f0:	60                   	(bad)  
	...
    211d:	00 00                	add    %al,(%rax)
    211f:	00 21                	add    %ah,(%rcx)
    2121:	00 00                	add    %al,(%rax)
    2123:	00 00                	add    %al,(%rax)
    2125:	00 00                	add    %al,(%rax)
    2127:	00 60 00             	add    %ah,0x0(%rax)
	...
    2156:	00 00                	add    %al,(%rax)
    2158:	08 00                	or     %al,(%rax)
    215a:	00 00                	add    %al,(%rax)
    215c:	00 00                	add    %al,(%rax)
    215e:	00 00                	add    %al,(%rax)
    2160:	40 00 00             	add    %al,(%rax)
	...
    218f:	00 09                	add    %cl,(%rcx)
    2191:	00 00                	add    %al,(%rax)
    2193:	00 00                	add    %al,(%rax)
    2195:	00 00                	add    %al,(%rax)
    2197:	00 40 00             	add    %al,0x0(%rax)
	...
    21c6:	00 00                	add    %al,(%rax)
    21c8:	05 00 00 00 00       	add    $0x0,%eax
    21cd:	00 00                	add    %al,(%rax)
    21cf:	00 40 00             	add    %al,0x0(%rax)
	...
    21fe:	00 00                	add    %al,(%rax)
    2200:	05 00 00 00 00       	add    $0x0,%eax
    2205:	00 00                	add    %al,(%rax)
    2207:	00 40 00             	add    %al,0x0(%rax)
	...
    2236:	00 00                	add    %al,(%rax)
    2238:	14 00                	adc    $0x0,%al
    223a:	00 00                	add    %al,(%rax)
    223c:	00 00                	add    %al,(%rax)
    223e:	00 00                	add    %al,(%rax)
    2240:	40 00 00             	add    %al,(%rax)
	...
    226f:	00 0a                	add    %cl,(%rdx)
    2271:	00 00                	add    %al,(%rax)
    2273:	00 00                	add    %al,(%rax)
    2275:	00 00                	add    %al,(%rax)
    2277:	00 40 00             	add    %al,0x0(%rax)
	...
    22a6:	00 00                	add    %al,(%rax)
    22a8:	16                   	(bad)  
    22a9:	00 00                	add    %al,(%rax)
    22ab:	00 00                	add    %al,(%rax)
    22ad:	00 00                	add    %al,(%rax)
    22af:	00 40 00             	add    %al,0x0(%rax)
	...
    22de:	00 00                	add    %al,(%rax)
    22e0:	0a 00                	or     (%rax),%al
    22e2:	00 00                	add    %al,(%rax)
    22e4:	00 00                	add    %al,(%rax)
    22e6:	00 00                	add    %al,(%rax)
    22e8:	40 00 00             	add    %al,(%rax)
	...
    2317:	00 1e                	add    %bl,(%rsi)
    2319:	00 00                	add    %al,(%rax)
    231b:	00 00                	add    %al,(%rax)
    231d:	00 00                	add    %al,(%rax)
    231f:	00 40 00             	add    %al,0x0(%rax)
	...
    234e:	00 00                	add    %al,(%rax)
    2350:	08 00                	or     %al,(%rax)
    2352:	00 00                	add    %al,(%rax)
    2354:	00 00                	add    %al,(%rax)
    2356:	00 00                	add    %al,(%rax)
    2358:	40 00 00             	add    %al,(%rax)
	...
    2387:	00 0b                	add    %cl,(%rbx)
    2389:	00 00                	add    %al,(%rax)
    238b:	00 00                	add    %al,(%rax)
    238d:	00 00                	add    %al,(%rax)
    238f:	00 40 00             	add    %al,0x0(%rax)
	...
    23be:	00 00                	add    %al,(%rax)
    23c0:	24 00                	and    $0x0,%al
    23c2:	00 00                	add    %al,(%rax)
    23c4:	00 00                	add    %al,(%rax)
    23c6:	00 00                	add    %al,(%rax)
    23c8:	60                   	(bad)  
	...
    23f5:	00 00                	add    %al,(%rax)
    23f7:	00 19                	add    %bl,(%rcx)
    23f9:	00 00                	add    %al,(%rax)
    23fb:	00 00                	add    %al,(%rax)
    23fd:	00 00                	add    %al,(%rax)
    23ff:	00 40 00             	add    %al,0x0(%rax)
	...
    242e:	00 00                	add    %al,(%rax)
    2430:	03 00                	add    (%rax),%eax
    2432:	00 00                	add    %al,(%rax)
    2434:	00 00                	add    %al,(%rax)
    2436:	00 00                	add    %al,(%rax)
    2438:	40 00 00             	add    %al,(%rax)
	...
    2467:	00 03                	add    %al,(%rbx)
    2469:	00 00                	add    %al,(%rax)
    246b:	00 00                	add    %al,(%rax)
    246d:	00 00                	add    %al,(%rax)
    246f:	00 40 00             	add    %al,0x0(%rax)
	...
    249e:	00 00                	add    %al,(%rax)
    24a0:	08 00                	or     %al,(%rax)
    24a2:	00 00                	add    %al,(%rax)
    24a4:	00 00                	add    %al,(%rax)
    24a6:	00 00                	add    %al,(%rax)
    24a8:	40 00 00             	add    %al,(%rax)
	...
    24d7:	00 03                	add    %al,(%rbx)
    24d9:	00 00                	add    %al,(%rax)
    24db:	00 00                	add    %al,(%rax)
    24dd:	00 00                	add    %al,(%rax)
    24df:	00 40 00             	add    %al,0x0(%rax)
	...
    250e:	00 00                	add    %al,(%rax)
    2510:	03 00                	add    (%rax),%eax
    2512:	00 00                	add    %al,(%rax)
    2514:	00 00                	add    %al,(%rax)
    2516:	00 00                	add    %al,(%rax)
    2518:	40 00 00             	add    %al,(%rax)
	...
    2547:	00 06                	add    %al,(%rsi)
    2549:	00 00                	add    %al,(%rax)
    254b:	00 00                	add    %al,(%rax)
    254d:	00 00                	add    %al,(%rax)
    254f:	00 40 00             	add    %al,0x0(%rax)
	...
    257e:	00 00                	add    %al,(%rax)
    2580:	05 00 00 00 00       	add    $0x0,%eax
    2585:	00 00                	add    %al,(%rax)
    2587:	00 40 00             	add    %al,0x0(%rax)
	...
    25b6:	00 00                	add    %al,(%rax)
    25b8:	1f                   	(bad)  
    25b9:	00 00                	add    %al,(%rax)
    25bb:	00 00                	add    %al,(%rax)
    25bd:	00 00                	add    %al,(%rax)
    25bf:	00 40 00             	add    %al,0x0(%rax)
	...
    25ee:	00 00                	add    %al,(%rax)
    25f0:	24 00                	and    $0x0,%al
    25f2:	00 00                	add    %al,(%rax)
    25f4:	00 00                	add    %al,(%rax)
    25f6:	00 00                	add    %al,(%rax)
    25f8:	60                   	(bad)  
	...
    2625:	00 00                	add    %al,(%rax)
    2627:	00 22                	add    %ah,(%rdx)
    2629:	00 00                	add    %al,(%rax)
    262b:	00 00                	add    %al,(%rax)
    262d:	00 00                	add    %al,(%rax)
    262f:	00 60 00             	add    %ah,0x0(%rax)
	...
    265e:	00 00                	add    %al,(%rax)
    2660:	08 00                	or     %al,(%rax)
    2662:	00 00                	add    %al,(%rax)
    2664:	00 00                	add    %al,(%rax)
    2666:	00 00                	add    %al,(%rax)
    2668:	40 00 00             	add    %al,(%rax)
	...
    2697:	00 43 00             	add    %al,0x0(%rbx)
    269a:	00 00                	add    %al,(%rax)
    269c:	00 00                	add    %al,(%rax)
    269e:	00 00                	add    %al,(%rax)
    26a0:	80 00 00             	addb   $0x0,(%rax)
	...
    26cf:	00 06                	add    %al,(%rsi)
    26d1:	00 00                	add    %al,(%rax)
    26d3:	00 00                	add    %al,(%rax)
    26d5:	00 00                	add    %al,(%rax)
    26d7:	00 40 00             	add    %al,0x0(%rax)
	...

Disassembly of section .bss:

0000000000000000 <watchdog_flag>:
	...

0000000000000040 <got_usr1>:
	...

0000000000000080 <got_hup>:
	...

00000000000000c0 <terminate>:
	...

0000000000000100 <hs>:
	...

0000000000000140 <httpd_conn_count>:
	...

0000000000000180 <first_free_connect>:
	...

00000000000001c0 <max_connects>:
	...

0000000000000200 <num_connects>:
	...

0000000000000240 <connects>:
	...

0000000000000280 <maxthrottles>:
	...

00000000000002c0 <numthrottles>:
	...

0000000000000300 <throttles>:
	...

0000000000000340 <max_age>:
	...

0000000000000380 <p3p>:
	...

00000000000003c0 <charset>:
	...

0000000000000400 <user>:
	...

0000000000000440 <pidfile>:
	...

0000000000000480 <hostname>:
	...

00000000000004c0 <throttlefile>:
	...

0000000000000500 <logfile>:
	...

0000000000000540 <local_pattern>:
	...

0000000000000580 <no_empty_referers>:
	...

00000000000005c0 <url_pattern>:
	...

0000000000000600 <cgi_limit>:
	...

0000000000000640 <cgi_pattern>:
	...

0000000000000680 <do_global_passwd>:
	...

00000000000006c0 <do_vhost>:
	...

0000000000000700 <no_symlink_check>:
	...

0000000000000740 <no_log>:
	...

0000000000000780 <do_chroot>:
	...

00000000000007c0 <data_dir>:
	...

0000000000000800 <dir>:
	...

0000000000000840 <port>:
	...

0000000000000880 <debug>:
	...

00000000000008c0 <argv0>:
	...

Disassembly of section .text.unlikely:

0000000000000000 <usage>:
   0:	50                   	push   %rax
   1:	b8 00 00 00 00       	mov    $0x0,%eax
   6:	48 8b 15 00 00 00 00 	mov    0x0(%rip),%rdx        # d <usage+0xd>
   d:	48 c1 e8 03          	shr    $0x3,%rax
  11:	80 b8 00 80 ff 7f 00 	cmpb   $0x0,0x7fff8000(%rax)
  18:	74 0a                	je     24 <usage+0x24>
  1a:	bf 00 00 00 00       	mov    $0x0,%edi
  1f:	e8 00 00 00 00       	callq  24 <usage+0x24>
  24:	48 8b 3d 00 00 00 00 	mov    0x0(%rip),%rdi        # 2b <usage+0x2b>
  2b:	be 00 00 00 00       	mov    $0x0,%esi
  30:	31 c0                	xor    %eax,%eax
  32:	e8 00 00 00 00       	callq  37 <usage+0x37>
  37:	e8 00 00 00 00       	callq  3c <usage+0x3c>
  3c:	bf 01 00 00 00       	mov    $0x1,%edi
  41:	e8 00 00 00 00       	callq  46 <got_usr1+0x6>

Disassembly of section .rodata:

0000000000000000 <.rodata>:
       0:	20 20                	and    %ah,(%rax)
       2:	74 68                	je     6c <.rodata+0x6c>
       4:	74 74                	je     7a <.rodata+0x7a>
       6:	70 64                	jo     6c <.rodata+0x6c>
       8:	20 2d 20 25 6c 64    	and    %ch,0x646c2520(%rip)        # 646c252e <lookup_hostname.constprop.1+0x646bdb1e>
       e:	20 63 6f             	and    %ah,0x6f(%rbx)
      11:	6e                   	outsb  %ds:(%rsi),(%dx)
      12:	6e                   	outsb  %ds:(%rsi),(%dx)
      13:	65 63 74 69 6f       	movslq %gs:0x6f(%rcx,%rbp,2),%esi
      18:	6e                   	outsb  %ds:(%rsi),(%dx)
      19:	73 20                	jae    3b <.rodata+0x3b>
      1b:	28 25 67 2f 73 65    	sub    %ah,0x65732f67(%rip)        # 65732f88 <lookup_hostname.constprop.1+0x6572e578>
      21:	63 29                	movslq (%rcx),%ebp
      23:	2c 20                	sub    $0x20,%al
      25:	25 64 20 6d 61       	and    $0x616d2064,%eax
      2a:	78 20                	js     4c <.rodata+0x4c>
      2c:	73 69                	jae    97 <.rodata+0x97>
      2e:	6d                   	insl   (%dx),%es:(%rdi)
      2f:	75 6c                	jne    9d <.rodata+0x9d>
      31:	74 61                	je     94 <.rodata+0x94>
      33:	6e                   	outsb  %ds:(%rsi),(%dx)
      34:	65 6f                	outsl  %gs:(%rsi),(%dx)
      36:	75 73                	jne    ab <.rodata+0xab>
      38:	2c 20                	sub    $0x20,%al
      3a:	25 6c 6c 64 20       	and    $0x20646c6c,%eax
      3f:	62                   	(bad)  
      40:	79 74                	jns    b6 <.rodata+0xb6>
      42:	65                   	gs
      43:	73 20                	jae    65 <.rodata+0x65>
      45:	28 25 67 2f 73 65    	sub    %ah,0x65732f67(%rip)        # 65732fb2 <lookup_hostname.constprop.1+0x6572e5a2>
      4b:	63 29                	movslq (%rcx),%ebp
      4d:	2c 20                	sub    $0x20,%al
      4f:	25 64 20 68 74       	and    $0x74682064,%eax
      54:	74 70                	je     c6 <.rodata+0xc6>
      56:	64                   	fs
      57:	5f                   	pop    %rdi
      58:	63 6f 6e             	movslq 0x6e(%rdi),%ebp
      5b:	6e                   	outsb  %ds:(%rsi),(%dx)
      5c:	73 20                	jae    7e <.rodata+0x7e>
      5e:	61                   	(bad)  
      5f:	6c                   	insb   (%dx),%es:(%rdi)
      60:	6c                   	insb   (%dx),%es:(%rdi)
      61:	6f                   	outsl  %ds:(%rsi),(%dx)
      62:	63 61 74             	movslq 0x74(%rcx),%esp
      65:	65 64 00 00          	gs add %al,%fs:%gs:(%rax)
	...
      9d:	00 00                	add    %al,(%rax)
      9f:	00 74 68 72          	add    %dh,0x72(%rax,%rbp,2)
      a3:	6f                   	outsl  %ds:(%rsi),(%dx)
      a4:	74 74                	je     11a <.rodata+0x11a>
      a6:	6c                   	insb   (%dx),%es:(%rdi)
      a7:	65 20 23             	and    %ah,%gs:(%rbx)
      aa:	25 64 20 27 25       	and    $0x25272064,%eax
      af:	2e 38 30             	cmp    %dh,%cs:(%rax)
      b2:	73 27                	jae    db <.rodata+0xdb>
      b4:	20 72 61             	and    %dh,0x61(%rdx)
      b7:	74 65                	je     11e <.rodata+0x11e>
      b9:	20 25 6c 64 20 67    	and    %ah,0x6720646c(%rip)        # 6720652b <lookup_hostname.constprop.1+0x67201b1b>
      bf:	72 65                	jb     126 <.rodata+0x126>
      c1:	61                   	(bad)  
      c2:	74 6c                	je     130 <.rodata+0x130>
      c4:	79 20                	jns    e6 <.rodata+0xe6>
      c6:	65                   	gs
      c7:	78 63                	js     12c <.rodata+0x12c>
      c9:	65 65 64 69 6e 67 20 	gs gs imul $0x6d696c20,%fs:%gs:0x67(%rsi),%ebp
      d0:	6c 69 6d 
      d3:	69 74 20 25 6c 64 3b 	imul   $0x203b646c,0x25(%rax,%riz,1),%esi
      da:	20 
      db:	25 64 20 73 65       	and    $0x65732064,%eax
      e0:	6e                   	outsb  %ds:(%rsi),(%dx)
      e1:	64 69 6e 67 00 00 00 	imul   $0x0,%fs:0x67(%rsi),%ebp
      e8:	00 
	...
     11d:	00 00                	add    %al,(%rax)
     11f:	00 74 68 72          	add    %dh,0x72(%rax,%rbp,2)
     123:	6f                   	outsl  %ds:(%rsi),(%dx)
     124:	74 74                	je     19a <.rodata+0x19a>
     126:	6c                   	insb   (%dx),%es:(%rdi)
     127:	65 20 23             	and    %ah,%gs:(%rbx)
     12a:	25 64 20 27 25       	and    $0x25272064,%eax
     12f:	2e 38 30             	cmp    %dh,%cs:(%rax)
     132:	73 27                	jae    15b <.rodata+0x15b>
     134:	20 72 61             	and    %dh,0x61(%rdx)
     137:	74 65                	je     19e <.rodata+0x19e>
     139:	20 25 6c 64 20 65    	and    %ah,0x6520646c(%rip)        # 652065ab <lookup_hostname.constprop.1+0x65201b9b>
     13f:	78 63                	js     1a4 <.rodata+0x1a4>
     141:	65 65 64 69 6e 67 20 	gs gs imul $0x6d696c20,%fs:%gs:0x67(%rsi),%ebp
     148:	6c 69 6d 
     14b:	69 74 20 25 6c 64 3b 	imul   $0x203b646c,0x25(%rax,%riz,1),%esi
     152:	20 
     153:	25 64 20 73 65       	and    $0x65732064,%eax
     158:	6e                   	outsb  %ds:(%rsi),(%dx)
     159:	64 69 6e 67 00 00 00 	imul   $0x0,%fs:0x67(%rsi),%ebp
     160:	00 
	...
     17d:	00 00                	add    %al,(%rax)
     17f:	00 74 68 72          	add    %dh,0x72(%rax,%rbp,2)
     183:	6f                   	outsl  %ds:(%rsi),(%dx)
     184:	74 74                	je     1fa <.rodata+0x1fa>
     186:	6c                   	insb   (%dx),%es:(%rdi)
     187:	65 20 23             	and    %ah,%gs:(%rbx)
     18a:	25 64 20 27 25       	and    $0x25272064,%eax
     18f:	2e 38 30             	cmp    %dh,%cs:(%rax)
     192:	73 27                	jae    1bb <.rodata+0x1bb>
     194:	20 72 61             	and    %dh,0x61(%rdx)
     197:	74 65                	je     1fe <.rodata+0x1fe>
     199:	20 25 6c 64 20 6c    	and    %ah,0x6c20646c(%rip)        # 6c20660b <lookup_hostname.constprop.1+0x6c201bfb>
     19f:	6f                   	outsl  %ds:(%rsi),(%dx)
     1a0:	77 65                	ja     207 <.rodata+0x207>
     1a2:	72 20                	jb     1c4 <.rodata+0x1c4>
     1a4:	74 68                	je     20e <.rodata+0x20e>
     1a6:	61                   	(bad)  
     1a7:	6e                   	outsb  %ds:(%rsi),(%dx)
     1a8:	20 6d 69             	and    %ch,0x69(%rbp)
     1ab:	6e                   	outsb  %ds:(%rsi),(%dx)
     1ac:	69 6d 75 6d 20 25 6c 	imul   $0x6c25206d,0x75(%rbp),%ebp
     1b3:	64 3b 20             	cmp    %fs:(%rax),%esp
     1b6:	25 64 20 73 65       	and    $0x65732064,%eax
     1bb:	6e                   	outsb  %ds:(%rsi),(%dx)
     1bc:	64 69 6e 67 00 00 00 	imul   $0x0,%fs:0x67(%rsi),%ebp
     1c3:	00 
	...
     200:	25 73 3a 20 6e       	and    $0x6e203a73,%eax
     205:	6f                   	outsl  %ds:(%rsi),(%dx)
     206:	20 76 61             	and    %dh,0x61(%rsi)
     209:	6c                   	insb   (%dx),%es:(%rdi)
     20a:	75 65                	jne    271 <.rodata+0x271>
     20c:	20 72 65             	and    %dh,0x65(%rdx)
     20f:	71 75                	jno    286 <.rodata+0x286>
     211:	69 72 65 64 20 66 6f 	imul   $0x6f662064,0x65(%rdx),%esi
     218:	72 20                	jb     23a <.rodata+0x23a>
     21a:	25 73 20 6f 70       	and    $0x706f2073,%eax
     21f:	74 69                	je     28a <.rodata+0x28a>
     221:	6f                   	outsl  %ds:(%rsi),(%dx)
     222:	6e                   	outsb  %ds:(%rsi),(%dx)
     223:	0a 00                	or     (%rax),%al
	...
     25d:	00 00                	add    %al,(%rax)
     25f:	00 25 73 3a 20 76    	add    %ah,0x76203a73(%rip)        # 76203cd8 <lookup_hostname.constprop.1+0x761ff2c8>
     265:	61                   	(bad)  
     266:	6c                   	insb   (%dx),%es:(%rdi)
     267:	75 65                	jne    2ce <.rodata+0x2ce>
     269:	20 72 65             	and    %dh,0x65(%rdx)
     26c:	71 75                	jno    2e3 <.rodata+0x2e3>
     26e:	69 72 65 64 20 66 6f 	imul   $0x6f662064,0x65(%rdx),%esi
     275:	72 20                	jb     297 <.rodata+0x297>
     277:	25 73 20 6f 70       	and    $0x706f2073,%eax
     27c:	74 69                	je     2e7 <.rodata+0x2e7>
     27e:	6f                   	outsl  %ds:(%rsi),(%dx)
     27f:	6e                   	outsb  %ds:(%rsi),(%dx)
     280:	0a 00                	or     (%rax),%al
	...
     2be:	00 00                	add    %al,(%rax)
     2c0:	75 73                	jne    335 <.rodata+0x335>
     2c2:	61                   	(bad)  
     2c3:	67 65 3a 20          	cmp    %gs:(%eax),%ah
     2c7:	20 25 73 20 5b 2d    	and    %ah,0x2d5b2073(%rip)        # 2d5b2340 <lookup_hostname.constprop.1+0x2d5ad930>
     2cd:	43 20 63 6f          	rex.XB and %spl,0x6f(%r11)
     2d1:	6e                   	outsb  %ds:(%rsi),(%dx)
     2d2:	66 69 67 66 69 6c    	imul   $0x6c69,0x66(%rdi),%sp
     2d8:	65                   	gs
     2d9:	5d                   	pop    %rbp
     2da:	20 5b 2d             	and    %bl,0x2d(%rbx)
     2dd:	70 20                	jo     2ff <.rodata+0x2ff>
     2df:	70 6f                	jo     350 <.rodata+0x350>
     2e1:	72 74                	jb     357 <.rodata+0x357>
     2e3:	5d                   	pop    %rbp
     2e4:	20 5b 2d             	and    %bl,0x2d(%rbx)
     2e7:	64 20 64 69 72       	and    %ah,%fs:0x72(%rcx,%rbp,2)
     2ec:	5d                   	pop    %rbp
     2ed:	20 5b 2d             	and    %bl,0x2d(%rbx)
     2f0:	72 7c                	jb     36e <.rodata+0x36e>
     2f2:	2d 6e 6f 72 5d       	sub    $0x5d726f6e,%eax
     2f7:	20 5b 2d             	and    %bl,0x2d(%rbx)
     2fa:	64 64 20 64 61 74    	fs and %ah,%fs:0x74(%rcx,%riz,2)
     300:	61                   	(bad)  
     301:	5f                   	pop    %rdi
     302:	64 69 72 5d 20 5b 2d 	imul   $0x732d5b20,%fs:0x5d(%rdx),%esi
     309:	73 
     30a:	7c 2d                	jl     339 <.rodata+0x339>
     30c:	6e                   	outsb  %ds:(%rsi),(%dx)
     30d:	6f                   	outsl  %ds:(%rsi),(%dx)
     30e:	73 5d                	jae    36d <.rodata+0x36d>
     310:	20 5b 2d             	and    %bl,0x2d(%rbx)
     313:	76 7c                	jbe    391 <.rodata+0x391>
     315:	2d 6e 6f 76 5d       	sub    $0x5d766f6e,%eax
     31a:	20 5b 2d             	and    %bl,0x2d(%rbx)
     31d:	67 7c 2d             	addr32 jl 34d <.rodata+0x34d>
     320:	6e                   	outsb  %ds:(%rsi),(%dx)
     321:	6f                   	outsl  %ds:(%rsi),(%dx)
     322:	67 5d                	addr32 pop %rbp
     324:	20 5b 2d             	and    %bl,0x2d(%rbx)
     327:	75 20                	jne    349 <.rodata+0x349>
     329:	75 73                	jne    39e <.rodata+0x39e>
     32b:	65                   	gs
     32c:	72 5d                	jb     38b <.rodata+0x38b>
     32e:	20 5b 2d             	and    %bl,0x2d(%rbx)
     331:	63 20                	movslq (%rax),%esp
     333:	63 67 69             	movslq 0x69(%rdi),%esp
     336:	70 61                	jo     399 <.rodata+0x399>
     338:	74 5d                	je     397 <.rodata+0x397>
     33a:	20 5b 2d             	and    %bl,0x2d(%rbx)
     33d:	74 20                	je     35f <.rodata+0x35f>
     33f:	74 68                	je     3a9 <.rodata+0x3a9>
     341:	72 6f                	jb     3b2 <.rodata+0x3b2>
     343:	74 74                	je     3b9 <.rodata+0x3b9>
     345:	6c                   	insb   (%dx),%es:(%rdi)
     346:	65                   	gs
     347:	73 5d                	jae    3a6 <.rodata+0x3a6>
     349:	20 5b 2d             	and    %bl,0x2d(%rbx)
     34c:	68 20 68 6f 73       	pushq  $0x736f6820
     351:	74 5d                	je     3b0 <.rodata+0x3b0>
     353:	20 5b 2d             	and    %bl,0x2d(%rbx)
     356:	6c                   	insb   (%dx),%es:(%rdi)
     357:	20 6c 6f 67          	and    %ch,0x67(%rdi,%rbp,2)
     35b:	66 69 6c 65 5d 20 5b 	imul   $0x5b20,0x5d(%rbp,%riz,2),%bp
     362:	2d 69 20 70 69       	sub    $0x69702069,%eax
     367:	64 66 69 6c 65 5d 20 	imul   $0x5b20,%fs:0x5d(%rbp,%riz,2),%bp
     36e:	5b 
     36f:	2d 54 20 63 68       	sub    $0x68632054,%eax
     374:	61                   	(bad)  
     375:	72 73                	jb     3ea <.rodata+0x3ea>
     377:	65                   	gs
     378:	74 5d                	je     3d7 <.rodata+0x3d7>
     37a:	20 5b 2d             	and    %bl,0x2d(%rbx)
     37d:	50                   	push   %rax
     37e:	20 50 33             	and    %dl,0x33(%rax)
     381:	50                   	push   %rax
     382:	5d                   	pop    %rbp
     383:	20 5b 2d             	and    %bl,0x2d(%rbx)
     386:	4d 20 6d 61          	rex.WRB and %r13b,0x61(%r13)
     38a:	78 61                	js     3ed <.rodata+0x3ed>
     38c:	67                   	addr32
     38d:	65                   	gs
     38e:	5d                   	pop    %rbp
     38f:	20 5b 2d             	and    %bl,0x2d(%rbx)
     392:	56                   	push   %rsi
     393:	5d                   	pop    %rbp
     394:	20 5b 2d             	and    %bl,0x2d(%rbx)
     397:	44 5d                	rex.R pop %rbp
     399:	0a 00                	or     (%rax),%al
	...
     3bf:	00 75 70             	add    %dh,0x70(%rbp)
     3c2:	20 25 6c 64 20 73    	and    %ah,0x7320646c(%rip)        # 73206834 <lookup_hostname.constprop.1+0x73201e24>
     3c8:	65 63 6f 6e          	movslq %gs:0x6e(%rdi),%ebp
     3cc:	64                   	fs
     3cd:	73 2c                	jae    3fb <.rodata+0x3fb>
     3cf:	20 73 74             	and    %dh,0x74(%rbx)
     3d2:	61                   	(bad)  
     3d3:	74 73                	je     448 <.rodata+0x448>
     3d5:	20 66 6f             	and    %ah,0x6f(%rsi)
     3d8:	72 20                	jb     3fa <.rodata+0x3fa>
     3da:	25 6c 64 20 73       	and    $0x7320646c,%eax
     3df:	65 63 6f 6e          	movslq %gs:0x6e(%rdi),%ebp
     3e3:	64                   	fs
     3e4:	73 3a                	jae    420 <.rodata+0x420>
	...
     41e:	00 00                	add    %al,(%rax)
     420:	2f                   	(bad)  
     421:	74 6d                	je     490 <.rodata+0x490>
     423:	70 00                	jo     425 <.rodata+0x425>
	...
     45d:	00 00                	add    %al,(%rax)
     45f:	00 63 68             	add    %ah,0x68(%rbx)
     462:	69 6c 64 20 77 61 69 	imul   $0x74696177,0x20(%rsp,%riz,2),%ebp
     469:	74 
     46a:	20 2d 20 25 6d 00    	and    %ch,0x6d2520(%rip)        # 6d2990 <lookup_hostname.constprop.1+0x6cdf80>
	...
     4a0:	6f                   	outsl  %ds:(%rsi),(%dx)
     4a1:	75 74                	jne    517 <.rodata+0x517>
     4a3:	20 6f 66             	and    %ch,0x66(%rdi)
     4a6:	20 6d 65             	and    %ch,0x65(%rbp)
     4a9:	6d                   	insl   (%dx),%es:(%rdi)
     4aa:	6f                   	outsl  %ds:(%rsi),(%dx)
     4ab:	72 79                	jb     526 <.rodata+0x526>
     4ad:	20 63 6f             	and    %ah,0x6f(%rbx)
     4b0:	70 79                	jo     52b <.rodata+0x52b>
     4b2:	69 6e 67 20 61 20 73 	imul   $0x73206120,0x67(%rsi),%ebp
     4b9:	74 72                	je     52d <.rodata+0x52d>
     4bb:	69 6e 67 00 00 00 00 	imul   $0x0,0x67(%rsi),%ebp
	...
     4de:	00 00                	add    %al,(%rax)
     4e0:	25 73 3a 20 6f       	and    $0x6f203a73,%eax
     4e5:	75 74                	jne    55b <.rodata+0x55b>
     4e7:	20 6f 66             	and    %ch,0x66(%rdi)
     4ea:	20 6d 65             	and    %ch,0x65(%rbp)
     4ed:	6d                   	insl   (%dx),%es:(%rdi)
     4ee:	6f                   	outsl  %ds:(%rsi),(%dx)
     4ef:	72 79                	jb     56a <.rodata+0x56a>
     4f1:	20 63 6f             	and    %ah,0x6f(%rbx)
     4f4:	70 79                	jo     56f <.rodata+0x56f>
     4f6:	69 6e 67 20 61 20 73 	imul   $0x73206120,0x67(%rsi),%ebp
     4fd:	74 72                	je     571 <.rodata+0x571>
     4ff:	69 6e 67 0a 00 00 00 	imul   $0xa,0x67(%rsi),%ebp
	...
     53e:	00 00                	add    %al,(%rax)
     540:	72 00                	jb     542 <.rodata+0x542>
	...
     57e:	00 00                	add    %al,(%rax)
     580:	20 09                	and    %cl,(%rcx)
     582:	0a 0d 00 00 00 00    	or     0x0(%rip),%cl        # 588 <.rodata+0x588>
	...
     5c0:	64                   	fs
     5c1:	65                   	gs
     5c2:	62                   	(bad)  
     5c3:	75 67                	jne    62c <.rodata+0x62c>
	...
     5fd:	00 00                	add    %al,(%rax)
     5ff:	00 70 6f             	add    %dh,0x6f(%rax)
     602:	72 74                	jb     678 <.rodata+0x678>
	...
     640:	64 69 72 00 00 00 00 	imul   $0x0,%fs:0x0(%rdx),%esi
     647:	00 
	...
     680:	63 68 72             	movslq 0x72(%rax),%ebp
     683:	6f                   	outsl  %ds:(%rsi),(%dx)
     684:	6f                   	outsl  %ds:(%rsi),(%dx)
     685:	74 00                	je     687 <.rodata+0x687>
	...
     6bf:	00 6e 6f             	add    %ch,0x6f(%rsi)
     6c2:	63 68 72             	movslq 0x72(%rax),%ebp
     6c5:	6f                   	outsl  %ds:(%rsi),(%dx)
     6c6:	6f                   	outsl  %ds:(%rsi),(%dx)
     6c7:	74 00                	je     6c9 <.rodata+0x6c9>
	...
     6fd:	00 00                	add    %al,(%rax)
     6ff:	00 64 61 74          	add    %ah,0x74(%rcx,%riz,2)
     703:	61                   	(bad)  
     704:	5f                   	pop    %rdi
     705:	64 69 72 00 00 00 00 	imul   $0x0,%fs:0x0(%rdx),%esi
     70c:	00 
	...
     73d:	00 00                	add    %al,(%rax)
     73f:	00 73 79             	add    %dh,0x79(%rbx)
     742:	6d                   	insl   (%dx),%es:(%rdi)
     743:	6c                   	insb   (%dx),%es:(%rdi)
     744:	69 6e 6b 00 00 00 00 	imul   $0x0,0x6b(%rsi),%ebp
	...
     77f:	00 6e 6f             	add    %ch,0x6f(%rsi)
     782:	73 79                	jae    7fd <.rodata+0x7fd>
     784:	6d                   	insl   (%dx),%es:(%rdi)
     785:	6c                   	insb   (%dx),%es:(%rdi)
     786:	69 6e 6b 00 00 00 00 	imul   $0x0,0x6b(%rsi),%ebp
	...
     7bd:	00 00                	add    %al,(%rax)
     7bf:	00 73 79             	add    %dh,0x79(%rbx)
     7c2:	6d                   	insl   (%dx),%es:(%rdi)
     7c3:	6c                   	insb   (%dx),%es:(%rdi)
     7c4:	69 6e 6b 73 00 00 00 	imul   $0x73,0x6b(%rsi),%ebp
	...
     7ff:	00 6e 6f             	add    %ch,0x6f(%rsi)
     802:	73 79                	jae    87d <.rodata+0x87d>
     804:	6d                   	insl   (%dx),%es:(%rdi)
     805:	6c                   	insb   (%dx),%es:(%rdi)
     806:	69 6e 6b 73 00 00 00 	imul   $0x73,0x6b(%rsi),%ebp
	...
     83d:	00 00                	add    %al,(%rax)
     83f:	00 75 73             	add    %dh,0x73(%rbp)
     842:	65                   	gs
     843:	72 00                	jb     845 <.rodata+0x845>
	...
     87d:	00 00                	add    %al,(%rax)
     87f:	00 63 67             	add    %ah,0x67(%rbx)
     882:	69 70 61 74 00 00 00 	imul   $0x74,0x61(%rax),%esi
	...
     8bd:	00 00                	add    %al,(%rax)
     8bf:	00 63 67             	add    %ah,0x67(%rbx)
     8c2:	69 6c 69 6d 69 74 00 	imul   $0x7469,0x6d(%rcx,%rbp,2),%ebp
     8c9:	00 
	...
     8fe:	00 00                	add    %al,(%rax)
     900:	75 72                	jne    974 <.rodata+0x974>
     902:	6c                   	insb   (%dx),%es:(%rdi)
     903:	70 61                	jo     966 <.rodata+0x966>
     905:	74 00                	je     907 <.rodata+0x907>
	...
     93f:	00 6e 6f             	add    %ch,0x6f(%rsi)
     942:	65                   	gs
     943:	6d                   	insl   (%dx),%es:(%rdi)
     944:	70 74                	jo     9ba <.rodata+0x9ba>
     946:	79 72                	jns    9ba <.rodata+0x9ba>
     948:	65                   	gs
     949:	66                   	data16
     94a:	65                   	gs
     94b:	72 65                	jb     9b2 <.rodata+0x9b2>
     94d:	72 73                	jb     9c2 <.rodata+0x9c2>
	...
     97f:	00 6c 6f 63          	add    %ch,0x63(%rdi,%rbp,2)
     983:	61                   	(bad)  
     984:	6c                   	insb   (%dx),%es:(%rdi)
     985:	70 61                	jo     9e8 <.rodata+0x9e8>
     987:	74 00                	je     989 <.rodata+0x989>
	...
     9bd:	00 00                	add    %al,(%rax)
     9bf:	00 74 68 72          	add    %dh,0x72(%rax,%rbp,2)
     9c3:	6f                   	outsl  %ds:(%rsi),(%dx)
     9c4:	74 74                	je     a3a <.rodata+0xa3a>
     9c6:	6c                   	insb   (%dx),%es:(%rdi)
     9c7:	65                   	gs
     9c8:	73 00                	jae    9ca <.rodata+0x9ca>
	...
     9fe:	00 00                	add    %al,(%rax)
     a00:	68 6f 73 74 00       	pushq  $0x74736f
	...
     a3d:	00 00                	add    %al,(%rax)
     a3f:	00 6c 6f 67          	add    %ch,0x67(%rdi,%rbp,2)
     a43:	66 69 6c 65 00 00 00 	imul   $0x0,0x0(%rbp,%riz,2),%bp
	...
     a7e:	00 00                	add    %al,(%rax)
     a80:	76 68                	jbe    aea <.rodata+0xaea>
     a82:	6f                   	outsl  %ds:(%rsi),(%dx)
     a83:	73 74                	jae    af9 <.rodata+0xaf9>
	...
     abd:	00 00                	add    %al,(%rax)
     abf:	00 6e 6f             	add    %ch,0x6f(%rsi)
     ac2:	76 68                	jbe    b2c <.rodata+0xb2c>
     ac4:	6f                   	outsl  %ds:(%rsi),(%dx)
     ac5:	73 74                	jae    b3b <.rodata+0xb3b>
	...
     aff:	00 67 6c             	add    %ah,0x6c(%rdi)
     b02:	6f                   	outsl  %ds:(%rsi),(%dx)
     b03:	62 61 6c 70 61       	(bad)  
     b08:	73 73                	jae    b7d <.rodata+0xb7d>
     b0a:	77 64                	ja     b70 <.rodata+0xb70>
	...
     b40:	6e                   	outsb  %ds:(%rsi),(%dx)
     b41:	6f                   	outsl  %ds:(%rsi),(%dx)
     b42:	67 6c                	insb   (%dx),%es:(%edi)
     b44:	6f                   	outsl  %ds:(%rsi),(%dx)
     b45:	62 61 6c 70 61       	(bad)  
     b4a:	73 73                	jae    bbf <.rodata+0xbbf>
     b4c:	77 64                	ja     bb2 <.rodata+0xbb2>
	...
     b7e:	00 00                	add    %al,(%rax)
     b80:	70 69                	jo     beb <.rodata+0xbeb>
     b82:	64 66 69 6c 65 00 00 	imul   $0x0,%fs:0x0(%rbp,%riz,2),%bp
     b89:	00 
	...
     bbe:	00 00                	add    %al,(%rax)
     bc0:	63 68 61             	movslq 0x61(%rax),%ebp
     bc3:	72 73                	jb     c38 <.rodata+0xc38>
     bc5:	65                   	gs
     bc6:	74 00                	je     bc8 <.rodata+0xbc8>
	...
     c00:	70 33                	jo     c35 <.rodata+0xc35>
     c02:	70 00                	jo     c04 <.rodata+0xc04>
	...
     c40:	6d                   	insl   (%dx),%es:(%rdi)
     c41:	61                   	(bad)  
     c42:	78 5f                	js     ca3 <.rodata+0xca3>
     c44:	61                   	(bad)  
     c45:	67 65 00 00          	add    %al,%gs:(%eax)
	...
     c7d:	00 00                	add    %al,(%rax)
     c7f:	00 25 73 3a 20 75    	add    %ah,0x75203a73(%rip)        # 752046f8 <lookup_hostname.constprop.1+0x751ffce8>
     c85:	6e                   	outsb  %ds:(%rsi),(%dx)
     c86:	6b 6e 6f 77          	imul   $0x77,0x6f(%rsi),%ebp
     c8a:	6e                   	outsb  %ds:(%rsi),(%dx)
     c8b:	20 63 6f             	and    %ah,0x6f(%rbx)
     c8e:	6e                   	outsb  %ds:(%rsi),(%dx)
     c8f:	66 69 67 20 6f 70    	imul   $0x706f,0x20(%rdi),%sp
     c95:	74 69                	je     d00 <.rodata+0xd00>
     c97:	6f                   	outsl  %ds:(%rsi),(%dx)
     c98:	6e                   	outsb  %ds:(%rsi),(%dx)
     c99:	20 27                	and    %ah,(%rdi)
     c9b:	25 73 27 0a 00       	and    $0xa2773,%eax
	...
     cc0:	6e                   	outsb  %ds:(%rsi),(%dx)
     cc1:	6f                   	outsl  %ds:(%rsi),(%dx)
     cc2:	62                   	(bad)  
     cc3:	6f                   	outsl  %ds:(%rsi),(%dx)
     cc4:	64                   	fs
     cc5:	79 00                	jns    cc7 <.rodata+0xcc7>
	...
     cff:	00 69 73             	add    %ch,0x73(%rcx)
     d02:	6f                   	outsl  %ds:(%rsi),(%dx)
     d03:	2d 38 38 35 39       	sub    $0x39353838,%eax
     d08:	2d 31 00 00 00       	sub    $0x31,%eax
	...
     d7d:	00 00                	add    %al,(%rax)
     d7f:	00 2d 56 00 00 00    	add    %ch,0x56(%rip)        # ddb <.rodata+0xddb>
	...
     dbd:	00 00                	add    %al,(%rax)
     dbf:	00 74 68 74          	add    %dh,0x74(%rax,%rbp,2)
     dc3:	74 70                	je     e35 <.rodata+0xe35>
     dc5:	64                   	fs
     dc6:	2f                   	(bad)  
     dc7:	32 2e                	xor    (%rsi),%ch
     dc9:	32 37                	xor    (%rdi),%dh
     dcb:	2e 30 20             	xor    %ah,%cs:(%rax)
     dce:	4f 63 74 20 33       	movslq 0x33(%r8,%r12,1),%r14
     dd3:	2c 20                	sub    $0x20,%al
     dd5:	32 30                	xor    (%rax),%dh
     dd7:	31 34 00             	xor    %esi,(%rax,%rax,1)
	...
     dfe:	00 00                	add    %al,(%rax)
     e00:	2d 43 00 00 00       	sub    $0x43,%eax
	...
     e3d:	00 00                	add    %al,(%rax)
     e3f:	00 2d 70 00 00 00    	add    %ch,0x70(%rip)        # eb5 <.rodata+0xeb5>
	...
     e7d:	00 00                	add    %al,(%rax)
     e7f:	00 2d 64 00 00 00    	add    %ch,0x64(%rip)        # ee9 <.rodata+0xee9>
	...
     ebd:	00 00                	add    %al,(%rax)
     ebf:	00 2d 72 00 00 00    	add    %ch,0x72(%rip)        # f37 <.rodata+0xf37>
	...
     efd:	00 00                	add    %al,(%rax)
     eff:	00 2d 6e 6f 72 00    	add    %ch,0x726f6e(%rip)        # 727e73 <lookup_hostname.constprop.1+0x723463>
	...
     f3d:	00 00                	add    %al,(%rax)
     f3f:	00 2d 64 64 00 00    	add    %ch,0x6464(%rip)        # 73a9 <lookup_hostname.constprop.1+0x2999>
	...
     f7d:	00 00                	add    %al,(%rax)
     f7f:	00 2d 73 00 00 00    	add    %ch,0x73(%rip)        # ff8 <.rodata+0xff8>
	...
     fbd:	00 00                	add    %al,(%rax)
     fbf:	00 2d 6e 6f 73 00    	add    %ch,0x736f6e(%rip)        # 737f33 <lookup_hostname.constprop.1+0x733523>
	...
     ffd:	00 00                	add    %al,(%rax)
     fff:	00 2d 75 00 00 00    	add    %ch,0x75(%rip)        # 107a <.rodata+0x107a>
	...
    103d:	00 00                	add    %al,(%rax)
    103f:	00 2d 63 00 00 00    	add    %ch,0x63(%rip)        # 10a8 <.rodata+0x10a8>
	...
    107d:	00 00                	add    %al,(%rax)
    107f:	00 2d 74 00 00 00    	add    %ch,0x74(%rip)        # 10f9 <.rodata+0x10f9>
	...
    10bd:	00 00                	add    %al,(%rax)
    10bf:	00 2d 68 00 00 00    	add    %ch,0x68(%rip)        # 112d <.rodata+0x112d>
	...
    10fd:	00 00                	add    %al,(%rax)
    10ff:	00 2d 6c 00 00 00    	add    %ch,0x6c(%rip)        # 1171 <.rodata+0x1171>
	...
    113d:	00 00                	add    %al,(%rax)
    113f:	00 2d 76 00 00 00    	add    %ch,0x76(%rip)        # 11bb <.rodata+0x11bb>
	...
    117d:	00 00                	add    %al,(%rax)
    117f:	00 2d 6e 6f 76 00    	add    %ch,0x766f6e(%rip)        # 7680f3 <lookup_hostname.constprop.1+0x7636e3>
	...
    11bd:	00 00                	add    %al,(%rax)
    11bf:	00 2d 67 00 00 00    	add    %ch,0x67(%rip)        # 122c <.rodata+0x122c>
	...
    11fd:	00 00                	add    %al,(%rax)
    11ff:	00 2d 6e 6f 67 00    	add    %ch,0x676f6e(%rip)        # 678173 <lookup_hostname.constprop.1+0x673763>
	...
    123d:	00 00                	add    %al,(%rax)
    123f:	00 2d 69 00 00 00    	add    %ch,0x69(%rip)        # 12ae <.rodata+0x12ae>
	...
    127d:	00 00                	add    %al,(%rax)
    127f:	00 2d 54 00 00 00    	add    %ch,0x54(%rip)        # 12d9 <.rodata+0x12d9>
	...
    12bd:	00 00                	add    %al,(%rax)
    12bf:	00 2d 50 00 00 00    	add    %ch,0x50(%rip)        # 1315 <.rodata+0x1315>
	...
    12fd:	00 00                	add    %al,(%rax)
    12ff:	00 2d 4d 00 00 00    	add    %ch,0x4d(%rip)        # 1352 <.rodata+0x1352>
	...
    133d:	00 00                	add    %al,(%rax)
    133f:	00 2d 44 00 00 00    	add    %ch,0x44(%rip)        # 1389 <.rodata+0x1389>
	...
    137d:	00 00                	add    %al,(%rax)
    137f:	00 25 2e 38 30 73    	add    %ah,0x7330382e(%rip)        # 73304bb3 <lookup_hostname.constprop.1+0x733001a3>
    1385:	20 2d 20 25 6d 00    	and    %ch,0x6d2520(%rip)        # 6d38ab <lookup_hostname.constprop.1+0x6cee9b>
	...
    13bf:	00 20                	add    %ah,(%rax)
    13c1:	25 34 39 30 30       	and    $0x30303934,%eax
    13c6:	5b                   	pop    %rbx
    13c7:	5e                   	pop    %rsi
    13c8:	20 09                	and    %cl,(%rcx)
    13ca:	5d                   	pop    %rbp
    13cb:	20 25 6c 64 2d 25    	and    %ah,0x252d646c(%rip)        # 252d783d <lookup_hostname.constprop.1+0x252d2e2d>
    13d1:	6c                   	insb   (%dx),%es:(%rdi)
    13d2:	64 00 00             	add    %al,%fs:(%rax)
	...
    13fd:	00 00                	add    %al,(%rax)
    13ff:	00 20                	add    %ah,(%rax)
    1401:	25 34 39 30 30       	and    $0x30303934,%eax
    1406:	5b                   	pop    %rbx
    1407:	5e                   	pop    %rsi
    1408:	20 09                	and    %cl,(%rcx)
    140a:	5d                   	pop    %rbp
    140b:	20 25 6c 64 00 00    	and    %ah,0x646c(%rip)        # 787d <lookup_hostname.constprop.1+0x2e6d>
	...
    143d:	00 00                	add    %al,(%rax)
    143f:	00 75 6e             	add    %dh,0x6e(%rbp)
    1442:	70 61                	jo     14a5 <.rodata+0x14a5>
    1444:	72 73                	jb     14b9 <.rodata+0x14b9>
    1446:	61                   	(bad)  
    1447:	62                   	(bad)  
    1448:	6c                   	insb   (%dx),%es:(%rdi)
    1449:	65 20 6c 69 6e       	and    %ch,%gs:0x6e(%rcx,%rbp,2)
    144e:	65 20 69 6e          	and    %ch,%gs:0x6e(%rcx)
    1452:	20 25 2e 38 30 73    	and    %ah,0x7330382e(%rip)        # 73304c86 <lookup_hostname.constprop.1+0x73300276>
    1458:	20 2d 20 25 2e 38    	and    %ch,0x382e2520(%rip)        # 382e397e <lookup_hostname.constprop.1+0x382def6e>
    145e:	30 73 00             	xor    %dh,0x0(%rbx)
	...
    149d:	00 00                	add    %al,(%rax)
    149f:	00 25 73 3a 20 75    	add    %ah,0x75203a73(%rip)        # 75204f18 <lookup_hostname.constprop.1+0x75200508>
    14a5:	6e                   	outsb  %ds:(%rsi),(%dx)
    14a6:	70 61                	jo     1509 <.rodata+0x1509>
    14a8:	72 73                	jb     151d <.rodata+0x151d>
    14aa:	61                   	(bad)  
    14ab:	62                   	(bad)  
    14ac:	6c                   	insb   (%dx),%es:(%rdi)
    14ad:	65 20 6c 69 6e       	and    %ch,%gs:0x6e(%rcx,%rbp,2)
    14b2:	65 20 69 6e          	and    %ch,%gs:0x6e(%rcx)
    14b6:	20 25 2e 38 30 73    	and    %ah,0x7330382e(%rip)        # 73304cea <lookup_hostname.constprop.1+0x733002da>
    14bc:	20 2d 20 25 2e 38    	and    %ch,0x382e2520(%rip)        # 382e39e2 <lookup_hostname.constprop.1+0x382defd2>
    14c2:	30 73 0a             	xor    %dh,0xa(%rbx)
	...
    14fd:	00 00                	add    %al,(%rax)
    14ff:	00 7c 2f 00          	add    %bh,0x0(%rdi,%rbp,1)
	...
    153f:	00 6f 75             	add    %ch,0x75(%rdi)
    1542:	74 20                	je     1564 <.rodata+0x1564>
    1544:	6f                   	outsl  %ds:(%rsi),(%dx)
    1545:	66                   	data16
    1546:	20 6d 65             	and    %ch,0x65(%rbp)
    1549:	6d                   	insl   (%dx),%es:(%rdi)
    154a:	6f                   	outsl  %ds:(%rsi),(%dx)
    154b:	72 79                	jb     15c6 <.rodata+0x15c6>
    154d:	20 61 6c             	and    %ah,0x6c(%rcx)
    1550:	6c                   	insb   (%dx),%es:(%rdi)
    1551:	6f                   	outsl  %ds:(%rsi),(%dx)
    1552:	63 61 74             	movslq 0x74(%rcx),%esp
    1555:	69 6e 67 20 61 20 74 	imul   $0x74206120,0x67(%rsi),%ebp
    155c:	68 72 6f 74 74       	pushq  $0x74746f72
    1561:	6c                   	insb   (%dx),%es:(%rdi)
    1562:	65                   	gs
    1563:	74 61                	je     15c6 <.rodata+0x15c6>
    1565:	62                   	(bad)  
	...
    159e:	00 00                	add    %al,(%rax)
    15a0:	25 73 3a 20 6f       	and    $0x6f203a73,%eax
    15a5:	75 74                	jne    161b <.rodata+0x161b>
    15a7:	20 6f 66             	and    %ch,0x66(%rdi)
    15aa:	20 6d 65             	and    %ch,0x65(%rbp)
    15ad:	6d                   	insl   (%dx),%es:(%rdi)
    15ae:	6f                   	outsl  %ds:(%rsi),(%dx)
    15af:	72 79                	jb     162a <.rodata+0x162a>
    15b1:	20 61 6c             	and    %ah,0x6c(%rcx)
    15b4:	6c                   	insb   (%dx),%es:(%rdi)
    15b5:	6f                   	outsl  %ds:(%rsi),(%dx)
    15b6:	63 61 74             	movslq 0x74(%rcx),%esp
    15b9:	69 6e 67 20 61 20 74 	imul   $0x74206120,0x67(%rsi),%ebp
    15c0:	68 72 6f 74 74       	pushq  $0x74746f72
    15c5:	6c                   	insb   (%dx),%es:(%rdi)
    15c6:	65                   	gs
    15c7:	74 61                	je     162a <.rodata+0x162a>
    15c9:	62                   	(bad)  
    15ca:	0a 00                	or     (%rax),%al
	...
    1600:	2d 00 00 00 00       	sub    $0x0,%eax
	...
    163d:	00 00                	add    %al,(%rax)
    163f:	00 72 65             	add    %dh,0x65(%rdx)
    1642:	2d 6f 70 65 6e       	sub    $0x6e65706f,%eax
    1647:	69 6e 67 20 6c 6f 67 	imul   $0x676f6c20,0x67(%rsi),%ebp
    164e:	66 69 6c 65 00 00 00 	imul   $0x0,0x0(%rbp,%riz,2),%bp
	...
    167d:	00 00                	add    %al,(%rax)
    167f:	00 61 00             	add    %ah,0x0(%rcx)
	...
    16be:	00 00                	add    %al,(%rax)
    16c0:	72 65                	jb     1727 <.rodata+0x1727>
    16c2:	2d 6f 70 65 6e       	sub    $0x6e65706f,%eax
    16c7:	69 6e 67 20 25 2e 38 	imul   $0x382e2520,0x67(%rsi),%ebp
    16ce:	30 73 20             	xor    %dh,0x20(%rbx)
    16d1:	2d 20 25 6d 00       	sub    $0x6d2520,%eax
	...
    16fe:	00 00                	add    %al,(%rax)
    1700:	74 6f                	je     1771 <.rodata+0x1771>
    1702:	6f                   	outsl  %ds:(%rsi),(%dx)
    1703:	20 6d 61             	and    %ch,0x61(%rbp)
    1706:	6e                   	outsb  %ds:(%rsi),(%dx)
    1707:	79 20                	jns    1729 <.rodata+0x1729>
    1709:	63 6f 6e             	movslq 0x6e(%rdi),%ebp
    170c:	6e                   	outsb  %ds:(%rsi),(%dx)
    170d:	65 63 74 69 6f       	movslq %gs:0x6f(%rcx,%rbp,2),%esi
    1712:	6e                   	outsb  %ds:(%rsi),(%dx)
    1713:	73 21                	jae    1736 <.rodata+0x1736>
	...
    173d:	00 00                	add    %al,(%rax)
    173f:	00 74 68 65          	add    %dh,0x65(%rax,%rbp,2)
    1743:	20 63 6f             	and    %ah,0x6f(%rbx)
    1746:	6e                   	outsb  %ds:(%rsi),(%dx)
    1747:	6e                   	outsb  %ds:(%rsi),(%dx)
    1748:	65 63 74 73 20       	movslq %gs:0x20(%rbx,%rsi,2),%esi
    174d:	66                   	data16
    174e:	72 65                	jb     17b5 <.rodata+0x17b5>
    1750:	65 20 6c 69 73       	and    %ch,%gs:0x73(%rcx,%rbp,2)
    1755:	74 20                	je     1777 <.rodata+0x1777>
    1757:	69 73 20 6d 65 73 73 	imul   $0x7373656d,0x20(%rbx),%esi
    175e:	65 64 20 75 70       	gs and %dh,%fs:%gs:0x70(%rbp)
	...
    179f:	00 6f 75             	add    %ch,0x75(%rdi)
    17a2:	74 20                	je     17c4 <.rodata+0x17c4>
    17a4:	6f                   	outsl  %ds:(%rsi),(%dx)
    17a5:	66                   	data16
    17a6:	20 6d 65             	and    %ch,0x65(%rbp)
    17a9:	6d                   	insl   (%dx),%es:(%rdi)
    17aa:	6f                   	outsl  %ds:(%rsi),(%dx)
    17ab:	72 79                	jb     1826 <.rodata+0x1826>
    17ad:	20 61 6c             	and    %ah,0x6c(%rcx)
    17b0:	6c                   	insb   (%dx),%es:(%rdi)
    17b1:	6f                   	outsl  %ds:(%rsi),(%dx)
    17b2:	63 61 74             	movslq 0x74(%rcx),%esp
    17b5:	69 6e 67 20 61 6e 20 	imul   $0x206e6120,0x67(%rsi),%ebp
    17bc:	68 74 74 70 64       	pushq  $0x64707474
    17c1:	5f                   	pop    %rdi
    17c2:	63 6f 6e             	movslq 0x6e(%rdi),%ebp
    17c5:	6e                   	outsb  %ds:(%rsi),(%dx)
	...
    17fe:	00 00                	add    %al,(%rax)
    1800:	74 68                	je     186a <.rodata+0x186a>
    1802:	72 6f                	jb     1873 <.rodata+0x1873>
    1804:	74 74                	je     187a <.rodata+0x187a>
    1806:	6c                   	insb   (%dx),%es:(%rdi)
    1807:	65 20 73 65          	and    %dh,%gs:0x65(%rbx)
    180b:	6e                   	outsb  %ds:(%rsi),(%dx)
    180c:	64 69 6e 67 20 63 6f 	imul   $0x756f6320,%fs:0x67(%rsi),%ebp
    1813:	75 
    1814:	6e                   	outsb  %ds:(%rsi),(%dx)
    1815:	74 20                	je     1837 <.rodata+0x1837>
    1817:	77 61                	ja     187a <.rodata+0x187a>
    1819:	73 20                	jae    183b <.rodata+0x183b>
    181b:	6e                   	outsb  %ds:(%rsi),(%dx)
    181c:	65                   	gs
    181d:	67 61                	addr32 (bad) 
    181f:	74 69                	je     188a <.rodata+0x188a>
    1821:	76 65                	jbe    1888 <.rodata+0x1888>
    1823:	20 2d 20 73 68 6f    	and    %ch,0x6f687320(%rip)        # 6f688b49 <lookup_hostname.constprop.1+0x6f684139>
    1829:	75 6c                	jne    1897 <.rodata+0x1897>
    182b:	64 6e                	outsb  %fs:(%rsi),(%dx)
    182d:	27                   	(bad)  
    182e:	74 20                	je     1850 <.rodata+0x1850>
    1830:	68 61 70 70 65       	pushq  $0x65707061
    1835:	6e                   	outsb  %ds:(%rsi),(%dx)
    1836:	21 00                	and    %eax,(%rax)
	...
    1860:	65                   	gs
    1861:	78 69                	js     18cc <.rodata+0x18cc>
    1863:	74 69                	je     18ce <.rodata+0x18ce>
    1865:	6e                   	outsb  %ds:(%rsi),(%dx)
    1866:	67 00 00             	add    %al,(%eax)
	...
    189d:	00 00                	add    %al,(%rax)
    189f:	00 65 78             	add    %ah,0x78(%rbp)
    18a2:	69 74 69 6e 67 20 64 	imul   $0x75642067,0x6e(%rcx,%rbp,2),%esi
    18a9:	75 
    18aa:	65 20 74 6f 20       	and    %dh,%gs:0x20(%rdi,%rbp,2)
    18af:	73 69                	jae    191a <.rodata+0x191a>
    18b1:	67 6e                	outsb  %ds:(%esi),(%dx)
    18b3:	61                   	(bad)  
    18b4:	6c                   	insb   (%dx),%es:(%rdi)
    18b5:	20 25 64 00 00 00    	and    %ah,0x64(%rip)        # 191f <.rodata+0x191f>
	...
    18df:	00 72 65             	add    %dh,0x65(%rdx)
    18e2:	70 6c                	jo     1950 <.rodata+0x1950>
    18e4:	61                   	(bad)  
    18e5:	63 69 6e             	movslq 0x6e(%rcx),%ebp
    18e8:	67 20 6e 6f          	and    %ch,0x6f(%esi)
    18ec:	6e                   	outsb  %ds:(%rsi),(%dx)
    18ed:	2d 6e 75 6c 6c       	sub    $0x6c6c756e,%eax
    18f2:	20 6c 69 6e          	and    %ch,0x6e(%rcx,%rbp,2)
    18f6:	67                   	addr32
    18f7:	65                   	gs
    18f8:	72 5f                	jb     1959 <.rodata+0x1959>
    18fa:	74 69                	je     1965 <.rodata+0x1965>
    18fc:	6d                   	insl   (%dx),%es:(%rdi)
    18fd:	65                   	gs
    18fe:	72 21                	jb     1921 <.rodata+0x1921>
	...
    1940:	74 6d                	je     19af <.rodata+0x19af>
    1942:	72 5f                	jb     19a3 <.rodata+0x19a3>
    1944:	63 72 65             	movslq 0x65(%rdx),%esi
    1947:	61                   	(bad)  
    1948:	74 65                	je     19af <.rodata+0x19af>
    194a:	28 6c 69 6e          	sub    %ch,0x6e(%rcx,%rbp,2)
    194e:	67                   	addr32
    194f:	65                   	gs
    1950:	72 5f                	jb     19b1 <.rodata+0x19b1>
    1952:	63 6c 65 61          	movslq 0x61(%rbp,%riz,2),%ebp
    1956:	72 5f                	jb     19b7 <.rodata+0x19b7>
    1958:	63 6f 6e             	movslq 0x6e(%rdi),%ebp
    195b:	6e                   	outsb  %ds:(%rsi),(%dx)
    195c:	65 63 74 69 6f       	movslq %gs:0x6f(%rcx,%rbp,2),%esi
    1961:	6e                   	outsb  %ds:(%rsi),(%dx)
    1962:	29 20                	sub    %esp,(%rax)
    1964:	66                   	data16
    1965:	61                   	(bad)  
    1966:	69 6c 65 64 00 00 00 	imul   $0x0,0x64(%rbp,%riz,2),%ebp
    196d:	00 
	...
    199e:	00 00                	add    %al,(%rax)
    19a0:	25 2e 38 30 73       	and    $0x7330382e,%eax
    19a5:	20 63 6f             	and    %ah,0x6f(%rbx)
    19a8:	6e                   	outsb  %ds:(%rsi),(%dx)
    19a9:	6e                   	outsb  %ds:(%rsi),(%dx)
    19aa:	65 63 74 69 6f       	movslq %gs:0x6f(%rcx,%rbp,2),%esi
    19af:	6e                   	outsb  %ds:(%rsi),(%dx)
    19b0:	20 74 69 6d          	and    %dh,0x6d(%rcx,%rbp,2)
    19b4:	65 64 20 6f 75       	gs and %ch,%fs:%gs:0x75(%rdi)
    19b9:	74 20                	je     19db <.rodata+0x19db>
    19bb:	72 65                	jb     1a22 <.rodata+0x1a22>
    19bd:	61                   	(bad)  
    19be:	64 69 6e 67 00 00 00 	imul   $0x0,%fs:0x67(%rsi),%ebp
    19c5:	00 
	...
    19fe:	00 00                	add    %al,(%rax)
    1a00:	25 2e 38 30 73       	and    $0x7330382e,%eax
    1a05:	20 63 6f             	and    %ah,0x6f(%rbx)
    1a08:	6e                   	outsb  %ds:(%rsi),(%dx)
    1a09:	6e                   	outsb  %ds:(%rsi),(%dx)
    1a0a:	65 63 74 69 6f       	movslq %gs:0x6f(%rcx,%rbp,2),%esi
    1a0f:	6e                   	outsb  %ds:(%rsi),(%dx)
    1a10:	20 74 69 6d          	and    %dh,0x6d(%rcx,%rbp,2)
    1a14:	65 64 20 6f 75       	gs and %ch,%fs:%gs:0x75(%rdi)
    1a19:	74 20                	je     1a3b <.rodata+0x1a3b>
    1a1b:	73 65                	jae    1a82 <.rodata+0x1a82>
    1a1d:	6e                   	outsb  %ds:(%rsi),(%dx)
    1a1e:	64 69 6e 67 00 00 00 	imul   $0x0,%fs:0x67(%rsi),%ebp
    1a25:	00 
	...
    1a5e:	00 00                	add    %al,(%rax)
    1a60:	72 65                	jb     1ac7 <.rodata+0x1ac7>
    1a62:	70 6c                	jo     1ad0 <.rodata+0x1ad0>
    1a64:	61                   	(bad)  
    1a65:	63 69 6e             	movslq 0x6e(%rcx),%ebp
    1a68:	67 20 6e 6f          	and    %ch,0x6f(%esi)
    1a6c:	6e                   	outsb  %ds:(%rsi),(%dx)
    1a6d:	2d 6e 75 6c 6c       	sub    $0x6c6c756e,%eax
    1a72:	20 77 61             	and    %dh,0x61(%rdi)
    1a75:	6b 65 75 70          	imul   $0x70,0x75(%rbp),%esp
    1a79:	5f                   	pop    %rdi
    1a7a:	74 69                	je     1ae5 <.rodata+0x1ae5>
    1a7c:	6d                   	insl   (%dx),%es:(%rdi)
    1a7d:	65                   	gs
    1a7e:	72 21                	jb     1aa1 <.rodata+0x1aa1>
	...
    1ac0:	74 6d                	je     1b2f <.rodata+0x1b2f>
    1ac2:	72 5f                	jb     1b23 <.rodata+0x1b23>
    1ac4:	63 72 65             	movslq 0x65(%rdx),%esi
    1ac7:	61                   	(bad)  
    1ac8:	74 65                	je     1b2f <.rodata+0x1b2f>
    1aca:	28 77 61             	sub    %dh,0x61(%rdi)
    1acd:	6b 65 75 70          	imul   $0x70,0x75(%rbp),%esp
    1ad1:	5f                   	pop    %rdi
    1ad2:	63 6f 6e             	movslq 0x6e(%rdi),%ebp
    1ad5:	6e                   	outsb  %ds:(%rsi),(%dx)
    1ad6:	65 63 74 69 6f       	movslq %gs:0x6f(%rcx,%rbp,2),%esi
    1adb:	6e                   	outsb  %ds:(%rsi),(%dx)
    1adc:	29 20                	sub    %esp,(%rax)
    1ade:	66                   	data16
    1adf:	61                   	(bad)  
    1ae0:	69 6c 65 64 00 00 00 	imul   $0x0,0x64(%rbp,%riz,2),%ebp
    1ae7:	00 
	...
    1b20:	77 72                	ja     1b94 <.rodata+0x1b94>
    1b22:	69 74 65 20 2d 20 25 	imul   $0x6d25202d,0x20(%rbp,%riz,2),%esi
    1b29:	6d 
    1b2a:	20 73 65             	and    %dh,0x65(%rbx)
    1b2d:	6e                   	outsb  %ds:(%rsi),(%dx)
    1b2e:	64 69 6e 67 20 25 2e 	imul   $0x382e2520,%fs:0x67(%rsi),%ebp
    1b35:	38 
    1b36:	30 73 00             	xor    %dh,0x0(%rbx)
	...
    1b5d:	00 00                	add    %al,(%rax)
    1b5f:	00 25 64 00 00 00    	add    %ah,0x64(%rip)        # 1bc9 <.rodata+0x1bc9>
	...
    1b9d:	00 00                	add    %al,(%rax)
    1b9f:	00 67 65             	add    %ah,0x65(%rdi)
    1ba2:	74 61                	je     1c05 <.rodata+0x1c05>
    1ba4:	64                   	fs
    1ba5:	64                   	fs
    1ba6:	72 69                	jb     1c11 <.rodata+0x1c11>
    1ba8:	6e                   	outsb  %ds:(%rsi),(%dx)
    1ba9:	66 6f                	outsw  %ds:(%rsi),(%dx)
    1bab:	20 25 2e 38 30 73    	and    %ah,0x7330382e(%rip)        # 733053df <lookup_hostname.constprop.1+0x733009cf>
    1bb1:	20 2d 20 25 2e 38    	and    %ch,0x382e2520(%rip)        # 382e40d7 <lookup_hostname.constprop.1+0x382df6c7>
    1bb7:	30 73 00             	xor    %dh,0x0(%rbx)
	...
    1bde:	00 00                	add    %al,(%rax)
    1be0:	25 73 3a 20 67       	and    $0x67203a73,%eax
    1be5:	65                   	gs
    1be6:	74 61                	je     1c49 <.rodata+0x1c49>
    1be8:	64                   	fs
    1be9:	64                   	fs
    1bea:	72 69                	jb     1c55 <.rodata+0x1c55>
    1bec:	6e                   	outsb  %ds:(%rsi),(%dx)
    1bed:	66 6f                	outsw  %ds:(%rsi),(%dx)
    1bef:	20 25 73 20 2d 20    	and    %ah,0x202d2073(%rip)        # 202d3c68 <lookup_hostname.constprop.1+0x202cf258>
    1bf5:	25 73 0a 00 00       	and    $0xa73,%eax
	...
    1c1e:	00 00                	add    %al,(%rax)
    1c20:	25 2e 38 30 73       	and    $0x7330382e,%eax
    1c25:	20 2d 20 73 6f 63    	and    %ch,0x636f7320(%rip)        # 636f8f4b <lookup_hostname.constprop.1+0x636f453b>
    1c2b:	6b 61 64 64          	imul   $0x64,0x64(%rcx),%esp
    1c2f:	72 20                	jb     1c51 <.rodata+0x1c51>
    1c31:	74 6f                	je     1ca2 <.rodata+0x1ca2>
    1c33:	6f                   	outsl  %ds:(%rsi),(%dx)
    1c34:	20 73 6d             	and    %dh,0x6d(%rbx)
    1c37:	61                   	(bad)  
    1c38:	6c                   	insb   (%dx),%es:(%rdi)
    1c39:	6c                   	insb   (%dx),%es:(%rdi)
    1c3a:	20 28                	and    %ch,(%rax)
    1c3c:	25 6c 75 20 3c       	and    $0x3c20756c,%eax
    1c41:	20 25 6c 75 29 00    	and    %ah,0x29756c(%rip)        # 2991b3 <lookup_hostname.constprop.1+0x2947a3>
	...
    1c7f:	00 63 61             	add    %ah,0x61(%rbx)
    1c82:	6e                   	outsb  %ds:(%rsi),(%dx)
    1c83:	27                   	(bad)  
    1c84:	74 20                	je     1ca6 <.rodata+0x1ca6>
    1c86:	66 69 6e 64 20 61    	imul   $0x6120,0x64(%rsi),%bp
    1c8c:	6e                   	outsb  %ds:(%rsi),(%dx)
    1c8d:	79 20                	jns    1caf <.rodata+0x1caf>
    1c8f:	76 61                	jbe    1cf2 <.rodata+0x1cf2>
    1c91:	6c                   	insb   (%dx),%es:(%rdi)
    1c92:	69 64 20 61 64 64 72 	imul   $0x65726464,0x61(%rax,%riz,1),%esp
    1c99:	65 
    1c9a:	73 73                	jae    1d0f <.rodata+0x1d0f>
	...
    1cc0:	25 73 3a 20 63       	and    $0x63203a73,%eax
    1cc5:	61                   	(bad)  
    1cc6:	6e                   	outsb  %ds:(%rsi),(%dx)
    1cc7:	27                   	(bad)  
    1cc8:	74 20                	je     1cea <.rodata+0x1cea>
    1cca:	66 69 6e 64 20 61    	imul   $0x6120,0x64(%rsi),%bp
    1cd0:	6e                   	outsb  %ds:(%rsi),(%dx)
    1cd1:	79 20                	jns    1cf3 <.rodata+0x1cf3>
    1cd3:	76 61                	jbe    1d36 <.rodata+0x1d36>
    1cd5:	6c                   	insb   (%dx),%es:(%rdi)
    1cd6:	69 64 20 61 64 64 72 	imul   $0x65726464,0x61(%rax,%riz,1),%esp
    1cdd:	65 
    1cde:	73 73                	jae    1d53 <.rodata+0x1d53>
    1ce0:	0a 00                	or     (%rax),%al
	...
    1d1e:	00 00                	add    %al,(%rax)
    1d20:	75 6e                	jne    1d90 <.rodata+0x1d90>
    1d22:	6b 6e 6f 77          	imul   $0x77,0x6f(%rsi),%ebp
    1d26:	6e                   	outsb  %ds:(%rsi),(%dx)
    1d27:	20 75 73             	and    %dh,0x73(%rbp)
    1d2a:	65                   	gs
    1d2b:	72 20                	jb     1d4d <.rodata+0x1d4d>
    1d2d:	2d 20 27 25 2e       	sub    $0x2e252720,%eax
    1d32:	38 30                	cmp    %dh,(%rax)
    1d34:	73 27                	jae    1d5d <.rodata+0x1d5d>
	...
    1d5e:	00 00                	add    %al,(%rax)
    1d60:	25 73 3a 20 75       	and    $0x75203a73,%eax
    1d65:	6e                   	outsb  %ds:(%rsi),(%dx)
    1d66:	6b 6e 6f 77          	imul   $0x77,0x6f(%rsi),%ebp
    1d6a:	6e                   	outsb  %ds:(%rsi),(%dx)
    1d6b:	20 75 73             	and    %dh,0x73(%rbp)
    1d6e:	65                   	gs
    1d6f:	72 20                	jb     1d91 <.rodata+0x1d91>
    1d71:	2d 20 27 25 73       	sub    $0x73252720,%eax
    1d76:	27                   	(bad)  
    1d77:	0a 00                	or     (%rax),%al
	...
    1d9d:	00 00                	add    %al,(%rax)
    1d9f:	00 2f                	add    %ch,(%rdi)
    1da1:	64                   	fs
    1da2:	65                   	gs
    1da3:	76 2f                	jbe    1dd4 <.rodata+0x1dd4>
    1da5:	6e                   	outsb  %ds:(%rsi),(%dx)
    1da6:	75 6c                	jne    1e14 <.rodata+0x1e14>
    1da8:	6c                   	insb   (%dx),%es:(%rdi)
	...
    1ddd:	00 00                	add    %al,(%rax)
    1ddf:	00 6c 6f 67          	add    %ch,0x67(%rdi,%rbp,2)
    1de3:	66 69 6c 65 20 69 73 	imul   $0x7369,0x20(%rbp,%riz,2),%bp
    1dea:	20 6e 6f             	and    %ch,0x6f(%rsi)
    1ded:	74 20                	je     1e0f <.rodata+0x1e0f>
    1def:	61                   	(bad)  
    1df0:	6e                   	outsb  %ds:(%rsi),(%dx)
    1df1:	20 61 62             	and    %ah,0x62(%rcx)
    1df4:	73 6f                	jae    1e65 <.rodata+0x1e65>
    1df6:	6c                   	insb   (%dx),%es:(%rdi)
    1df7:	75 74                	jne    1e6d <.rodata+0x1e6d>
    1df9:	65 20 70 61          	and    %dh,%gs:0x61(%rax)
    1dfd:	74 68                	je     1e67 <.rodata+0x1e67>
    1dff:	2c 20                	sub    $0x20,%al
    1e01:	79 6f                	jns    1e72 <.rodata+0x1e72>
    1e03:	75 20                	jne    1e25 <.rodata+0x1e25>
    1e05:	6d                   	insl   (%dx),%es:(%rdi)
    1e06:	61                   	(bad)  
    1e07:	79 20                	jns    1e29 <.rodata+0x1e29>
    1e09:	6e                   	outsb  %ds:(%rsi),(%dx)
    1e0a:	6f                   	outsl  %ds:(%rsi),(%dx)
    1e0b:	74 20                	je     1e2d <.rodata+0x1e2d>
    1e0d:	62                   	(bad)  
    1e0e:	65 20 61 62          	and    %ah,%gs:0x62(%rcx)
    1e12:	6c                   	insb   (%dx),%es:(%rdi)
    1e13:	65 20 74 6f 20       	and    %dh,%gs:0x20(%rdi,%rbp,2)
    1e18:	72 65                	jb     1e7f <.rodata+0x1e7f>
    1e1a:	2d 6f 70 65 6e       	sub    $0x6e65706f,%eax
    1e1f:	20 69 74             	and    %ch,0x74(%rcx)
	...
    1e5e:	00 00                	add    %al,(%rax)
    1e60:	25 73 3a 20 6c       	and    $0x6c203a73,%eax
    1e65:	6f                   	outsl  %ds:(%rsi),(%dx)
    1e66:	67 66 69 6c 65 20 69 	imul   $0x7369,0x20(%ebp,%eiz,2),%bp
    1e6d:	73 
    1e6e:	20 6e 6f             	and    %ch,0x6f(%rsi)
    1e71:	74 20                	je     1e93 <.rodata+0x1e93>
    1e73:	61                   	(bad)  
    1e74:	6e                   	outsb  %ds:(%rsi),(%dx)
    1e75:	20 61 62             	and    %ah,0x62(%rcx)
    1e78:	73 6f                	jae    1ee9 <.rodata+0x1ee9>
    1e7a:	6c                   	insb   (%dx),%es:(%rdi)
    1e7b:	75 74                	jne    1ef1 <.rodata+0x1ef1>
    1e7d:	65 20 70 61          	and    %dh,%gs:0x61(%rax)
    1e81:	74 68                	je     1eeb <.rodata+0x1eeb>
    1e83:	2c 20                	sub    $0x20,%al
    1e85:	79 6f                	jns    1ef6 <.rodata+0x1ef6>
    1e87:	75 20                	jne    1ea9 <.rodata+0x1ea9>
    1e89:	6d                   	insl   (%dx),%es:(%rdi)
    1e8a:	61                   	(bad)  
    1e8b:	79 20                	jns    1ead <.rodata+0x1ead>
    1e8d:	6e                   	outsb  %ds:(%rsi),(%dx)
    1e8e:	6f                   	outsl  %ds:(%rsi),(%dx)
    1e8f:	74 20                	je     1eb1 <.rodata+0x1eb1>
    1e91:	62                   	(bad)  
    1e92:	65 20 61 62          	and    %ah,%gs:0x62(%rcx)
    1e96:	6c                   	insb   (%dx),%es:(%rdi)
    1e97:	65 20 74 6f 20       	and    %dh,%gs:0x20(%rdi,%rbp,2)
    1e9c:	72 65                	jb     1f03 <.rodata+0x1f03>
    1e9e:	2d 6f 70 65 6e       	sub    $0x6e65706f,%eax
    1ea3:	20 69 74             	and    %ch,0x74(%rcx)
    1ea6:	0a 00                	or     (%rax),%al
	...
    1ee0:	66 63 68 6f          	movslq 0x6f(%rax),%bp
    1ee4:	77 6e                	ja     1f54 <.rodata+0x1f54>
    1ee6:	20 6c 6f 67          	and    %ch,0x67(%rdi,%rbp,2)
    1eea:	66 69 6c 65 20 2d 20 	imul   $0x202d,0x20(%rbp,%riz,2),%bp
    1ef1:	25 6d 00 00 00       	and    $0x6d,%eax
	...
    1f1e:	00 00                	add    %al,(%rax)
    1f20:	66 63 68 6f          	movslq 0x6f(%rax),%bp
    1f24:	77 6e                	ja     1f94 <.rodata+0x1f94>
    1f26:	20 6c 6f 67          	and    %ch,0x67(%rdi,%rbp,2)
    1f2a:	66 69 6c 65 00 00 00 	imul   $0x0,0x0(%rbp,%riz,2),%bp
	...
    1f5d:	00 00                	add    %al,(%rax)
    1f5f:	00 63 68             	add    %ah,0x68(%rbx)
    1f62:	64 69 72 20 2d 20 25 	imul   $0x6d25202d,%fs:0x20(%rdx),%esi
    1f69:	6d 
	...
    1f9e:	00 00                	add    %al,(%rax)
    1fa0:	63 68 64             	movslq 0x64(%rax),%ebp
    1fa3:	69 72 00 00 00 00 00 	imul   $0x0,0x0(%rdx),%esi
	...
    1fde:	00 00                	add    %al,(%rax)
    1fe0:	2f                   	(bad)  
	...
    201d:	00 00                	add    %al,(%rax)
    201f:	00 64 61 65          	add    %ah,0x65(%rcx,%riz,2)
    2023:	6d                   	insl   (%dx),%es:(%rdi)
    2024:	6f                   	outsl  %ds:(%rsi),(%dx)
    2025:	6e                   	outsb  %ds:(%rsi),(%dx)
    2026:	20 2d 20 25 6d 00    	and    %ch,0x6d2520(%rip)        # 6d454c <lookup_hostname.constprop.1+0x6cfb3c>
	...
    2060:	77 00                	ja     2062 <.rodata+0x2062>
	...
    209e:	00 00                	add    %al,(%rax)
    20a0:	25 64 0a 00 00       	and    $0xa64,%eax
	...
    20dd:	00 00                	add    %al,(%rax)
    20df:	00 66 64             	add    %ah,0x64(%rsi)
    20e2:	77 61                	ja     2145 <.rodata+0x2145>
    20e4:	74 63                	je     2149 <.rodata+0x2149>
    20e6:	68 20 69 6e 69       	pushq  $0x696e6920
    20eb:	74 69                	je     2156 <.rodata+0x2156>
    20ed:	61                   	(bad)  
    20ee:	6c                   	insb   (%dx),%es:(%rdi)
    20ef:	69 7a 61 74 69 6f 6e 	imul   $0x6e6f6974,0x61(%rdx),%edi
    20f6:	20 66 61             	and    %ah,0x61(%rsi)
    20f9:	69 6c 75 72 65 00 00 	imul   $0x65,0x72(%rbp,%rsi,2),%ebp
    2100:	00 
	...
    211d:	00 00                	add    %al,(%rax)
    211f:	00 63 68             	add    %ah,0x68(%rbx)
    2122:	72 6f                	jb     2193 <.rodata+0x2193>
    2124:	6f                   	outsl  %ds:(%rsi),(%dx)
    2125:	74 20                	je     2147 <.rodata+0x2147>
    2127:	2d 20 25 6d 00       	sub    $0x6d2520,%eax
	...
    2160:	6c                   	insb   (%dx),%es:(%rdi)
    2161:	6f                   	outsl  %ds:(%rsi),(%dx)
    2162:	67 66 69 6c 65 20 69 	imul   $0x7369,0x20(%ebp,%eiz,2),%bp
    2169:	73 
    216a:	20 6e 6f             	and    %ch,0x6f(%rsi)
    216d:	74 20                	je     218f <.rodata+0x218f>
    216f:	77 69                	ja     21da <.rodata+0x21da>
    2171:	74 68                	je     21db <.rodata+0x21db>
    2173:	69 6e 20 74 68 65 20 	imul   $0x20656874,0x20(%rsi),%ebp
    217a:	63 68 72             	movslq 0x72(%rax),%ebp
    217d:	6f                   	outsl  %ds:(%rsi),(%dx)
    217e:	6f                   	outsl  %ds:(%rsi),(%dx)
    217f:	74 20                	je     21a1 <.rodata+0x21a1>
    2181:	74 72                	je     21f5 <.rodata+0x21f5>
    2183:	65                   	gs
    2184:	65                   	gs
    2185:	2c 20                	sub    $0x20,%al
    2187:	79 6f                	jns    21f8 <.rodata+0x21f8>
    2189:	75 20                	jne    21ab <.rodata+0x21ab>
    218b:	77 69                	ja     21f6 <.rodata+0x21f6>
    218d:	6c                   	insb   (%dx),%es:(%rdi)
    218e:	6c                   	insb   (%dx),%es:(%rdi)
    218f:	20 6e 6f             	and    %ch,0x6f(%rsi)
    2192:	74 20                	je     21b4 <.rodata+0x21b4>
    2194:	62                   	(bad)  
    2195:	65 20 61 62          	and    %ah,%gs:0x62(%rcx)
    2199:	6c                   	insb   (%dx),%es:(%rdi)
    219a:	65 20 74 6f 20       	and    %dh,%gs:0x20(%rdi,%rbp,2)
    219f:	72 65                	jb     2206 <.rodata+0x2206>
    21a1:	2d 6f 70 65 6e       	sub    $0x6e65706f,%eax
    21a6:	20 69 74             	and    %ch,0x74(%rcx)
	...
    21dd:	00 00                	add    %al,(%rax)
    21df:	00 25 73 3a 20 6c    	add    %ah,0x6c203a73(%rip)        # 6c205c58 <lookup_hostname.constprop.1+0x6c201248>
    21e5:	6f                   	outsl  %ds:(%rsi),(%dx)
    21e6:	67 66 69 6c 65 20 69 	imul   $0x7369,0x20(%ebp,%eiz,2),%bp
    21ed:	73 
    21ee:	20 6e 6f             	and    %ch,0x6f(%rsi)
    21f1:	74 20                	je     2213 <.rodata+0x2213>
    21f3:	77 69                	ja     225e <.rodata+0x225e>
    21f5:	74 68                	je     225f <.rodata+0x225f>
    21f7:	69 6e 20 74 68 65 20 	imul   $0x20656874,0x20(%rsi),%ebp
    21fe:	63 68 72             	movslq 0x72(%rax),%ebp
    2201:	6f                   	outsl  %ds:(%rsi),(%dx)
    2202:	6f                   	outsl  %ds:(%rsi),(%dx)
    2203:	74 20                	je     2225 <.rodata+0x2225>
    2205:	74 72                	je     2279 <.rodata+0x2279>
    2207:	65                   	gs
    2208:	65                   	gs
    2209:	2c 20                	sub    $0x20,%al
    220b:	79 6f                	jns    227c <.rodata+0x227c>
    220d:	75 20                	jne    222f <.rodata+0x222f>
    220f:	77 69                	ja     227a <.rodata+0x227a>
    2211:	6c                   	insb   (%dx),%es:(%rdi)
    2212:	6c                   	insb   (%dx),%es:(%rdi)
    2213:	20 6e 6f             	and    %ch,0x6f(%rsi)
    2216:	74 20                	je     2238 <.rodata+0x2238>
    2218:	62                   	(bad)  
    2219:	65 20 61 62          	and    %ah,%gs:0x62(%rcx)
    221d:	6c                   	insb   (%dx),%es:(%rdi)
    221e:	65 20 74 6f 20       	and    %dh,%gs:0x20(%rdi,%rbp,2)
    2223:	72 65                	jb     228a <.rodata+0x228a>
    2225:	2d 6f 70 65 6e       	sub    $0x6e65706f,%eax
    222a:	20 69 74             	and    %ch,0x74(%rcx)
    222d:	0a 00                	or     (%rax),%al
	...
    225f:	00 63 68             	add    %ah,0x68(%rbx)
    2262:	72 6f                	jb     22d3 <.rodata+0x22d3>
    2264:	6f                   	outsl  %ds:(%rsi),(%dx)
    2265:	74 20                	je     2287 <.rodata+0x2287>
    2267:	63 68 64             	movslq 0x64(%rax),%ebp
    226a:	69 72 20 2d 20 25 6d 	imul   $0x6d25202d,0x20(%rdx),%esi
	...
    229d:	00 00                	add    %al,(%rax)
    229f:	00 63 68             	add    %ah,0x68(%rbx)
    22a2:	72 6f                	jb     2313 <.rodata+0x2313>
    22a4:	6f                   	outsl  %ds:(%rsi),(%dx)
    22a5:	74 20                	je     22c7 <.rodata+0x22c7>
    22a7:	63 68 64             	movslq 0x64(%rax),%ebp
    22aa:	69 72 00 00 00 00 00 	imul   $0x0,0x0(%rdx),%esi
	...
    22dd:	00 00                	add    %al,(%rax)
    22df:	00 64 61 74          	add    %ah,0x74(%rcx,%riz,2)
    22e3:	61                   	(bad)  
    22e4:	5f                   	pop    %rdi
    22e5:	64 69 72 20 63 68 64 	imul   $0x69646863,%fs:0x20(%rdx),%esi
    22ec:	69 
    22ed:	72 20                	jb     230f <.rodata+0x230f>
    22ef:	2d 20 25 6d 00       	sub    $0x6d2520,%eax
	...
    2320:	64                   	fs
    2321:	61                   	(bad)  
    2322:	74 61                	je     2385 <.rodata+0x2385>
    2324:	5f                   	pop    %rdi
    2325:	64 69 72 20 63 68 64 	imul   $0x69646863,%fs:0x20(%rdx),%esi
    232c:	69 
    232d:	72 00                	jb     232f <.rodata+0x232f>
	...
    235f:	00 74 6d 72          	add    %dh,0x72(%rbp,%rbp,2)
    2363:	5f                   	pop    %rdi
    2364:	63 72 65             	movslq 0x65(%rdx),%esi
    2367:	61                   	(bad)  
    2368:	74 65                	je     23cf <.rodata+0x23cf>
    236a:	28 6f 63             	sub    %ch,0x63(%rdi)
    236d:	63 61 73             	movslq 0x73(%rcx),%esp
    2370:	69 6f 6e 61 6c 29 20 	imul   $0x20296c61,0x6e(%rdi),%ebp
    2377:	66                   	data16
    2378:	61                   	(bad)  
    2379:	69 6c 65 64 00 00 00 	imul   $0x0,0x64(%rbp,%riz,2),%ebp
    2380:	00 
	...
    239d:	00 00                	add    %al,(%rax)
    239f:	00 74 6d 72          	add    %dh,0x72(%rbp,%rbp,2)
    23a3:	5f                   	pop    %rdi
    23a4:	63 72 65             	movslq 0x65(%rdx),%esi
    23a7:	61                   	(bad)  
    23a8:	74 65                	je     240f <.rodata+0x240f>
    23aa:	28 69 64             	sub    %ch,0x64(%rcx)
    23ad:	6c                   	insb   (%dx),%es:(%rdi)
    23ae:	65 29 20             	sub    %esp,%gs:(%rax)
    23b1:	66                   	data16
    23b2:	61                   	(bad)  
    23b3:	69 6c 65 64 00 00 00 	imul   $0x0,0x64(%rbp,%riz,2),%ebp
    23ba:	00 
	...
    23df:	00 74 6d 72          	add    %dh,0x72(%rbp,%rbp,2)
    23e3:	5f                   	pop    %rdi
    23e4:	63 72 65             	movslq 0x65(%rdx),%esi
    23e7:	61                   	(bad)  
    23e8:	74 65                	je     244f <.rodata+0x244f>
    23ea:	28 75 70             	sub    %dh,0x70(%rbp)
    23ed:	64                   	fs
    23ee:	61                   	(bad)  
    23ef:	74 65                	je     2456 <.rodata+0x2456>
    23f1:	5f                   	pop    %rdi
    23f2:	74 68                	je     245c <.rodata+0x245c>
    23f4:	72 6f                	jb     2465 <.rodata+0x2465>
    23f6:	74 74                	je     246c <.rodata+0x246c>
    23f8:	6c                   	insb   (%dx),%es:(%rdi)
    23f9:	65                   	gs
    23fa:	73 29                	jae    2425 <.rodata+0x2425>
    23fc:	20 66 61             	and    %ah,0x61(%rsi)
    23ff:	69 6c 65 64 00 00 00 	imul   $0x0,0x64(%rbp,%riz,2),%ebp
    2406:	00 
	...
    243f:	00 74 6d 72          	add    %dh,0x72(%rbp,%rbp,2)
    2443:	5f                   	pop    %rdi
    2444:	63 72 65             	movslq 0x65(%rdx),%esi
    2447:	61                   	(bad)  
    2448:	74 65                	je     24af <.rodata+0x24af>
    244a:	28 73 68             	sub    %dh,0x68(%rbx)
    244d:	6f                   	outsl  %ds:(%rsi),(%dx)
    244e:	77 5f                	ja     24af <.rodata+0x24af>
    2450:	73 74                	jae    24c6 <.rodata+0x24c6>
    2452:	61                   	(bad)  
    2453:	74 73                	je     24c8 <.rodata+0x24c8>
    2455:	29 20                	sub    %esp,(%rax)
    2457:	66                   	data16
    2458:	61                   	(bad)  
    2459:	69 6c 65 64 00 00 00 	imul   $0x0,0x64(%rbp,%riz,2),%ebp
    2460:	00 
	...
    247d:	00 00                	add    %al,(%rax)
    247f:	00 73 65             	add    %dh,0x65(%rbx)
    2482:	74 67                	je     24eb <.rodata+0x24eb>
    2484:	72 6f                	jb     24f5 <.rodata+0x24f5>
    2486:	75 70                	jne    24f8 <.rodata+0x24f8>
    2488:	73 20                	jae    24aa <.rodata+0x24aa>
    248a:	2d 20 25 6d 00       	sub    $0x6d2520,%eax
	...
    24bf:	00 73 65             	add    %dh,0x65(%rbx)
    24c2:	74 67                	je     252b <.rodata+0x252b>
    24c4:	69 64 20 2d 20 25 6d 	imul   $0x6d2520,0x2d(%rax,%riz,1),%esp
    24cb:	00 
	...
    2500:	69 6e 69 74 67 72 6f 	imul   $0x6f726774,0x69(%rsi),%ebp
    2507:	75 70                	jne    2579 <.rodata+0x2579>
    2509:	73 20                	jae    252b <.rodata+0x252b>
    250b:	2d 20 25 6d 00       	sub    $0x6d2520,%eax
	...
    2540:	73 65                	jae    25a7 <.rodata+0x25a7>
    2542:	74 75                	je     25b9 <.rodata+0x25b9>
    2544:	69 64 20 2d 20 25 6d 	imul   $0x6d2520,0x2d(%rax,%riz,1),%esp
    254b:	00 
	...
    2580:	73 74                	jae    25f6 <.rodata+0x25f6>
    2582:	61                   	(bad)  
    2583:	72 74                	jb     25f9 <.rodata+0x25f9>
    2585:	65 64 20 61 73       	gs and %ah,%fs:%gs:0x73(%rcx)
    258a:	20 72 6f             	and    %dh,0x6f(%rdx)
    258d:	6f                   	outsl  %ds:(%rsi),(%dx)
    258e:	74 20                	je     25b0 <.rodata+0x25b0>
    2590:	77 69                	ja     25fb <.rodata+0x25fb>
    2592:	74 68                	je     25fc <.rodata+0x25fc>
    2594:	6f                   	outsl  %ds:(%rsi),(%dx)
    2595:	75 74                	jne    260b <.rodata+0x260b>
    2597:	20 72 65             	and    %dh,0x65(%rdx)
    259a:	71 75                	jno    2611 <.rodata+0x2611>
    259c:	65                   	gs
    259d:	73 74                	jae    2613 <.rodata+0x2613>
    259f:	69 6e 67 20 63 68 72 	imul   $0x72686320,0x67(%rsi),%ebp
    25a6:	6f                   	outsl  %ds:(%rsi),(%dx)
    25a7:	6f                   	outsl  %ds:(%rsi),(%dx)
    25a8:	74 28                	je     25d2 <.rodata+0x25d2>
    25aa:	29 2c 20             	sub    %ebp,(%rax,%riz,1)
    25ad:	77 61                	ja     2610 <.rodata+0x2610>
    25af:	72 6e                	jb     261f <.rodata+0x261f>
    25b1:	69 6e 67 20 6f 6e 6c 	imul   $0x6c6e6f20,0x67(%rsi),%ebp
    25b8:	79 00                	jns    25ba <.rodata+0x25ba>
	...
    25de:	00 00                	add    %al,(%rax)
    25e0:	6f                   	outsl  %ds:(%rsi),(%dx)
    25e1:	75 74                	jne    2657 <.rodata+0x2657>
    25e3:	20 6f 66             	and    %ch,0x66(%rdi)
    25e6:	20 6d 65             	and    %ch,0x65(%rbp)
    25e9:	6d                   	insl   (%dx),%es:(%rdi)
    25ea:	6f                   	outsl  %ds:(%rsi),(%dx)
    25eb:	72 79                	jb     2666 <.rodata+0x2666>
    25ed:	20 61 6c             	and    %ah,0x6c(%rcx)
    25f0:	6c                   	insb   (%dx),%es:(%rdi)
    25f1:	6f                   	outsl  %ds:(%rsi),(%dx)
    25f2:	63 61 74             	movslq 0x74(%rcx),%esp
    25f5:	69 6e 67 20 61 20 63 	imul   $0x63206120,0x67(%rsi),%ebp
    25fc:	6f                   	outsl  %ds:(%rsi),(%dx)
    25fd:	6e                   	outsb  %ds:(%rsi),(%dx)
    25fe:	6e                   	outsb  %ds:(%rsi),(%dx)
    25ff:	65 63 74 74 61       	movslq %gs:0x61(%rsp,%rsi,2),%esi
    2604:	62                   	(bad)  
	...
    263d:	00 00                	add    %al,(%rax)
    263f:	00 66 64             	add    %ah,0x64(%rsi)
    2642:	77 61                	ja     26a5 <check_throttles+0x15>
    2644:	74 63                	je     26a9 <check_throttles+0x19>
    2646:	68 20 2d 20 25       	pushq  $0x25202d20
    264b:	6d                   	insl   (%dx),%es:(%rdi)
	...

Disassembly of section .rodata.str1.1:

0000000000000000 <.rodata.str1.1>:
   0:	31 20                	xor    %esp,(%rax)
   2:	33 32                	xor    (%rdx),%esi
   4:	20 31                	and    %dh,(%rcx)
   6:	36 20 32             	and    %dh,%ss:(%rdx)
   9:	20 74 76 20          	and    %dh,0x20(%rsi,%rsi,2)
   d:	00 31                	add    %dh,(%rcx)
   f:	20 33                	and    %dh,(%rbx)
  11:	32 20                	xor    (%rax),%ah
  13:	34 20                	xor    $0x20,%al
  15:	36 20 73 74          	and    %dh,%ss:0x74(%rbx)
  19:	61                   	(bad)  
  1a:	74 75                	je     91 <.rodata.str1.1+0x91>
  1c:	73 20                	jae    3e <.rodata.str1.1+0x3e>
  1e:	00 31                	add    %dh,(%rcx)
  20:	20 33                	and    %dh,(%rbx)
  22:	32 20                	xor    (%rax),%ah
  24:	31 30                	xor    %esi,(%rax)
  26:	30 20                	xor    %ah,(%rax)
  28:	34 20                	xor    $0x20,%al
  2a:	6c                   	insb   (%dx),%es:(%rdi)
  2b:	69 6e 65 20 00 31 20 	imul   $0x20310020,0x65(%rsi),%ebp
  32:	33 32                	xor    (%rdx),%esi
  34:	20 33                	and    %dh,(%rbx)
  36:	32 20                	xor    (%rax),%ah
  38:	32 20                	xor    (%rax),%ah
  3a:	69 76 20 00 31 20 33 	imul   $0x33203100,0x20(%rsi),%esi
  41:	32 20                	xor    (%rax),%ah
  43:	34 30                	xor    $0x30,%al
  45:	39 36                	cmp    %esi,(%rsi)
  47:	20 33                	and    %dh,(%rbx)
  49:	20 62 75             	and    %ah,0x75(%rdx)
  4c:	66                   	data16
  4d:	20 00                	and    %al,(%rax)
  4f:	74 68                	je     b9 <.rodata.str1.1+0xb9>
  51:	74 74                	je     c7 <.rodata.str1.1+0xc7>
  53:	70 64                	jo     b9 <.rodata.str1.1+0xb9>
  55:	2e 63 00             	movslq %cs:(%rax),%eax
  58:	77 61                	ja     bb <.rodata.str1.1+0xbb>
  5a:	74 63                	je     bf <.rodata.str1.1+0xbf>
  5c:	68 64 6f 67 5f       	pushq  $0x5f676f64
  61:	66                   	data16
  62:	6c                   	insb   (%dx),%es:(%rdi)
  63:	61                   	(bad)  
  64:	67 00 67 6f          	add    %ah,0x6f(%edi)
  68:	74 5f                	je     c9 <.rodata.str1.1+0xc9>
  6a:	75 73                	jne    df <.rodata.str1.1+0xdf>
  6c:	72 31                	jb     9f <.rodata.str1.1+0x9f>
  6e:	00 67 6f             	add    %ah,0x6f(%rdi)
  71:	74 5f                	je     d2 <.rodata.str1.1+0xd2>
  73:	68 75 70 00 74       	pushq  $0x74007075
  78:	65                   	gs
  79:	72 6d                	jb     e8 <.rodata.str1.1+0xe8>
  7b:	69 6e 61 74 65 00 68 	imul   $0x68006574,0x61(%rsi),%ebp
  82:	73 00                	jae    84 <.rodata.str1.1+0x84>
  84:	68 74 74 70 64       	pushq  $0x64707474
  89:	5f                   	pop    %rdi
  8a:	63 6f 6e             	movslq 0x6e(%rdi),%ebp
  8d:	6e                   	outsb  %ds:(%rsi),(%dx)
  8e:	5f                   	pop    %rdi
  8f:	63 6f 75             	movslq 0x75(%rdi),%ebp
  92:	6e                   	outsb  %ds:(%rsi),(%dx)
  93:	74 00                	je     95 <.rodata.str1.1+0x95>
  95:	66 69 72 73 74 5f    	imul   $0x5f74,0x73(%rdx),%si
  9b:	66                   	data16
  9c:	72 65                	jb     103 <.rodata.str1.1+0x103>
  9e:	65                   	gs
  9f:	5f                   	pop    %rdi
  a0:	63 6f 6e             	movslq 0x6e(%rdi),%ebp
  a3:	6e                   	outsb  %ds:(%rsi),(%dx)
  a4:	65 63 74 00 6d       	movslq %gs:0x6d(%rax,%rax,1),%esi
  a9:	61                   	(bad)  
  aa:	78 5f                	js     10b <.rodata.str1.1+0x10b>
  ac:	63 6f 6e             	movslq 0x6e(%rdi),%ebp
  af:	6e                   	outsb  %ds:(%rsi),(%dx)
  b0:	65 63 74 73 00       	movslq %gs:0x0(%rbx,%rsi,2),%esi
  b5:	6e                   	outsb  %ds:(%rsi),(%dx)
  b6:	75 6d                	jne    125 <.rodata.str1.1+0x125>
  b8:	5f                   	pop    %rdi
  b9:	63 6f 6e             	movslq 0x6e(%rdi),%ebp
  bc:	6e                   	outsb  %ds:(%rsi),(%dx)
  bd:	65 63 74 73 00       	movslq %gs:0x0(%rbx,%rsi,2),%esi
  c2:	63 6f 6e             	movslq 0x6e(%rdi),%ebp
  c5:	6e                   	outsb  %ds:(%rsi),(%dx)
  c6:	65 63 74 73 00       	movslq %gs:0x0(%rbx,%rsi,2),%esi
  cb:	6d                   	insl   (%dx),%es:(%rdi)
  cc:	61                   	(bad)  
  cd:	78 74                	js     143 <.rodata.str1.1+0x143>
  cf:	68 72 6f 74 74       	pushq  $0x74746f72
  d4:	6c                   	insb   (%dx),%es:(%rdi)
  d5:	65                   	gs
  d6:	73 00                	jae    d8 <.rodata.str1.1+0xd8>
  d8:	6e                   	outsb  %ds:(%rsi),(%dx)
  d9:	75 6d                	jne    148 <.rodata.str1.1+0x148>
  db:	74 68                	je     145 <.rodata.str1.1+0x145>
  dd:	72 6f                	jb     14e <.rodata.str1.1+0x14e>
  df:	74 74                	je     155 <.rodata.str1.1+0x155>
  e1:	6c                   	insb   (%dx),%es:(%rdi)
  e2:	65                   	gs
  e3:	73 00                	jae    e5 <.rodata.str1.1+0xe5>
  e5:	68 6f 73 74 6e       	pushq  $0x6e74736f
  ea:	61                   	(bad)  
  eb:	6d                   	insl   (%dx),%es:(%rdi)
  ec:	65 00 74 68 72       	add    %dh,%gs:0x72(%rax,%rbp,2)
  f1:	6f                   	outsl  %ds:(%rsi),(%dx)
  f2:	74 74                	je     168 <.rodata.str1.1+0x168>
  f4:	6c                   	insb   (%dx),%es:(%rdi)
  f5:	65 66 69 6c 65 00 6c 	imul   $0x6f6c,%gs:0x0(%rbp,%riz,2),%bp
  fc:	6f 
  fd:	63 61 6c             	movslq 0x6c(%rcx),%esp
 100:	5f                   	pop    %rdi
 101:	70 61                	jo     164 <.rodata.str1.1+0x164>
 103:	74 74                	je     179 <.rodata.str1.1+0x179>
 105:	65                   	gs
 106:	72 6e                	jb     176 <.rodata.str1.1+0x176>
 108:	00 6e 6f             	add    %ch,0x6f(%rsi)
 10b:	5f                   	pop    %rdi
 10c:	65                   	gs
 10d:	6d                   	insl   (%dx),%es:(%rdi)
 10e:	70 74                	jo     184 <.rodata.str1.1+0x184>
 110:	79 5f                	jns    171 <.rodata.str1.1+0x171>
 112:	72 65                	jb     179 <.rodata.str1.1+0x179>
 114:	66                   	data16
 115:	65                   	gs
 116:	72 65                	jb     17d <.rodata.str1.1+0x17d>
 118:	72 73                	jb     18d <.rodata.str1.1+0x18d>
 11a:	00 75 72             	add    %dh,0x72(%rbp)
 11d:	6c                   	insb   (%dx),%es:(%rdi)
 11e:	5f                   	pop    %rdi
 11f:	70 61                	jo     182 <.rodata.str1.1+0x182>
 121:	74 74                	je     197 <.rodata.str1.1+0x197>
 123:	65                   	gs
 124:	72 6e                	jb     194 <.rodata.str1.1+0x194>
 126:	00 63 67             	add    %ah,0x67(%rbx)
 129:	69 5f 6c 69 6d 69 74 	imul   $0x74696d69,0x6c(%rdi),%ebx
 130:	00 63 67             	add    %ah,0x67(%rbx)
 133:	69 5f 70 61 74 74 65 	imul   $0x65747461,0x70(%rdi),%ebx
 13a:	72 6e                	jb     1aa <.rodata.str1.1+0x1aa>
 13c:	00 64 6f 5f          	add    %ah,0x5f(%rdi,%rbp,2)
 140:	67 6c                	insb   (%dx),%es:(%edi)
 142:	6f                   	outsl  %ds:(%rsi),(%dx)
 143:	62 61 6c 5f 70       	(bad)  {%k7}
 148:	61                   	(bad)  
 149:	73 73                	jae    1be <.rodata.str1.1+0x1be>
 14b:	77 64                	ja     1b1 <.rodata.str1.1+0x1b1>
 14d:	00 64 6f 5f          	add    %ah,0x5f(%rdi,%rbp,2)
 151:	76 68                	jbe    1bb <.rodata.str1.1+0x1bb>
 153:	6f                   	outsl  %ds:(%rsi),(%dx)
 154:	73 74                	jae    1ca <.rodata.str1.1+0x1ca>
 156:	00 6e 6f             	add    %ch,0x6f(%rsi)
 159:	5f                   	pop    %rdi
 15a:	73 79                	jae    1d5 <.rodata.str1.1+0x1d5>
 15c:	6d                   	insl   (%dx),%es:(%rdi)
 15d:	6c                   	insb   (%dx),%es:(%rdi)
 15e:	69 6e 6b 5f 63 68 65 	imul   $0x6568635f,0x6b(%rsi),%ebp
 165:	63 6b 00             	movslq 0x0(%rbx),%ebp
 168:	6e                   	outsb  %ds:(%rsi),(%dx)
 169:	6f                   	outsl  %ds:(%rsi),(%dx)
 16a:	5f                   	pop    %rdi
 16b:	6c                   	insb   (%dx),%es:(%rdi)
 16c:	6f                   	outsl  %ds:(%rsi),(%dx)
 16d:	67 00 64 6f 5f       	add    %ah,0x5f(%edi,%ebp,2)
 172:	63 68 72             	movslq 0x72(%rax),%ebp
 175:	6f                   	outsl  %ds:(%rsi),(%dx)
 176:	6f                   	outsl  %ds:(%rsi),(%dx)
 177:	74 00                	je     179 <.rodata.str1.1+0x179>
 179:	61                   	(bad)  
 17a:	72 67                	jb     1e3 <.rodata.str1.1+0x1e3>
 17c:	76 30                	jbe    1ae <.rodata.str1.1+0x1ae>
 17e:	00 2a                	add    %ch,(%rdx)
 180:	2e 4c                	cs rex.WR
 182:	43 31 32             	rex.XB xor %esi,(%r10)
 185:	32 00                	xor    (%rax),%al
 187:	2a 2e                	sub    (%rsi),%ch
 189:	4c                   	rex.WR
 18a:	43 31 34 38          	xor    %esi,(%r8,%r15,1)
 18e:	00 2a                	add    %ch,(%rdx)
 190:	2e 4c                	cs rex.WR
 192:	43 35 32 00 2a 2e    	rex.XB xor $0x2e2a0032,%eax
 198:	4c                   	rex.WR
 199:	43 39 39             	rex.XB cmp %edi,(%r9)
 19c:	00 2a                	add    %ch,(%rdx)
 19e:	2e 4c                	cs rex.WR
 1a0:	43 31 36             	rex.XB xor %esi,(%r14)
 1a3:	38 00                	cmp    %al,(%rax)
 1a5:	2a 2e                	sub    (%rsi),%ch
 1a7:	4c                   	rex.WR
 1a8:	43 39 34 00          	cmp    %esi,(%r8,%r8,1)
 1ac:	2a 2e                	sub    (%rsi),%ch
 1ae:	4c                   	rex.WR
 1af:	43 39 35 00 2a 2e 4c 	rex.XB cmp %esi,0x4c2e2a00(%rip)        # 4c2e2bb6 <lookup_hostname.constprop.1+0x4c2de1a6>
 1b6:	43 33 00             	rex.XB xor (%r8),%eax
 1b9:	2a 2e                	sub    (%rsi),%ch
 1bb:	4c                   	rex.WR
 1bc:	43 31 36             	rex.XB xor %esi,(%r14)
 1bf:	30 00                	xor    %al,(%rax)
 1c1:	2a 2e                	sub    (%rsi),%ch
 1c3:	4c                   	rex.WR
 1c4:	43 31 36             	rex.XB xor %esi,(%r14)
 1c7:	33 00                	xor    (%rax),%eax
 1c9:	2a 2e                	sub    (%rsi),%ch
 1cb:	4c                   	rex.WR
 1cc:	43 38 33             	rex.XB cmp %sil,(%r11)
 1cf:	00 2a                	add    %ch,(%rdx)
 1d1:	2e 4c                	cs rex.WR
 1d3:	43 34 38             	rex.XB xor $0x38,%al
 1d6:	00 2a                	add    %ch,(%rdx)
 1d8:	2e 4c                	cs rex.WR
 1da:	43 37                	rex.XB (bad) 
 1dc:	34 00                	xor    $0x0,%al
 1de:	2a 2e                	sub    (%rsi),%ch
 1e0:	4c                   	rex.WR
 1e1:	43 39 31             	rex.XB cmp %esi,(%r9)
 1e4:	00 2a                	add    %ch,(%rdx)
 1e6:	2e 4c                	cs rex.WR
 1e8:	43 37                	rex.XB (bad) 
 1ea:	36 00 2a             	add    %ch,%ss:(%rdx)
 1ed:	2e 4c                	cs rex.WR
 1ef:	43 39 38             	rex.XB cmp %edi,(%r8)
 1f2:	00 2a                	add    %ch,(%rdx)
 1f4:	2e 4c                	cs rex.WR
 1f6:	43                   	rex.XB
 1f7:	36 38 00             	cmp    %al,%ss:(%rax)
 1fa:	2a 2e                	sub    (%rsi),%ch
 1fc:	4c                   	rex.WR
 1fd:	43 31 35 35 00 2a 2e 	rex.XB xor %esi,0x2e2a0035(%rip)        # 2e2a0239 <lookup_hostname.constprop.1+0x2e29b829>
 204:	4c                   	rex.WR
 205:	43 31 36             	rex.XB xor %esi,(%r14)
 208:	31 00                	xor    %eax,(%rax)
 20a:	2a 2e                	sub    (%rsi),%ch
 20c:	4c                   	rex.WR
 20d:	43 34 39             	rex.XB xor $0x39,%al
 210:	00 2a                	add    %ch,(%rdx)
 212:	2e 4c                	cs rex.WR
 214:	43 33 34 00          	xor    (%r8,%r8,1),%esi
 218:	2a 2e                	sub    (%rsi),%ch
 21a:	4c                   	rex.WR
 21b:	43 34 35             	rex.XB xor $0x35,%al
 21e:	00 2a                	add    %ch,(%rdx)
 220:	2e 4c                	cs rex.WR
 222:	43 31 36             	rex.XB xor %esi,(%r14)
 225:	37                   	(bad)  
 226:	00 2a                	add    %ch,(%rdx)
 228:	2e 4c                	cs rex.WR
 22a:	43                   	rex.XB
 22b:	36 39 00             	cmp    %eax,%ss:(%rax)
 22e:	2a 2e                	sub    (%rsi),%ch
 230:	4c                   	rex.WR
 231:	43 35 38 00 2a 2e    	rex.XB xor $0x2e2a0038,%eax
 237:	4c                   	rex.WR
 238:	43 31 33             	rex.XB xor %esi,(%r11)
 23b:	34 00                	xor    $0x0,%al
 23d:	2a 2e                	sub    (%rsi),%ch
 23f:	4c                   	rex.WR
 240:	43 34 32             	rex.XB xor $0x32,%al
 243:	00 2a                	add    %ch,(%rdx)
 245:	2e 4c                	cs rex.WR
 247:	43 31 31             	rex.XB xor %esi,(%r9)
 24a:	00 2a                	add    %ch,(%rdx)
 24c:	2e 4c                	cs rex.WR
 24e:	43 35 00 2a 2e 4c    	rex.XB xor $0x4c2e2a00,%eax
 254:	43 31 33             	rex.XB xor %esi,(%r11)
 257:	39 00                	cmp    %eax,(%rax)
 259:	2a 2e                	sub    (%rsi),%ch
 25b:	4c                   	rex.WR
 25c:	43 31 33             	rex.XB xor %esi,(%r11)
 25f:	36 00 2a             	add    %ch,%ss:(%rdx)
 262:	2e 4c                	cs rex.WR
 264:	43 39 30             	rex.XB cmp %esi,(%r8)
 267:	00 2a                	add    %ch,(%rdx)
 269:	2e 4c                	cs rex.WR
 26b:	43 39 32             	rex.XB cmp %esi,(%r10)
 26e:	00 2a                	add    %ch,(%rdx)
 270:	2e 4c                	cs rex.WR
 272:	43 31 34 37          	xor    %esi,(%r15,%r14,1)
 276:	00 2a                	add    %ch,(%rdx)
 278:	2e 4c                	cs rex.WR
 27a:	43 34 34             	rex.XB xor $0x34,%al
 27d:	00 2a                	add    %ch,(%rdx)
 27f:	2e 4c                	cs rex.WR
 281:	43 35 33 00 2a 2e    	rex.XB xor $0x2e2a0033,%eax
 287:	4c                   	rex.WR
 288:	43                   	rex.XB
 289:	36 33 00             	xor    %ss:(%rax),%eax
 28c:	2a 2e                	sub    (%rsi),%ch
 28e:	4c                   	rex.WR
 28f:	43 37                	rex.XB (bad) 
 291:	30 00                	xor    %al,(%rax)
 293:	2a 2e                	sub    (%rsi),%ch
 295:	4c                   	rex.WR
 296:	43 35 34 00 2a 2e    	rex.XB xor $0x2e2a0034,%eax
 29c:	4c                   	rex.WR
 29d:	43 31 35 30 00 2a 2e 	rex.XB xor %esi,0x2e2a0030(%rip)        # 2e2a02d4 <lookup_hostname.constprop.1+0x2e29b8c4>
 2a4:	4c                   	rex.WR
 2a5:	43 37                	rex.XB (bad) 
 2a7:	35 00 2a 2e 4c       	xor    $0x4c2e2a00,%eax
 2ac:	43 34 33             	rex.XB xor $0x33,%al
 2af:	00 2a                	add    %ch,(%rdx)
 2b1:	2e 4c                	cs rex.WR
 2b3:	43 31 00             	rex.XB xor %eax,(%r8)
 2b6:	2a 2e                	sub    (%rsi),%ch
 2b8:	4c                   	rex.WR
 2b9:	43 31 30             	rex.XB xor %esi,(%r8)
 2bc:	30 00                	xor    %al,(%rax)
 2be:	2a 2e                	sub    (%rsi),%ch
 2c0:	4c                   	rex.WR
 2c1:	43 31 36             	rex.XB xor %esi,(%r14)
 2c4:	39 00                	cmp    %eax,(%rax)
 2c6:	2a 2e                	sub    (%rsi),%ch
 2c8:	4c                   	rex.WR
 2c9:	43 31 35 33 00 2a 2e 	rex.XB xor %esi,0x2e2a0033(%rip)        # 2e2a0303 <lookup_hostname.constprop.1+0x2e29b8f3>
 2d0:	4c                   	rex.WR
 2d1:	43 32 33             	rex.XB xor (%r11),%sil
 2d4:	00 2a                	add    %ch,(%rdx)
 2d6:	2e 4c                	cs rex.WR
 2d8:	43                   	rex.XB
 2d9:	36 30 00             	xor    %al,%ss:(%rax)
 2dc:	2a 2e                	sub    (%rsi),%ch
 2de:	4c                   	rex.WR
 2df:	43                   	rex.XB
 2e0:	36 31 00             	xor    %eax,%ss:(%rax)
 2e3:	2a 2e                	sub    (%rsi),%ch
 2e5:	4c                   	rex.WR
 2e6:	43 31 33             	rex.XB xor %esi,(%r11)
 2e9:	33 00                	xor    (%rax),%eax
 2eb:	2a 2e                	sub    (%rsi),%ch
 2ed:	4c                   	rex.WR
 2ee:	43 31 35 39 00 2a 2e 	rex.XB xor %esi,0x2e2a0039(%rip)        # 2e2a032e <lookup_hostname.constprop.1+0x2e29b91e>
 2f5:	4c                   	rex.WR
 2f6:	43 35 36 00 2a 2e    	rex.XB xor $0x2e2a0036,%eax
 2fc:	4c                   	rex.WR
 2fd:	43 31 32             	rex.XB xor %esi,(%r10)
 300:	36 00 2a             	add    %ch,%ss:(%rdx)
 303:	2e 4c                	cs rex.WR
 305:	43 33 32             	rex.XB xor (%r10),%esi
 308:	00 2a                	add    %ch,(%rdx)
 30a:	2e 4c                	cs rex.WR
 30c:	43 33 38             	rex.XB xor (%r8),%edi
 30f:	00 2a                	add    %ch,(%rdx)
 311:	2e 4c                	cs rex.WR
 313:	43 31 35 38 00 2a 2e 	rex.XB xor %esi,0x2e2a0038(%rip)        # 2e2a0352 <lookup_hostname.constprop.1+0x2e29b942>
 31a:	4c                   	rex.WR
 31b:	43 31 34 31          	xor    %esi,(%r9,%r14,1)
 31f:	00 2a                	add    %ch,(%rdx)
 321:	2e 4c                	cs rex.WR
 323:	43 31 34 32          	xor    %esi,(%r10,%r14,1)
 327:	00 2a                	add    %ch,(%rdx)
 329:	2e 4c                	cs rex.WR
 32b:	43 31 37             	rex.XB xor %esi,(%r15)
 32e:	32 00                	xor    (%rax),%al
 330:	2a 2e                	sub    (%rsi),%ch
 332:	4c                   	rex.WR
 333:	43 33 33             	rex.XB xor (%r11),%esi
 336:	00 2a                	add    %ch,(%rdx)
 338:	2e 4c                	cs rex.WR
 33a:	43                   	rex.XB
 33b:	36                   	ss
 33c:	34 00                	xor    $0x0,%al
 33e:	2a 2e                	sub    (%rsi),%ch
 340:	4c                   	rex.WR
 341:	43 38 36             	rex.XB cmp %sil,(%r14)
 344:	00 2a                	add    %ch,(%rdx)
 346:	2e 4c                	cs rex.WR
 348:	43 31 30             	rex.XB xor %esi,(%r8)
 34b:	35 00 2a 2e 4c       	xor    $0x4c2e2a00,%eax
 350:	43 38 30             	rex.XB cmp %sil,(%r8)
 353:	00 2a                	add    %ch,(%rdx)
 355:	2e 4c                	cs rex.WR
 357:	43 37                	rex.XB (bad) 
 359:	37                   	(bad)  
 35a:	00 2a                	add    %ch,(%rdx)
 35c:	2e 4c                	cs rex.WR
 35e:	43 37                	rex.XB (bad) 
 360:	38 00                	cmp    %al,(%rax)
 362:	2a 2e                	sub    (%rsi),%ch
 364:	4c                   	rex.WR
 365:	43 31 34 35 00 2a 2e 	xor    %esi,0x4c2e2a00(,%r14,1)
 36c:	4c 
 36d:	43 32 39             	rex.XB xor (%r9),%dil
 370:	00 2a                	add    %ch,(%rdx)
 372:	2e 4c                	cs rex.WR
 374:	43 31 35 32 00 2a 2e 	rex.XB xor %esi,0x2e2a0032(%rip)        # 2e2a03ad <lookup_hostname.constprop.1+0x2e29b99d>
 37b:	4c                   	rex.WR
 37c:	43 31 35 31 00 2a 2e 	rex.XB xor %esi,0x2e2a0031(%rip)        # 2e2a03b4 <lookup_hostname.constprop.1+0x2e29b9a4>
 383:	4c                   	rex.WR
 384:	43 39 33             	rex.XB cmp %esi,(%r11)
 387:	00 2a                	add    %ch,(%rdx)
 389:	2e 4c                	cs rex.WR
 38b:	43 31 35 34 00 2a 2e 	rex.XB xor %esi,0x2e2a0034(%rip)        # 2e2a03c6 <lookup_hostname.constprop.1+0x2e29b9b6>
 392:	4c                   	rex.WR
 393:	43 37                	rex.XB (bad) 
 395:	00 2a                	add    %ch,(%rdx)
 397:	2e 4c                	cs rex.WR
 399:	43 31 35 36 00 2a 2e 	rex.XB xor %esi,0x2e2a0036(%rip)        # 2e2a03d6 <lookup_hostname.constprop.1+0x2e29b9c6>
 3a0:	4c                   	rex.WR
 3a1:	43 33 30             	rex.XB xor (%r8),%esi
 3a4:	00 2a                	add    %ch,(%rdx)
 3a6:	2e 4c                	cs rex.WR
 3a8:	43 38 31             	rex.XB cmp %sil,(%r9)
 3ab:	00 2a                	add    %ch,(%rdx)
 3ad:	2e 4c                	cs rex.WR
 3af:	43 33 35 00 2a 2e 4c 	rex.XB xor 0x4c2e2a00(%rip),%esi        # 4c2e2db6 <lookup_hostname.constprop.1+0x4c2de3a6>
 3b6:	43 35 35 00 2a 2e    	rex.XB xor $0x2e2a0035,%eax
 3bc:	4c                   	rex.WR
 3bd:	43 37                	rex.XB (bad) 
 3bf:	39 00                	cmp    %eax,(%rax)
 3c1:	2a 2e                	sub    (%rsi),%ch
 3c3:	4c                   	rex.WR
 3c4:	43 33 39             	rex.XB xor (%r9),%edi
 3c7:	00 2a                	add    %ch,(%rdx)
 3c9:	2e 4c                	cs rex.WR
 3cb:	43 31 30             	rex.XB xor %esi,(%r8)
 3ce:	31 00                	xor    %eax,(%rax)
 3d0:	2a 2e                	sub    (%rsi),%ch
 3d2:	4c                   	rex.WR
 3d3:	43 34 36             	rex.XB xor $0x36,%al
 3d6:	00 2a                	add    %ch,(%rdx)
 3d8:	2e 4c                	cs rex.WR
 3da:	43                   	rex.XB
 3db:	36 32 00             	xor    %ss:(%rax),%al
 3de:	2a 2e                	sub    (%rsi),%ch
 3e0:	4c                   	rex.WR
 3e1:	43 31 34 39          	xor    %esi,(%r9,%r15,1)
 3e5:	00 2a                	add    %ch,(%rdx)
 3e7:	2e 4c                	cs rex.WR
 3e9:	43 31 35 37 00 2a 2e 	rex.XB xor %esi,0x2e2a0037(%rip)        # 2e2a0427 <lookup_hostname.constprop.1+0x2e29ba17>
 3f0:	4c                   	rex.WR
 3f1:	43 31 33             	rex.XB xor %esi,(%r11)
 3f4:	35 00 2a 2e 4c       	xor    $0x4c2e2a00,%eax
 3f9:	43 31 32             	rex.XB xor %esi,(%r10)
 3fc:	37                   	(bad)  
 3fd:	00 2a                	add    %ch,(%rdx)
 3ff:	2e 4c                	cs rex.WR
 401:	43 31 37             	rex.XB xor %esi,(%r15)
 404:	30 00                	xor    %al,(%rax)
 406:	2a 2e                	sub    (%rsi),%ch
 408:	4c                   	rex.WR
 409:	43 31 32             	rex.XB xor %esi,(%r10)
 40c:	31 00                	xor    %eax,(%rax)
 40e:	2a 2e                	sub    (%rsi),%ch
 410:	4c                   	rex.WR
 411:	43 38 39             	rex.XB cmp %dil,(%r9)
 414:	00 2a                	add    %ch,(%rdx)
 416:	2e 4c                	cs rex.WR
 418:	43 31 35 00 2a 2e 4c 	rex.XB xor %esi,0x4c2e2a00(%rip)        # 4c2e2e1f <lookup_hostname.constprop.1+0x4c2de40f>
 41f:	43 31 36             	rex.XB xor %esi,(%r14)
 422:	35 00 2a 2e 4c       	xor    $0x4c2e2a00,%eax
 427:	43 38 34 00          	cmp    %sil,(%r8,%r8,1)
 42b:	2a 2e                	sub    (%rsi),%ch
 42d:	4c                   	rex.WR
 42e:	43 39 36             	rex.XB cmp %esi,(%r14)
 431:	00 2a                	add    %ch,(%rdx)
 433:	2e 4c                	cs rex.WR
 435:	43                   	rex.XB
 436:	36                   	ss
 437:	37                   	(bad)  
 438:	00 2a                	add    %ch,(%rdx)
 43a:	2e 4c                	cs rex.WR
 43c:	43 38 32             	rex.XB cmp %sil,(%r10)
 43f:	00 2a                	add    %ch,(%rdx)
 441:	2e 4c                	cs rex.WR
 443:	43 37                	rex.XB (bad) 
 445:	31 00                	xor    %eax,(%rax)
 447:	2a 2e                	sub    (%rsi),%ch
 449:	4c                   	rex.WR
 44a:	43 31 36             	rex.XB xor %esi,(%r14)
 44d:	36 00 2a             	add    %ch,%ss:(%rdx)
 450:	2e 4c                	cs rex.WR
 452:	43 31 30             	rex.XB xor %esi,(%r8)
 455:	37                   	(bad)  
 456:	00 2a                	add    %ch,(%rdx)
 458:	2e 4c                	cs rex.WR
 45a:	43 31 37             	rex.XB xor %esi,(%r15)
 45d:	31 00                	xor    %eax,(%rax)
 45f:	2a 2e                	sub    (%rsi),%ch
 461:	4c                   	rex.WR
 462:	43 34 00             	rex.XB xor $0x0,%al
 465:	2a 2e                	sub    (%rsi),%ch
 467:	4c                   	rex.WR
 468:	43 31 31             	rex.XB xor %esi,(%r9)
 46b:	36 00 2a             	add    %ch,%ss:(%rdx)
 46e:	2e 4c                	cs rex.WR
 470:	43 39 00             	rex.XB cmp %eax,(%r8)
 473:	2a 2e                	sub    (%rsi),%ch
 475:	4c                   	rex.WR
 476:	43 31 31             	rex.XB xor %esi,(%r9)
 479:	37                   	(bad)  
 47a:	00 2a                	add    %ch,(%rdx)
 47c:	2e 4c                	cs rex.WR
 47e:	43 31 36             	rex.XB xor %esi,(%r14)
 481:	34 00                	xor    $0x0,%al
 483:	2a 2e                	sub    (%rsi),%ch
 485:	4c                   	rex.WR
 486:	43 31 32             	rex.XB xor %esi,(%r10)
 489:	35 00 2a 2e 4c       	xor    $0x4c2e2a00,%eax
 48e:	43 31 31             	rex.XB xor %esi,(%r9)
 491:	30 00                	xor    %al,(%rax)
 493:	2a 2e                	sub    (%rsi),%ch
 495:	4c                   	rex.WR
 496:	43 33 36             	rex.XB xor (%r14),%esi
 499:	00 2a                	add    %ch,(%rdx)
 49b:	2e 4c                	cs rex.WR
 49d:	43 37                	rex.XB (bad) 
 49f:	32 00                	xor    (%rax),%al
 4a1:	2a 2e                	sub    (%rsi),%ch
 4a3:	4c                   	rex.WR
 4a4:	43 32 30             	rex.XB xor (%r8),%sil
 4a7:	00 2a                	add    %ch,(%rdx)
 4a9:	2e 4c                	cs rex.WR
 4ab:	43 31 34 36          	xor    %esi,(%r14,%r14,1)
 4af:	00 2a                	add    %ch,(%rdx)
 4b1:	2e 4c                	cs rex.WR
 4b3:	43 31 34 33          	xor    %esi,(%r11,%r14,1)
 4b7:	00 2a                	add    %ch,(%rdx)
 4b9:	2e 4c                	cs rex.WR
 4bb:	43 31 30             	rex.XB xor %esi,(%r8)
 4be:	33 00                	xor    (%rax),%eax
 4c0:	2a 2e                	sub    (%rsi),%ch
 4c2:	4c                   	rex.WR
 4c3:	43 34 37             	rex.XB xor $0x37,%al
 4c6:	00 2a                	add    %ch,(%rdx)
 4c8:	2e 4c                	cs rex.WR
 4ca:	43 31 36             	rex.XB xor %esi,(%r14)
 4cd:	32 00                	xor    (%rax),%al
 4cf:	2a 2e                	sub    (%rsi),%ch
 4d1:	4c                   	rex.WR
 4d2:	43 35 37 00 2a 2e    	rex.XB xor $0x2e2a0037,%eax
 4d8:	4c                   	rex.WR
 4d9:	43 34 30             	rex.XB xor $0x30,%al
 4dc:	00 2a                	add    %ch,(%rdx)
 4de:	2e 4c                	cs rex.WR
 4e0:	43 31 30             	rex.XB xor %esi,(%r8)
 4e3:	34 00                	xor    $0x0,%al
 4e5:	2a 2e                	sub    (%rsi),%ch
 4e7:	4c                   	rex.WR
 4e8:	43 31 31             	rex.XB xor %esi,(%r9)
 4eb:	32 00                	xor    (%rax),%al
 4ed:	2a 2e                	sub    (%rsi),%ch
 4ef:	4c                   	rex.WR
 4f0:	43                   	rex.XB
 4f1:	36                   	ss
 4f2:	35 00 2a 2e 4c       	xor    $0x4c2e2a00,%eax
 4f7:	43 38 35 00 2a 2e 4c 	rex.XB cmp %sil,0x4c2e2a00(%rip)        # 4c2e2efe <lookup_hostname.constprop.1+0x4c2de4ee>
 4fe:	43 35 31 00 2a 2e    	rex.XB xor $0x2e2a0031,%eax
 504:	4c                   	rex.WR
 505:	43                   	rex.XB
 506:	36 36 00 2a          	ss add %ch,%ss:(%rdx)
 50a:	2e 4c                	cs rex.WR
 50c:	43 37                	rex.XB (bad) 
 50e:	33 00                	xor    (%rax),%eax
 510:	2a 2e                	sub    (%rsi),%ch
 512:	4c                   	rex.WR
 513:	43 35 30 00 2a 2e    	rex.XB xor $0x2e2a0030,%eax
 519:	4c                   	rex.WR
 51a:	43 34 31             	rex.XB xor $0x31,%al
 51d:	00 2a                	add    %ch,(%rdx)
 51f:	2e 4c                	cs rex.WR
 521:	43 32 35 00 2a 2e 4c 	rex.XB xor 0x4c2e2a00(%rip),%sil        # 4c2e2f28 <lookup_hostname.constprop.1+0x4c2de518>
 528:	43 32 36             	rex.XB xor (%r14),%sil
 52b:	00 2a                	add    %ch,(%rdx)
 52d:	2e 4c                	cs rex.WR
 52f:	43 31 34 30          	xor    %esi,(%r8,%r14,1)
 533:	00 2a                	add    %ch,(%rdx)
 535:	2e 4c                	cs rex.WR
 537:	43 33 37             	rex.XB xor (%r15),%esi
 53a:	00 2a                	add    %ch,(%rdx)
 53c:	2e 4c                	cs rex.WR
 53e:	43 31 34 34          	xor    %esi,(%r12,%r14,1)
 542:	00 2a                	add    %ch,(%rdx)
 544:	2e 4c                	cs rex.WR
 546:	43 33 31             	rex.XB xor (%r9),%esi
	...

Disassembly of section .rodata.str1.8:

0000000000000000 <.rodata.str1.8>:
   0:	35 20 33 32 20       	xor    $0x20323320,%eax
   5:	38 20                	cmp    %ah,(%rax)
   7:	39 20                	cmp    %esp,(%rax)
   9:	6d                   	insl   (%dx),%es:(%rdi)
   a:	61                   	(bad)  
   b:	78 5f                	js     6c <.rodata.str1.8+0x6c>
   d:	6c                   	insb   (%dx),%es:(%rdi)
   e:	69 6d 69 74 20 39 36 	imul   $0x36392074,0x69(%rbp),%ebp
  15:	20 38                	and    %bh,(%rax)
  17:	20 39                	and    %bh,(%rcx)
  19:	20 6d 69             	and    %ch,0x69(%rbp)
  1c:	6e                   	outsb  %ds:(%rsi),(%dx)
  1d:	5f                   	pop    %rdi
  1e:	6c                   	insb   (%dx),%es:(%rdi)
  1f:	69 6d 69 74 20 31 36 	imul   $0x36312074,0x69(%rbp),%ebp
  26:	30 20                	xor    %ah,(%rax)
  28:	31 36                	xor    %esi,(%rsi)
  2a:	20 32                	and    %dh,(%rdx)
  2c:	20 74 76 20          	and    %dh,0x20(%rsi,%rsi,2)
  30:	32 32                	xor    (%rdx),%dh
  32:	34 20                	xor    $0x20,%al
  34:	35 30 30 30 20       	xor    $0x20303030,%eax
  39:	33 20                	xor    (%rax),%esp
  3b:	62                   	(bad)  {%k7}
  3c:	75 66                	jne    a4 <.rodata.str1.8+0xa4>
  3e:	20 35 32 38 30 20    	and    %dh,0x20303832(%rip)        # 20303876 <lookup_hostname.constprop.1+0x202fee66>
  44:	35 30 30 30 20       	xor    $0x20303030,%eax
  49:	37                   	(bad)  
  4a:	20 70 61             	and    %dh,0x61(%rax)
  4d:	74 74                	je     c3 <.rodata.str1.8+0xc3>
  4f:	65                   	gs
  50:	72 6e                	jb     c0 <.rodata.str1.8+0xc0>
  52:	20 00                	and    %al,(%rax)
  54:	00 00                	add    %al,(%rax)
  56:	00 00                	add    %al,(%rax)
  58:	33 20                	xor    (%rax),%esp
  5a:	33 32                	xor    (%rdx),%esi
  5c:	20 38                	and    %bh,(%rax)
  5e:	20 32                	and    %dh,(%rdx)
  60:	20 61 69             	and    %ah,0x69(%rcx)
  63:	20 39                	and    %bh,(%rcx)
  65:	36 20 31             	and    %dh,%ss:(%rcx)
  68:	30 20                	xor    %ah,(%rax)
  6a:	37                   	(bad)  
  6b:	20 70 6f             	and    %dh,0x6f(%rax)
  6e:	72 74                	jb     e4 <terminate+0x24>
  70:	73 74                	jae    e6 <terminate+0x26>
  72:	72 20                	jb     94 <.rodata.str1.8+0x94>
  74:	31 36                	xor    %esi,(%rsi)
  76:	30 20                	xor    %ah,(%rax)
  78:	34 38                	xor    $0x38,%al
  7a:	20 35 20 68 69 6e    	and    %dh,0x6e696820(%rip)        # 6e6968a0 <lookup_hostname.constprop.1+0x6e691e90>
  80:	74 73                	je     f5 <terminate+0x35>
  82:	20 00                	and    %al,(%rax)
  84:	00 00                	add    %al,(%rax)
  86:	00 00                	add    %al,(%rax)
  88:	36 20 33             	and    %dh,%ss:(%rbx)
  8b:	32 20                	xor    (%rax),%ah
  8d:	34 20                	xor    $0x20,%al
  8f:	35 20 67 6f 74       	xor    $0x746f6720,%eax
  94:	76 34                	jbe    ca <.rodata.str1.8+0xca>
  96:	20 39                	and    %bh,(%rcx)
  98:	36 20 34 20          	and    %dh,%ss:(%rax,%riz,1)
  9c:	35 20 67 6f 74       	xor    $0x746f6720,%eax
  a1:	76 36                	jbe    d9 <.rodata.str1.8+0xd9>
  a3:	20 31                	and    %dh,(%rcx)
  a5:	36 30 20             	xor    %ah,%ss:(%rax)
  a8:	31 36                	xor    %esi,(%rsi)
  aa:	20 32                	and    %dh,(%rdx)
  ac:	20 74 76 20          	and    %dh,0x20(%rsi,%rsi,2)
  b0:	32 32                	xor    (%rdx),%dh
  b2:	34 20                	xor    $0x20,%al
  b4:	31 32                	xor    %esi,(%rdx)
  b6:	38 20                	cmp    %ah,(%rax)
  b8:	33 20                	xor    (%rax),%esp
  ba:	73 61                	jae    11d <hs+0x1d>
  bc:	34 20                	xor    $0x20,%al
  be:	33 38                	xor    (%rax),%edi
  c0:	34 20                	xor    $0x20,%al
  c2:	31 32                	xor    %esi,(%rdx)
  c4:	38 20                	cmp    %ah,(%rax)
  c6:	33 20                	xor    (%rax),%esp
  c8:	73 61                	jae    12b <hs+0x2b>
  ca:	36 20 35 34 34 20 34 	and    %dh,%ss:0x34203434(%rip)        # 34203505 <lookup_hostname.constprop.1+0x341feaf5>
  d1:	30 39                	xor    %bh,(%rcx)
  d3:	37                   	(bad)  
  d4:	20 33                	and    %dh,(%rbx)
  d6:	20 63 77             	and    %ah,0x77(%rbx)
  d9:	64 20 00             	and    %al,%fs:(%rax)

Disassembly of section .text.startup:

0000000000000000 <main>:
       0:	41 57                	push   %r15
       2:	41 56                	push   %r14
       4:	41 89 fe             	mov    %edi,%r14d
       7:	41 55                	push   %r13
       9:	41 54                	push   %r12
       b:	49 89 f5             	mov    %rsi,%r13
       e:	55                   	push   %rbp
       f:	53                   	push   %rbx
      10:	48 81 ec 78 12 00 00 	sub    $0x1278,%rsp
      17:	8b 35 00 00 00 00    	mov    0x0(%rip),%esi        # 1d <main+0x1d>
      1d:	48 8d 5c 24 10       	lea    0x10(%rsp),%rbx
      22:	85 f6                	test   %esi,%esi
      24:	0f 85 a8 0f 00 00    	jne    fd2 <main+0xfd2>
      2a:	48 89 d8             	mov    %rbx,%rax
      2d:	48 c7 03 b3 8a b5 41 	movq   $0x41b58ab3,(%rbx)
      34:	48 c7 43 08 00 00 00 	movq   $0x0,0x8(%rbx)
      3b:	00 
      3c:	48 c1 e8 03          	shr    $0x3,%rax
      40:	48 c7 43 10 00 00 00 	movq   $0x0,0x10(%rbx)
      47:	00 
      48:	48 8d ab 60 12 00 00 	lea    0x1260(%rbx),%rbp
      4f:	c7 80 00 80 ff 7f f1 	movl   $0xf1f1f1f1,0x7fff8000(%rax)
      56:	f1 f1 f1 
      59:	c7 80 04 80 ff 7f 04 	movl   $0xf4f4f404,0x7fff8004(%rax)
      60:	f4 f4 f4 
      63:	c7 80 08 80 ff 7f f2 	movl   $0xf2f2f2f2,0x7fff8008(%rax)
      6a:	f2 f2 f2 
      6d:	c7 80 0c 80 ff 7f 04 	movl   $0xf4f4f404,0x7fff800c(%rax)
      74:	f4 f4 f4 
      77:	c7 80 10 80 ff 7f f2 	movl   $0xf2f2f2f2,0x7fff8010(%rax)
      7e:	f2 f2 f2 
      81:	c7 80 14 80 ff 7f 00 	movl   $0xf4f40000,0x7fff8014(%rax)
      88:	00 f4 f4 
      8b:	c7 80 18 80 ff 7f f2 	movl   $0xf2f2f2f2,0x7fff8018(%rax)
      92:	f2 f2 f2 
      95:	c7 80 2c 80 ff 7f f2 	movl   $0xf2f2f2f2,0x7fff802c(%rax)
      9c:	f2 f2 f2 
      9f:	c7 80 40 80 ff 7f f2 	movl   $0xf2f2f2f2,0x7fff8040(%rax)
      a6:	f2 f2 f2 
      a9:	c7 80 44 82 ff 7f 01 	movl   $0xf4f4f401,0x7fff8244(%rax)
      b0:	f4 f4 f4 
      b3:	c7 80 48 82 ff 7f f3 	movl   $0xf3f3f3f3,0x7fff8248(%rax)
      ba:	f3 f3 f3 
      bd:	4c 89 e8             	mov    %r13,%rax
      c0:	48 c1 e8 03          	shr    $0x3,%rax
      c4:	80 b8 00 80 ff 7f 00 	cmpb   $0x0,0x7fff8000(%rax)
      cb:	0f 85 7b 0f 00 00    	jne    104c <main+0x104c>
      d1:	4d 8b 65 00          	mov    0x0(%r13),%r12
      d5:	be 2f 00 00 00       	mov    $0x2f,%esi
      da:	4c 89 e7             	mov    %r12,%rdi
      dd:	4c 89 25 00 00 00 00 	mov    %r12,0x0(%rip)        # e4 <main+0xe4>
      e4:	e8 00 00 00 00       	callq  e9 <main+0xe9>
      e9:	48 8d 50 01          	lea    0x1(%rax),%rdx
      ed:	48 85 c0             	test   %rax,%rax
      f0:	be 09 00 00 00       	mov    $0x9,%esi
      f5:	4c 0f 45 e2          	cmovne %rdx,%r12
      f9:	ba 18 00 00 00       	mov    $0x18,%edx
      fe:	4c 89 e7             	mov    %r12,%rdi
     101:	e8 00 00 00 00       	callq  106 <main+0x106>
     106:	4c 89 ee             	mov    %r13,%rsi
     109:	44 89 f7             	mov    %r14d,%edi
     10c:	4c 8d ab 80 01 00 00 	lea    0x180(%rbx),%r13
     113:	e8 00 00 00 00       	callq  118 <main+0x118>
     118:	e8 00 00 00 00       	callq  11d <main+0x11d>
     11d:	48 8d 4b 60          	lea    0x60(%rbx),%rcx
     121:	48 8d 73 20          	lea    0x20(%rbx),%rsi
     125:	48 81 c3 e0 00 00 00 	add    $0xe0,%rbx
     12c:	4c 89 ea             	mov    %r13,%rdx
     12f:	48 89 df             	mov    %rbx,%rdi
     132:	e8 00 00 00 00       	callq  137 <main+0x137>
     137:	8b 8d c0 ed ff ff    	mov    -0x1240(%rbp),%ecx
     13d:	85 c9                	test   %ecx,%ecx
     13f:	75 0d                	jne    14e <main+0x14e>
     141:	83 bd 00 ee ff ff 00 	cmpl   $0x0,-0x1200(%rbp)
     148:	0f 84 86 08 00 00    	je     9d4 <main+0x9d4>
     14e:	48 8b 3d 00 00 00 00 	mov    0x0(%rip),%rdi        # 155 <main+0x155>
     155:	c7 05 00 00 00 00 00 	movl   $0x0,0x0(%rip)        # 15f <main+0x15f>
     15c:	00 00 00 
     15f:	c7 05 00 00 00 00 00 	movl   $0x0,0x0(%rip)        # 169 <main+0x169>
     166:	00 00 00 
     169:	48 c7 05 00 00 00 00 	movq   $0x0,0x0(%rip)        # 174 <main+0x174>
     170:	00 00 00 00 
     174:	48 85 ff             	test   %rdi,%rdi
     177:	74 05                	je     17e <main+0x17e>
     179:	e8 00 00 00 00       	callq  17e <main+0x17e>
     17e:	e8 00 00 00 00       	callq  183 <main+0x183>
     183:	85 c0                	test   %eax,%eax
     185:	c7 04 24 ff 7f 00 00 	movl   $0x7fff,(%rsp)
     18c:	c7 44 24 04 ff 7f 00 	movl   $0x7fff,0x4(%rsp)
     193:	00 
     194:	0f 84 cd 07 00 00    	je     967 <main+0x967>
     19a:	4c 8b 25 00 00 00 00 	mov    0x0(%rip),%r12        # 1a1 <main+0x1a1>
     1a1:	4d 85 e4             	test   %r12,%r12
     1a4:	0f 84 07 0b 00 00    	je     cb1 <main+0xcb1>
     1aa:	be 00 00 00 00       	mov    $0x0,%esi
     1af:	4c 89 e7             	mov    %r12,%rdi
     1b2:	e8 00 00 00 00       	callq  1b7 <main+0x1b7>
     1b7:	85 c0                	test   %eax,%eax
     1b9:	0f 84 30 07 00 00    	je     8ef <main+0x8ef>
     1bf:	be 00 00 00 00       	mov    $0x0,%esi
     1c4:	4c 89 e7             	mov    %r12,%rdi
     1c7:	e8 00 00 00 00       	callq  1cc <main+0x1cc>
     1cc:	85 c0                	test   %eax,%eax
     1ce:	0f 85 e5 0a 00 00    	jne    cb9 <main+0xcb9>
     1d4:	b8 00 00 00 00       	mov    $0x0,%eax
     1d9:	4c 8b 3d 00 00 00 00 	mov    0x0(%rip),%r15        # 1e0 <main+0x1e0>
     1e0:	48 c1 e8 03          	shr    $0x3,%rax
     1e4:	80 b8 00 80 ff 7f 00 	cmpb   $0x0,0x7fff8000(%rax)
     1eb:	0f 85 51 0e 00 00    	jne    1042 <main+0x1042>
     1f1:	48 8b 3d 00 00 00 00 	mov    0x0(%rip),%rdi        # 1f8 <main+0x1f8>
     1f8:	48 85 ff             	test   %rdi,%rdi
     1fb:	74 0d                	je     20a <main+0x20a>
     1fd:	e8 00 00 00 00       	callq  202 <main+0x202>
     202:	85 c0                	test   %eax,%eax
     204:	0f 88 b6 0b 00 00    	js     dc0 <main+0xdc0>
     20a:	4c 8d a5 c0 ef ff ff 	lea    -0x1040(%rbp),%r12
     211:	be 00 10 00 00       	mov    $0x1000,%esi
     216:	4c 89 e7             	mov    %r12,%rdi
     219:	e8 00 00 00 00       	callq  21e <main+0x21e>
     21e:	4c 89 e7             	mov    %r12,%rdi
     221:	e8 00 00 00 00       	callq  226 <main+0x226>
     226:	48 8d 50 ff          	lea    -0x1(%rax),%rdx
     22a:	49 8d 3c 14          	lea    (%r12,%rdx,1),%rdi
     22e:	48 89 f9             	mov    %rdi,%rcx
     231:	48 89 fe             	mov    %rdi,%rsi
     234:	48 c1 e9 03          	shr    $0x3,%rcx
     238:	83 e6 07             	and    $0x7,%esi
     23b:	0f b6 89 00 80 ff 7f 	movzbl 0x7fff8000(%rcx),%ecx
     242:	40 38 f1             	cmp    %sil,%cl
     245:	7f 08                	jg     24f <main+0x24f>
     247:	84 c9                	test   %cl,%cl
     249:	0f 85 ee 0d 00 00    	jne    103d <main+0x103d>
     24f:	80 bc 2a c0 ef ff ff 	cmpb   $0x2f,-0x1040(%rdx,%rbp,1)
     256:	2f 
     257:	74 13                	je     26c <main+0x26c>
     259:	49 8d 3c 04          	lea    (%r12,%rax,1),%rdi
     25d:	ba 02 00 00 00       	mov    $0x2,%edx
     262:	be 00 00 00 00       	mov    $0x0,%esi
     267:	e8 00 00 00 00       	callq  26c <main+0x26c>
     26c:	8b 15 00 00 00 00    	mov    0x0(%rip),%edx        # 272 <main+0x272>
     272:	85 d2                	test   %edx,%edx
     274:	0f 85 e3 06 00 00    	jne    95d <main+0x95d>
     27a:	b8 00 00 00 00       	mov    $0x0,%eax
     27f:	48 c1 e8 03          	shr    $0x3,%rax
     283:	80 b8 00 80 ff 7f 00 	cmpb   $0x0,0x7fff8000(%rax)
     28a:	0f 85 dd 0d 00 00    	jne    106d <main+0x106d>
     290:	48 8b 3d 00 00 00 00 	mov    0x0(%rip),%rdi        # 297 <main+0x297>
     297:	e8 00 00 00 00       	callq  29c <main+0x29c>
     29c:	b8 00 00 00 00       	mov    $0x0,%eax
     2a1:	48 c1 e8 03          	shr    $0x3,%rax
     2a5:	80 b8 00 80 ff 7f 00 	cmpb   $0x0,0x7fff8000(%rax)
     2ac:	0f 85 c5 0d 00 00    	jne    1077 <main+0x1077>
     2b2:	48 8b 3d 00 00 00 00 	mov    0x0(%rip),%rdi        # 2b9 <main+0x2b9>
     2b9:	49 39 ff             	cmp    %rdi,%r15
     2bc:	74 05                	je     2c3 <main+0x2c3>
     2be:	e8 00 00 00 00       	callq  2c3 <main+0x2c3>
     2c3:	b8 00 00 00 00       	mov    $0x0,%eax
     2c8:	48 c1 e8 03          	shr    $0x3,%rax
     2cc:	80 b8 00 80 ff 7f 00 	cmpb   $0x0,0x7fff8000(%rax)
     2d3:	0f 85 7b 0d 00 00    	jne    1054 <main+0x1054>
     2d9:	48 8b 3d 00 00 00 00 	mov    0x0(%rip),%rdi        # 2e0 <main+0x2e0>
     2e0:	e8 00 00 00 00       	callq  2e5 <main+0x2e5>
     2e5:	be 01 00 00 00       	mov    $0x1,%esi
     2ea:	bf 01 00 00 00       	mov    $0x1,%edi
     2ef:	e8 00 00 00 00       	callq  2f4 <main+0x2f4>
     2f4:	85 c0                	test   %eax,%eax
     2f6:	be 00 00 00 00       	mov    $0x0,%esi
     2fb:	0f 88 bc 08 00 00    	js     bbd <main+0xbbd>
     301:	48 8b 3d 00 00 00 00 	mov    0x0(%rip),%rdi        # 308 <main+0x308>
     308:	48 85 ff             	test   %rdi,%rdi
     30b:	74 34                	je     341 <main+0x341>
     30d:	be 00 00 00 00       	mov    $0x0,%esi
     312:	e8 00 00 00 00       	callq  317 <main+0x317>
     317:	48 85 c0             	test   %rax,%rax
     31a:	49 89 c6             	mov    %rax,%r14
     31d:	0f 84 c7 0a 00 00    	je     dea <main+0xdea>
     323:	e8 00 00 00 00       	callq  328 <main+0x328>
     328:	4c 89 f7             	mov    %r14,%rdi
     32b:	89 c2                	mov    %eax,%edx
     32d:	be 00 00 00 00       	mov    $0x0,%esi
     332:	31 c0                	xor    %eax,%eax
     334:	e8 00 00 00 00       	callq  339 <main+0x339>
     339:	4c 89 f7             	mov    %r14,%rdi
     33c:	e8 00 00 00 00       	callq  341 <main+0x341>
     341:	e8 00 00 00 00       	callq  346 <main+0x346>
     346:	85 c0                	test   %eax,%eax
     348:	89 05 00 00 00 00    	mov    %eax,0x0(%rip)        # 34e <main+0x34e>
     34e:	0f 88 64 08 00 00    	js     bb8 <main+0xbb8>
     354:	83 e8 0a             	sub    $0xa,%eax
     357:	83 3d 00 00 00 00 00 	cmpl   $0x0,0x0(%rip)        # 35e <main+0x35e>
     35e:	89 05 00 00 00 00    	mov    %eax,0x0(%rip)        # 364 <main+0x364>
     364:	0f 85 6a 08 00 00    	jne    bd4 <main+0xbd4>
     36a:	48 8b 3d 00 00 00 00 	mov    0x0(%rip),%rdi        # 371 <main+0x371>
     371:	48 85 ff             	test   %rdi,%rdi
     374:	74 0d                	je     383 <main+0x383>
     376:	e8 00 00 00 00       	callq  37b <main+0x37b>
     37b:	85 c0                	test   %eax,%eax
     37d:	0f 88 8e 0a 00 00    	js     e11 <main+0xe11>
     383:	be 00 00 00 00       	mov    $0x0,%esi
     388:	bf 0f 00 00 00       	mov    $0xf,%edi
     38d:	31 c0                	xor    %eax,%eax
     38f:	e8 00 00 00 00       	callq  394 <main+0x394>
     394:	be 00 00 00 00       	mov    $0x0,%esi
     399:	bf 02 00 00 00       	mov    $0x2,%edi
     39e:	31 c0                	xor    %eax,%eax
     3a0:	e8 00 00 00 00       	callq  3a5 <main+0x3a5>
     3a5:	be 00 00 00 00       	mov    $0x0,%esi
     3aa:	bf 11 00 00 00       	mov    $0x11,%edi
     3af:	31 c0                	xor    %eax,%eax
     3b1:	e8 00 00 00 00       	callq  3b6 <main+0x3b6>
     3b6:	be 01 00 00 00       	mov    $0x1,%esi
     3bb:	bf 0d 00 00 00       	mov    $0xd,%edi
     3c0:	31 c0                	xor    %eax,%eax
     3c2:	e8 00 00 00 00       	callq  3c7 <main+0x3c7>
     3c7:	be 00 00 00 00       	mov    $0x0,%esi
     3cc:	bf 01 00 00 00       	mov    $0x1,%edi
     3d1:	31 c0                	xor    %eax,%eax
     3d3:	e8 00 00 00 00       	callq  3d8 <main+0x3d8>
     3d8:	be 00 00 00 00       	mov    $0x0,%esi
     3dd:	bf 0a 00 00 00       	mov    $0xa,%edi
     3e2:	31 c0                	xor    %eax,%eax
     3e4:	e8 00 00 00 00       	callq  3e9 <main+0x3e9>
     3e9:	be 00 00 00 00       	mov    $0x0,%esi
     3ee:	bf 0c 00 00 00       	mov    $0xc,%edi
     3f3:	31 c0                	xor    %eax,%eax
     3f5:	e8 00 00 00 00       	callq  3fa <main+0x3fa>
     3fa:	be 00 00 00 00       	mov    $0x0,%esi
     3ff:	bf 0e 00 00 00       	mov    $0xe,%edi
     404:	31 c0                	xor    %eax,%eax
     406:	e8 00 00 00 00       	callq  40b <main+0x40b>
     40b:	bf 68 01 00 00       	mov    $0x168,%edi
     410:	c7 05 00 00 00 00 00 	movl   $0x0,0x0(%rip)        # 41a <main+0x41a>
     417:	00 00 00 
     41a:	c7 05 00 00 00 00 00 	movl   $0x0,0x0(%rip)        # 424 <main+0x424>
     421:	00 00 00 
     424:	c7 05 00 00 00 00 00 	movl   $0x0,0x0(%rip)        # 42e <main+0x42e>
     42b:	00 00 00 
     42e:	e8 00 00 00 00       	callq  433 <main+0x433>
     433:	e8 00 00 00 00       	callq  438 <main+0x438>
     438:	31 f6                	xor    %esi,%esi
     43a:	83 bd 00 ee ff ff 00 	cmpl   $0x0,-0x1200(%rbp)
     441:	8b 05 00 00 00 00    	mov    0x0(%rip),%eax        # 447 <main+0x447>
     447:	4c 89 ea             	mov    %r13,%rdx
     44a:	0f b7 0d 00 00 00 00 	movzwl 0x0(%rip),%ecx        # 451 <main+0x451>
     451:	44 8b 0d 00 00 00 00 	mov    0x0(%rip),%r9d        # 458 <main+0x458>
     458:	4c 8b 05 00 00 00 00 	mov    0x0(%rip),%r8        # 45f <main+0x45f>
     45f:	48 8b 3d 00 00 00 00 	mov    0x0(%rip),%rdi        # 466 <main+0x466>
     466:	48 0f 44 d6          	cmove  %rsi,%rdx
     46a:	83 bd c0 ed ff ff 00 	cmpl   $0x0,-0x1240(%rbp)
     471:	50                   	push   %rax
     472:	8b 05 00 00 00 00    	mov    0x0(%rip),%eax        # 478 <main+0x478>
     478:	ff 35 00 00 00 00    	pushq  0x0(%rip)        # 47e <main+0x47e>
     47e:	ff 35 00 00 00 00    	pushq  0x0(%rip)        # 484 <main+0x484>
     484:	50                   	push   %rax
     485:	8b 05 00 00 00 00    	mov    0x0(%rip),%eax        # 48b <main+0x48b>
     48b:	48 0f 45 f3          	cmovne %rbx,%rsi
     48f:	50                   	push   %rax
     490:	8b 05 00 00 00 00    	mov    0x0(%rip),%eax        # 496 <main+0x496>
     496:	50                   	push   %rax
     497:	8b 05 00 00 00 00    	mov    0x0(%rip),%eax        # 49d <main+0x49d>
     49d:	41 57                	push   %r15
     49f:	50                   	push   %rax
     4a0:	8b 05 00 00 00 00    	mov    0x0(%rip),%eax        # 4a6 <main+0x4a6>
     4a6:	41 54                	push   %r12
     4a8:	50                   	push   %rax
     4a9:	ff 35 00 00 00 00    	pushq  0x0(%rip)        # 4af <main+0x4af>
     4af:	ff 35 00 00 00 00    	pushq  0x0(%rip)        # 4b5 <main+0x4b5>
     4b5:	e8 00 00 00 00       	callq  4ba <main+0x4ba>
     4ba:	48 83 c4 60          	add    $0x60,%rsp
     4be:	48 85 c0             	test   %rax,%rax
     4c1:	48 89 05 00 00 00 00 	mov    %rax,0x0(%rip)        # 4c8 <main+0x4c8>
     4c8:	0f 84 80 04 00 00    	je     94e <main+0x94e>
     4ce:	48 8b 15 00 00 00 00 	mov    0x0(%rip),%rdx        # 4d5 <main+0x4d5>
     4d5:	be 00 00 00 00       	mov    $0x0,%esi
     4da:	31 ff                	xor    %edi,%edi
     4dc:	41 b8 01 00 00 00    	mov    $0x1,%r8d
     4e2:	b9 c0 d4 01 00       	mov    $0x1d4c0,%ecx
     4e7:	e8 00 00 00 00       	callq  4ec <main+0x4ec>
     4ec:	48 85 c0             	test   %rax,%rax
     4ef:	be 00 00 00 00       	mov    $0x0,%esi
     4f4:	0f 84 aa 05 00 00    	je     aa4 <main+0xaa4>
     4fa:	48 8b 15 00 00 00 00 	mov    0x0(%rip),%rdx        # 501 <main+0x501>
     501:	31 ff                	xor    %edi,%edi
     503:	41 b8 01 00 00 00    	mov    $0x1,%r8d
     509:	b9 88 13 00 00       	mov    $0x1388,%ecx
     50e:	be 00 00 00 00       	mov    $0x0,%esi
     513:	e8 00 00 00 00       	callq  518 <main+0x518>
     518:	48 85 c0             	test   %rax,%rax
     51b:	0f 84 7e 05 00 00    	je     a9f <main+0xa9f>
     521:	83 3d 00 00 00 00 00 	cmpl   $0x0,0x0(%rip)        # 528 <main+0x528>
     528:	7e 2c                	jle    556 <main+0x556>
     52a:	48 8b 15 00 00 00 00 	mov    0x0(%rip),%rdx        # 531 <main+0x531>
     531:	be 00 00 00 00       	mov    $0x0,%esi
     536:	31 ff                	xor    %edi,%edi
     538:	41 b8 01 00 00 00    	mov    $0x1,%r8d
     53e:	b9 d0 07 00 00       	mov    $0x7d0,%ecx
     543:	e8 00 00 00 00       	callq  548 <main+0x548>
     548:	48 85 c0             	test   %rax,%rax
     54b:	be 00 00 00 00       	mov    $0x0,%esi
     550:	0f 84 4e 05 00 00    	je     aa4 <main+0xaa4>
     556:	48 8b 15 00 00 00 00 	mov    0x0(%rip),%rdx        # 55d <main+0x55d>
     55d:	be 00 00 00 00       	mov    $0x0,%esi
     562:	31 ff                	xor    %edi,%edi
     564:	41 b8 01 00 00 00    	mov    $0x1,%r8d
     56a:	b9 80 ee 36 00       	mov    $0x36ee80,%ecx
     56f:	e8 00 00 00 00       	callq  574 <main+0x574>
     574:	48 85 c0             	test   %rax,%rax
     577:	be 00 00 00 00       	mov    $0x0,%esi
     57c:	0f 84 22 05 00 00    	je     aa4 <main+0xaa4>
     582:	31 ff                	xor    %edi,%edi
     584:	e8 00 00 00 00       	callq  589 <main+0x589>
     589:	48 c7 05 00 00 00 00 	movq   $0x0,0x0(%rip)        # 594 <main+0x594>
     590:	00 00 00 00 
     594:	48 89 05 00 00 00 00 	mov    %rax,0x0(%rip)        # 59b <main+0x59b>
     59b:	48 89 05 00 00 00 00 	mov    %rax,0x0(%rip)        # 5a2 <main+0x5a2>
     5a2:	48 c7 05 00 00 00 00 	movq   $0x0,0x0(%rip)        # 5ad <main+0x5ad>
     5a9:	00 00 00 00 
     5ad:	c7 05 00 00 00 00 00 	movl   $0x0,0x0(%rip)        # 5b7 <main+0x5b7>
     5b4:	00 00 00 
     5b7:	e8 00 00 00 00       	callq  5bc <main+0x5bc>
     5bc:	85 c0                	test   %eax,%eax
     5be:	0f 84 60 04 00 00    	je     a24 <main+0xa24>
     5c4:	4c 63 25 00 00 00 00 	movslq 0x0(%rip),%r12        # 5cb <main+0x5cb>
     5cb:	4c 89 e3             	mov    %r12,%rbx
     5ce:	4d 69 e4 90 00 00 00 	imul   $0x90,%r12,%r12
     5d5:	4c 89 e7             	mov    %r12,%rdi
     5d8:	e8 00 00 00 00       	callq  5dd <main+0x5dd>
     5dd:	48 85 c0             	test   %rax,%rax
     5e0:	48 89 05 00 00 00 00 	mov    %rax,0x0(%rip)        # 5e7 <main+0x5e7>
     5e7:	0f 84 c5 09 00 00    	je     fb2 <main+0xfb2>
     5ed:	31 c9                	xor    %ecx,%ecx
     5ef:	85 db                	test   %ebx,%ebx
     5f1:	48 89 c2             	mov    %rax,%rdx
     5f4:	0f 8e 84 00 00 00    	jle    67e <main+0x67e>
     5fa:	66 0f 1f 44 00 00    	nopw   0x0(%rax,%rax,1)
     600:	48 89 d6             	mov    %rdx,%rsi
     603:	48 c1 ee 03          	shr    $0x3,%rsi
     607:	0f b6 b6 00 80 ff 7f 	movzbl 0x7fff8000(%rsi),%esi
     60e:	40 84 f6             	test   %sil,%sil
     611:	74 0a                	je     61d <main+0x61d>
     613:	40 80 fe 03          	cmp    $0x3,%sil
     617:	0f 8e 69 0a 00 00    	jle    1086 <main+0x1086>
     61d:	48 8d 7a 04          	lea    0x4(%rdx),%rdi
     621:	83 c1 01             	add    $0x1,%ecx
     624:	c7 02 00 00 00 00    	movl   $0x0,(%rdx)
     62a:	48 89 fe             	mov    %rdi,%rsi
     62d:	48 c1 ee 03          	shr    $0x3,%rsi
     631:	44 0f b6 86 00 80 ff 	movzbl 0x7fff8000(%rsi),%r8d
     638:	7f 
     639:	48 89 fe             	mov    %rdi,%rsi
     63c:	83 e6 07             	and    $0x7,%esi
     63f:	83 c6 03             	add    $0x3,%esi
     642:	44 38 c6             	cmp    %r8b,%sil
     645:	7c 09                	jl     650 <main+0x650>
     647:	45 84 c0             	test   %r8b,%r8b
     64a:	0f 85 31 0a 00 00    	jne    1081 <main+0x1081>
     650:	48 8d 7a 08          	lea    0x8(%rdx),%rdi
     654:	89 4a 04             	mov    %ecx,0x4(%rdx)
     657:	48 89 fe             	mov    %rdi,%rsi
     65a:	48 c1 ee 03          	shr    $0x3,%rsi
     65e:	80 be 00 80 ff 7f 00 	cmpb   $0x0,0x7fff8000(%rsi)
     665:	0f 85 9a 09 00 00    	jne    1005 <main+0x1005>
     66b:	48 c7 42 08 00 00 00 	movq   $0x0,0x8(%rdx)
     672:	00 
     673:	48 81 c2 90 00 00 00 	add    $0x90,%rdx
     67a:	39 cb                	cmp    %ecx,%ebx
     67c:	75 82                	jne    600 <main+0x600>
     67e:	4a 8d 94 20 70 ff ff 	lea    -0x90(%rax,%r12,1),%rdx
     685:	ff 
     686:	48 8d 7a 04          	lea    0x4(%rdx),%rdi
     68a:	48 89 f8             	mov    %rdi,%rax
     68d:	48 c1 e8 03          	shr    $0x3,%rax
     691:	0f b6 88 00 80 ff 7f 	movzbl 0x7fff8000(%rax),%ecx
     698:	48 89 f8             	mov    %rdi,%rax
     69b:	83 e0 07             	and    $0x7,%eax
     69e:	83 c0 03             	add    $0x3,%eax
     6a1:	38 c8                	cmp    %cl,%al
     6a3:	7c 08                	jl     6ad <main+0x6ad>
     6a5:	84 c9                	test   %cl,%cl
     6a7:	0f 85 53 09 00 00    	jne    1000 <main+0x1000>
     6ad:	48 8b 05 00 00 00 00 	mov    0x0(%rip),%rax        # 6b4 <main+0x6b4>
     6b4:	c7 42 04 ff ff ff ff 	movl   $0xffffffff,0x4(%rdx)
     6bb:	c7 05 00 00 00 00 00 	movl   $0x0,0x0(%rip)        # 6c5 <main+0x6c5>
     6c2:	00 00 00 
     6c5:	c7 05 00 00 00 00 00 	movl   $0x0,0x0(%rip)        # 6cf <main+0x6cf>
     6cc:	00 00 00 
     6cf:	c7 05 00 00 00 00 00 	movl   $0x0,0x0(%rip)        # 6d9 <main+0x6d9>
     6d6:	00 00 00 
     6d9:	48 85 c0             	test   %rax,%rax
     6dc:	74 6f                	je     74d <main+0x74d>
     6de:	48 8d 78 48          	lea    0x48(%rax),%rdi
     6e2:	48 89 fa             	mov    %rdi,%rdx
     6e5:	48 c1 ea 03          	shr    $0x3,%rdx
     6e9:	0f b6 92 00 80 ff 7f 	movzbl 0x7fff8000(%rdx),%edx
     6f0:	84 d2                	test   %dl,%dl
     6f2:	74 09                	je     6fd <main+0x6fd>
     6f4:	80 fa 03             	cmp    $0x3,%dl
     6f7:	0f 8e fe 08 00 00    	jle    ffb <main+0xffb>
     6fd:	8b 78 48             	mov    0x48(%rax),%edi
     700:	83 ff ff             	cmp    $0xffffffff,%edi
     703:	74 10                	je     715 <main+0x715>
     705:	31 d2                	xor    %edx,%edx
     707:	31 f6                	xor    %esi,%esi
     709:	e8 00 00 00 00       	callq  70e <main+0x70e>
     70e:	48 8b 05 00 00 00 00 	mov    0x0(%rip),%rax        # 715 <main+0x715>
     715:	48 8d 78 4c          	lea    0x4c(%rax),%rdi
     719:	48 89 fa             	mov    %rdi,%rdx
     71c:	48 c1 ea 03          	shr    $0x3,%rdx
     720:	0f b6 8a 00 80 ff 7f 	movzbl 0x7fff8000(%rdx),%ecx
     727:	48 89 fa             	mov    %rdi,%rdx
     72a:	83 e2 07             	and    $0x7,%edx
     72d:	83 c2 03             	add    $0x3,%edx
     730:	38 ca                	cmp    %cl,%dl
     732:	7c 08                	jl     73c <main+0x73c>
     734:	84 c9                	test   %cl,%cl
     736:	0f 85 ba 08 00 00    	jne    ff6 <main+0xff6>
     73c:	8b 78 4c             	mov    0x4c(%rax),%edi
     73f:	83 ff ff             	cmp    $0xffffffff,%edi
     742:	74 09                	je     74d <main+0x74d>
     744:	31 d2                	xor    %edx,%edx
     746:	31 f6                	xor    %esi,%esi
     748:	e8 00 00 00 00       	callq  74d <main+0x74d>
     74d:	48 81 ed c0 11 00 00 	sub    $0x11c0,%rbp
     754:	48 89 ef             	mov    %rbp,%rdi
     757:	e8 00 00 00 00       	callq  75c <main+0x75c>
     75c:	0f 1f 40 00          	nopl   0x0(%rax)
     760:	8b 05 00 00 00 00    	mov    0x0(%rip),%eax        # 766 <main+0x766>
     766:	85 c0                	test   %eax,%eax
     768:	74 0d                	je     777 <main+0x777>
     76a:	83 3d 00 00 00 00 00 	cmpl   $0x0,0x0(%rip)        # 771 <main+0x771>
     771:	0f 8e 8e 07 00 00    	jle    f05 <main+0xf05>
     777:	8b 05 00 00 00 00    	mov    0x0(%rip),%eax        # 77d <main+0x77d>
     77d:	85 c0                	test   %eax,%eax
     77f:	0f 85 1f 04 00 00    	jne    ba4 <main+0xba4>
     785:	48 89 ef             	mov    %rbp,%rdi
     788:	e8 00 00 00 00       	callq  78d <main+0x78d>
     78d:	48 89 c7             	mov    %rax,%rdi
     790:	e8 00 00 00 00       	callq  795 <main+0x795>
     795:	85 c0                	test   %eax,%eax
     797:	89 c3                	mov    %eax,%ebx
     799:	0f 88 62 01 00 00    	js     901 <main+0x901>
     79f:	48 89 ef             	mov    %rbp,%rdi
     7a2:	e8 00 00 00 00       	callq  7a7 <main+0x7a7>
     7a7:	85 db                	test   %ebx,%ebx
     7a9:	0f 84 18 04 00 00    	je     bc7 <main+0xbc7>
     7af:	48 8b 05 00 00 00 00 	mov    0x0(%rip),%rax        # 7b6 <main+0x7b6>
     7b6:	48 85 c0             	test   %rax,%rax
     7b9:	0f 84 81 00 00 00    	je     840 <main+0x840>
     7bf:	48 8d 78 4c          	lea    0x4c(%rax),%rdi
     7c3:	48 89 fa             	mov    %rdi,%rdx
     7c6:	48 c1 ea 03          	shr    $0x3,%rdx
     7ca:	0f b6 8a 00 80 ff 7f 	movzbl 0x7fff8000(%rdx),%ecx
     7d1:	48 89 fa             	mov    %rdi,%rdx
     7d4:	83 e2 07             	and    $0x7,%edx
     7d7:	83 c2 03             	add    $0x3,%edx
     7da:	38 ca                	cmp    %cl,%dl
     7dc:	7c 08                	jl     7e6 <main+0x7e6>
     7de:	84 c9                	test   %cl,%cl
     7e0:	0f 85 3b 08 00 00    	jne    1021 <main+0x1021>
     7e6:	8b 78 4c             	mov    0x4c(%rax),%edi
     7e9:	83 ff ff             	cmp    $0xffffffff,%edi
     7ec:	74 19                	je     807 <main+0x807>
     7ee:	e8 00 00 00 00       	callq  7f3 <main+0x7f3>
     7f3:	85 c0                	test   %eax,%eax
     7f5:	0f 85 57 06 00 00    	jne    e52 <main+0xe52>
     7fb:	48 8b 05 00 00 00 00 	mov    0x0(%rip),%rax        # 802 <main+0x802>
     802:	48 85 c0             	test   %rax,%rax
     805:	74 39                	je     840 <main+0x840>
     807:	48 8d 78 48          	lea    0x48(%rax),%rdi
     80b:	48 89 fa             	mov    %rdi,%rdx
     80e:	48 c1 ea 03          	shr    $0x3,%rdx
     812:	0f b6 92 00 80 ff 7f 	movzbl 0x7fff8000(%rdx),%edx
     819:	84 d2                	test   %dl,%dl
     81b:	74 09                	je     826 <main+0x826>
     81d:	80 fa 03             	cmp    $0x3,%dl
     820:	0f 8e c1 07 00 00    	jle    fe7 <main+0xfe7>
     826:	8b 78 48             	mov    0x48(%rax),%edi
     829:	83 ff ff             	cmp    $0xffffffff,%edi
     82c:	74 12                	je     840 <main+0x840>
     82e:	e8 00 00 00 00       	callq  833 <main+0x833>
     833:	85 c0                	test   %eax,%eax
     835:	0f 85 5d 06 00 00    	jne    e98 <main+0xe98>
     83b:	0f 1f 44 00 00       	nopl   0x0(%rax,%rax,1)
     840:	e8 00 00 00 00       	callq  845 <main+0x845>
     845:	48 83 f8 ff          	cmp    $0xffffffffffffffff,%rax
     849:	48 89 c3             	mov    %rax,%rbx
     84c:	0f 84 9b 02 00 00    	je     aed <main+0xaed>
     852:	48 85 db             	test   %rbx,%rbx
     855:	74 e9                	je     840 <main+0x840>
     857:	48 8d 7b 08          	lea    0x8(%rbx),%rdi
     85b:	48 89 f8             	mov    %rdi,%rax
     85e:	48 c1 e8 03          	shr    $0x3,%rax
     862:	80 b8 00 80 ff 7f 00 	cmpb   $0x0,0x7fff8000(%rax)
     869:	0f 85 a0 07 00 00    	jne    100f <main+0x100f>
     86f:	48 8b 43 08          	mov    0x8(%rbx),%rax
     873:	48 8d b8 c0 02 00 00 	lea    0x2c0(%rax),%rdi
     87a:	48 89 fa             	mov    %rdi,%rdx
     87d:	48 c1 ea 03          	shr    $0x3,%rdx
     881:	0f b6 92 00 80 ff 7f 	movzbl 0x7fff8000(%rdx),%edx
     888:	84 d2                	test   %dl,%dl
     88a:	74 09                	je     895 <main+0x895>
     88c:	80 fa 03             	cmp    $0x3,%dl
     88f:	0f 8e 87 07 00 00    	jle    101c <main+0x101c>
     895:	8b b8 c0 02 00 00    	mov    0x2c0(%rax),%edi
     89b:	e8 00 00 00 00       	callq  8a0 <main+0x8a0>
     8a0:	85 c0                	test   %eax,%eax
     8a2:	0f 84 15 02 00 00    	je     abd <main+0xabd>
     8a8:	48 89 d8             	mov    %rbx,%rax
     8ab:	48 c1 e8 03          	shr    $0x3,%rax
     8af:	0f b6 80 00 80 ff 7f 	movzbl 0x7fff8000(%rax),%eax
     8b6:	84 c0                	test   %al,%al
     8b8:	74 08                	je     8c2 <main+0x8c2>
     8ba:	3c 03                	cmp    $0x3,%al
     8bc:	0f 8e 52 07 00 00    	jle    1014 <main+0x1014>
     8c2:	8b 03                	mov    (%rbx),%eax
     8c4:	83 f8 02             	cmp    $0x2,%eax
     8c7:	0f 84 00 02 00 00    	je     acd <main+0xacd>
     8cd:	83 f8 04             	cmp    $0x4,%eax
     8d0:	0f 84 07 02 00 00    	je     add <main+0xadd>
     8d6:	83 f8 01             	cmp    $0x1,%eax
     8d9:	0f 85 61 ff ff ff    	jne    840 <main+0x840>
     8df:	48 89 ee             	mov    %rbp,%rsi
     8e2:	48 89 df             	mov    %rbx,%rdi
     8e5:	e8 00 00 00 00       	callq  8ea <main+0x8ea>
     8ea:	e9 51 ff ff ff       	jmpq   840 <main+0x840>
     8ef:	c7 05 00 00 00 00 01 	movl   $0x1,0x0(%rip)        # 8f9 <main+0x8f9>
     8f6:	00 00 00 
     8f9:	45 31 ff             	xor    %r15d,%r15d
     8fc:	e9 f0 f8 ff ff       	jmpq   1f1 <main+0x1f1>
     901:	e8 00 00 00 00       	callq  906 <main+0x906>
     906:	48 89 c2             	mov    %rax,%rdx
     909:	48 c1 ea 03          	shr    $0x3,%rdx
     90d:	0f b6 8a 00 80 ff 7f 	movzbl 0x7fff8000(%rdx),%ecx
     914:	48 89 c2             	mov    %rax,%rdx
     917:	83 e2 07             	and    $0x7,%edx
     91a:	83 c2 03             	add    $0x3,%edx
     91d:	38 ca                	cmp    %cl,%dl
     91f:	7c 08                	jl     929 <main+0x929>
     921:	84 c9                	test   %cl,%cl
     923:	0f 85 02 07 00 00    	jne    102b <main+0x102b>
     929:	8b 00                	mov    (%rax),%eax
     92b:	83 f8 04             	cmp    $0x4,%eax
     92e:	0f 84 2c fe ff ff    	je     760 <main+0x760>
     934:	83 f8 0b             	cmp    $0xb,%eax
     937:	0f 84 23 fe ff ff    	je     760 <main+0x760>
     93d:	be 00 00 00 00       	mov    $0x0,%esi
     942:	bf 03 00 00 00       	mov    $0x3,%edi
     947:	31 c0                	xor    %eax,%eax
     949:	e8 00 00 00 00       	callq  94e <main+0x94e>
     94e:	e8 00 00 00 00       	callq  953 <main+0x953>
     953:	bf 01 00 00 00       	mov    $0x1,%edi
     958:	e8 00 00 00 00       	callq  95d <main+0x95d>
     95d:	e8 00 00 00 00       	callq  962 <main+0x962>
     962:	e9 9a f9 ff ff       	jmpq   301 <main+0x301>
     967:	48 8b 3d 00 00 00 00 	mov    0x0(%rip),%rdi        # 96e <main+0x96e>
     96e:	e8 00 00 00 00       	callq  973 <main+0x973>
     973:	48 85 c0             	test   %rax,%rax
     976:	0f 84 da 05 00 00    	je     f56 <main+0xf56>
     97c:	48 8d 78 10          	lea    0x10(%rax),%rdi
     980:	48 89 fa             	mov    %rdi,%rdx
     983:	48 c1 ea 03          	shr    $0x3,%rdx
     987:	0f b6 92 00 80 ff 7f 	movzbl 0x7fff8000(%rdx),%edx
     98e:	84 d2                	test   %dl,%dl
     990:	74 09                	je     99b <main+0x99b>
     992:	80 fa 03             	cmp    $0x3,%dl
     995:	0f 8e f3 06 00 00    	jle    108e <main+0x108e>
     99b:	48 8d 78 14          	lea    0x14(%rax),%rdi
     99f:	8b 48 10             	mov    0x10(%rax),%ecx
     9a2:	48 89 fa             	mov    %rdi,%rdx
     9a5:	48 c1 ea 03          	shr    $0x3,%rdx
     9a9:	89 4c 24 04          	mov    %ecx,0x4(%rsp)
     9ad:	0f b6 8a 00 80 ff 7f 	movzbl 0x7fff8000(%rdx),%ecx
     9b4:	48 89 fa             	mov    %rdi,%rdx
     9b7:	83 e2 07             	and    $0x7,%edx
     9ba:	83 c2 03             	add    $0x3,%edx
     9bd:	38 ca                	cmp    %cl,%dl
     9bf:	7c 08                	jl     9c9 <main+0x9c9>
     9c1:	84 c9                	test   %cl,%cl
     9c3:	0f 85 95 06 00 00    	jne    105e <main+0x105e>
     9c9:	8b 40 14             	mov    0x14(%rax),%eax
     9cc:	89 04 24             	mov    %eax,(%rsp)
     9cf:	e9 c6 f7 ff ff       	jmpq   19a <main+0x19a>
     9d4:	31 c0                	xor    %eax,%eax
     9d6:	be 00 00 00 00       	mov    $0x0,%esi
     9db:	bf 03 00 00 00       	mov    $0x3,%edi
     9e0:	e8 00 00 00 00       	callq  9e5 <main+0x9e5>
     9e5:	b8 00 00 00 00       	mov    $0x0,%eax
     9ea:	48 8b 15 00 00 00 00 	mov    0x0(%rip),%rdx        # 9f1 <main+0x9f1>
     9f1:	48 c1 e8 03          	shr    $0x3,%rax
     9f5:	80 b8 00 80 ff 7f 00 	cmpb   $0x0,0x7fff8000(%rax)
     9fc:	0f 85 61 06 00 00    	jne    1063 <main+0x1063>
     a02:	48 8b 3d 00 00 00 00 	mov    0x0(%rip),%rdi        # a09 <main+0xa09>
     a09:	be 00 00 00 00       	mov    $0x0,%esi
     a0e:	31 c0                	xor    %eax,%eax
     a10:	e8 00 00 00 00       	callq  a15 <main+0xa15>
     a15:	e8 00 00 00 00       	callq  a1a <main+0xa1a>
     a1a:	bf 01 00 00 00       	mov    $0x1,%edi
     a1f:	e8 00 00 00 00       	callq  a24 <main+0xa24>
     a24:	31 f6                	xor    %esi,%esi
     a26:	31 ff                	xor    %edi,%edi
     a28:	e8 00 00 00 00       	callq  a2d <main+0xa2d>
     a2d:	85 c0                	test   %eax,%eax
     a2f:	be 00 00 00 00       	mov    $0x0,%esi
     a34:	0f 88 83 01 00 00    	js     bbd <main+0xbbd>
     a3a:	8b 3c 24             	mov    (%rsp),%edi
     a3d:	e8 00 00 00 00       	callq  a42 <main+0xa42>
     a42:	85 c0                	test   %eax,%eax
     a44:	be 00 00 00 00       	mov    $0x0,%esi
     a49:	0f 88 6e 01 00 00    	js     bbd <main+0xbbd>
     a4f:	8b 34 24             	mov    (%rsp),%esi
     a52:	48 8b 3d 00 00 00 00 	mov    0x0(%rip),%rdi        # a59 <main+0xa59>
     a59:	e8 00 00 00 00       	callq  a5e <main+0xa5e>
     a5e:	85 c0                	test   %eax,%eax
     a60:	0f 88 56 05 00 00    	js     fbc <main+0xfbc>
     a66:	8b 7c 24 04          	mov    0x4(%rsp),%edi
     a6a:	e8 00 00 00 00       	callq  a6f <main+0xa6f>
     a6f:	85 c0                	test   %eax,%eax
     a71:	be 00 00 00 00       	mov    $0x0,%esi
     a76:	0f 88 41 01 00 00    	js     bbd <main+0xbbd>
     a7c:	83 3d 00 00 00 00 00 	cmpl   $0x0,0x0(%rip)        # a83 <main+0xa83>
     a83:	0f 85 3b fb ff ff    	jne    5c4 <main+0x5c4>
     a89:	be 00 00 00 00       	mov    $0x0,%esi
     a8e:	bf 04 00 00 00       	mov    $0x4,%edi
     a93:	31 c0                	xor    %eax,%eax
     a95:	e8 00 00 00 00       	callq  a9a <main+0xa9a>
     a9a:	e9 25 fb ff ff       	jmpq   5c4 <main+0x5c4>
     a9f:	be 00 00 00 00       	mov    $0x0,%esi
     aa4:	bf 02 00 00 00       	mov    $0x2,%edi
     aa9:	e8 00 00 00 00       	callq  aae <main+0xaae>
     aae:	e8 00 00 00 00       	callq  ab3 <main+0xab3>
     ab3:	bf 01 00 00 00       	mov    $0x1,%edi
     ab8:	e8 00 00 00 00       	callq  abd <main+0xabd>
     abd:	48 89 ee             	mov    %rbp,%rsi
     ac0:	48 89 df             	mov    %rbx,%rdi
     ac3:	e8 00 00 00 00       	callq  ac8 <main+0xac8>
     ac8:	e9 73 fd ff ff       	jmpq   840 <main+0x840>
     acd:	48 89 ee             	mov    %rbp,%rsi
     ad0:	48 89 df             	mov    %rbx,%rdi
     ad3:	e8 00 00 00 00       	callq  ad8 <main+0xad8>
     ad8:	e9 63 fd ff ff       	jmpq   840 <main+0x840>
     add:	48 89 ee             	mov    %rbp,%rsi
     ae0:	48 89 df             	mov    %rbx,%rdi
     ae3:	e8 00 00 00 00       	callq  ae8 <main+0xae8>
     ae8:	e9 53 fd ff ff       	jmpq   840 <main+0x840>
     aed:	48 89 ef             	mov    %rbp,%rdi
     af0:	e8 00 00 00 00       	callq  af5 <main+0xaf5>
     af5:	8b 05 00 00 00 00    	mov    0x0(%rip),%eax        # afb <main+0xafb>
     afb:	85 c0                	test   %eax,%eax
     afd:	0f 84 5d fc ff ff    	je     760 <main+0x760>
     b03:	83 3d 00 00 00 00 00 	cmpl   $0x0,0x0(%rip)        # b0a <main+0xb0a>
     b0a:	0f 85 50 fc ff ff    	jne    760 <main+0x760>
     b10:	48 8b 05 00 00 00 00 	mov    0x0(%rip),%rax        # b17 <main+0xb17>
     b17:	c7 05 00 00 00 00 01 	movl   $0x1,0x0(%rip)        # b21 <main+0xb21>
     b1e:	00 00 00 
     b21:	48 85 c0             	test   %rax,%rax
     b24:	0f 84 36 fc ff ff    	je     760 <main+0x760>
     b2a:	48 8d 78 48          	lea    0x48(%rax),%rdi
     b2e:	48 89 fa             	mov    %rdi,%rdx
     b31:	48 c1 ea 03          	shr    $0x3,%rdx
     b35:	0f b6 92 00 80 ff 7f 	movzbl 0x7fff8000(%rdx),%edx
     b3c:	84 d2                	test   %dl,%dl
     b3e:	74 0a                	je     b4a <main+0xb4a>
     b40:	80 fa 03             	cmp    $0x3,%dl
     b43:	7f 05                	jg     b4a <main+0xb4a>
     b45:	e8 00 00 00 00       	callq  b4a <main+0xb4a>
     b4a:	8b 78 48             	mov    0x48(%rax),%edi
     b4d:	83 ff ff             	cmp    $0xffffffff,%edi
     b50:	74 0c                	je     b5e <main+0xb5e>
     b52:	e8 00 00 00 00       	callq  b57 <main+0xb57>
     b57:	48 8b 05 00 00 00 00 	mov    0x0(%rip),%rax        # b5e <main+0xb5e>
     b5e:	48 8d 78 4c          	lea    0x4c(%rax),%rdi
     b62:	48 89 fa             	mov    %rdi,%rdx
     b65:	48 c1 ea 03          	shr    $0x3,%rdx
     b69:	0f b6 8a 00 80 ff 7f 	movzbl 0x7fff8000(%rdx),%ecx
     b70:	48 89 fa             	mov    %rdi,%rdx
     b73:	83 e2 07             	and    $0x7,%edx
     b76:	83 c2 03             	add    $0x3,%edx
     b79:	38 ca                	cmp    %cl,%dl
     b7b:	7c 09                	jl     b86 <main+0xb86>
     b7d:	84 c9                	test   %cl,%cl
     b7f:	74 05                	je     b86 <main+0xb86>
     b81:	e8 00 00 00 00       	callq  b86 <main+0xb86>
     b86:	8b 78 4c             	mov    0x4c(%rax),%edi
     b89:	83 ff ff             	cmp    $0xffffffff,%edi
     b8c:	74 05                	je     b93 <main+0xb93>
     b8e:	e8 00 00 00 00       	callq  b93 <main+0xb93>
     b93:	48 8b 3d 00 00 00 00 	mov    0x0(%rip),%rdi        # b9a <main+0xb9a>
     b9a:	e8 00 00 00 00       	callq  b9f <main+0xb9f>
     b9f:	e9 bc fb ff ff       	jmpq   760 <main+0x760>
     ba4:	e8 00 00 00 00       	callq  ba9 <main+0xba9>
     ba9:	c7 05 00 00 00 00 00 	movl   $0x0,0x0(%rip)        # bb3 <main+0xbb3>
     bb0:	00 00 00 
     bb3:	e9 cd fb ff ff       	jmpq   785 <main+0x785>
     bb8:	be 00 00 00 00       	mov    $0x0,%esi
     bbd:	bf 02 00 00 00       	mov    $0x2,%edi
     bc2:	e9 80 fd ff ff       	jmpq   947 <main+0x947>
     bc7:	48 89 ef             	mov    %rbp,%rdi
     bca:	e8 00 00 00 00       	callq  bcf <main+0xbcf>
     bcf:	e9 8c fb ff ff       	jmpq   760 <main+0x760>
     bd4:	4c 89 e7             	mov    %r12,%rdi
     bd7:	e8 00 00 00 00       	callq  bdc <main+0xbdc>
     bdc:	85 c0                	test   %eax,%eax
     bde:	0f 88 48 03 00 00    	js     f2c <main+0xf2c>
     be4:	4c 8b 35 00 00 00 00 	mov    0x0(%rip),%r14        # beb <main+0xbeb>
     beb:	4d 85 f6             	test   %r14,%r14
     bee:	74 75                	je     c65 <main+0xc65>
     bf0:	be 00 00 00 00       	mov    $0x0,%esi
     bf5:	4c 89 f7             	mov    %r14,%rdi
     bf8:	e8 00 00 00 00       	callq  bfd <main+0xbfd>
     bfd:	85 c0                	test   %eax,%eax
     bff:	74 64                	je     c65 <main+0xc65>
     c01:	4c 89 e7             	mov    %r12,%rdi
     c04:	e8 00 00 00 00       	callq  c09 <main+0xc09>
     c09:	4c 89 e6             	mov    %r12,%rsi
     c0c:	48 89 c2             	mov    %rax,%rdx
     c0f:	4c 89 f7             	mov    %r14,%rdi
     c12:	48 89 44 24 08       	mov    %rax,0x8(%rsp)
     c17:	e8 00 00 00 00       	callq  c1c <main+0xc1c>
     c1c:	85 c0                	test   %eax,%eax
     c1e:	0f 84 17 02 00 00    	je     e3b <main+0xe3b>
     c24:	31 c0                	xor    %eax,%eax
     c26:	be 00 00 00 00       	mov    $0x0,%esi
     c2b:	bf 04 00 00 00       	mov    $0x4,%edi
     c30:	e8 00 00 00 00       	callq  c35 <main+0xc35>
     c35:	b8 00 00 00 00       	mov    $0x0,%eax
     c3a:	48 8b 15 00 00 00 00 	mov    0x0(%rip),%rdx        # c41 <main+0xc41>
     c41:	48 c1 e8 03          	shr    $0x3,%rax
     c45:	80 b8 00 80 ff 7f 00 	cmpb   $0x0,0x7fff8000(%rax)
     c4c:	0f 85 e1 03 00 00    	jne    1033 <main+0x1033>
     c52:	48 8b 3d 00 00 00 00 	mov    0x0(%rip),%rdi        # c59 <main+0xc59>
     c59:	be 00 00 00 00       	mov    $0x0,%esi
     c5e:	31 c0                	xor    %eax,%eax
     c60:	e8 00 00 00 00       	callq  c65 <main+0xc65>
     c65:	ba 02 00 00 00       	mov    $0x2,%edx
     c6a:	be 00 00 00 00       	mov    $0x0,%esi
     c6f:	4c 89 e7             	mov    %r12,%rdi
     c72:	e8 00 00 00 00       	callq  c77 <main+0xc77>
     c77:	4c 89 e7             	mov    %r12,%rdi
     c7a:	e8 00 00 00 00       	callq  c7f <main+0xc7f>
     c7f:	85 c0                	test   %eax,%eax
     c81:	0f 89 e3 f6 ff ff    	jns    36a <main+0x36a>
     c87:	be 00 00 00 00       	mov    $0x0,%esi
     c8c:	31 c0                	xor    %eax,%eax
     c8e:	bf 02 00 00 00       	mov    $0x2,%edi
     c93:	e8 00 00 00 00       	callq  c98 <main+0xc98>
     c98:	bf 00 00 00 00       	mov    $0x0,%edi
     c9d:	e8 00 00 00 00       	callq  ca2 <main+0xca2>
     ca2:	e8 00 00 00 00       	callq  ca7 <main+0xca7>
     ca7:	bf 01 00 00 00       	mov    $0x1,%edi
     cac:	e8 00 00 00 00       	callq  cb1 <main+0xcb1>
     cb1:	45 31 ff             	xor    %r15d,%r15d
     cb4:	e9 38 f5 ff ff       	jmpq   1f1 <main+0x1f1>
     cb9:	4c 89 e7             	mov    %r12,%rdi
     cbc:	be 00 00 00 00       	mov    $0x0,%esi
     cc1:	e8 00 00 00 00       	callq  cc6 <main+0xcc6>
     cc6:	4c 8b 25 00 00 00 00 	mov    0x0(%rip),%r12        # ccd <main+0xccd>
     ccd:	49 89 c7             	mov    %rax,%r15
     cd0:	be 80 01 00 00       	mov    $0x180,%esi
     cd5:	4c 89 e7             	mov    %r12,%rdi
     cd8:	e8 00 00 00 00       	callq  cdd <main+0xcdd>
     cdd:	4d 85 ff             	test   %r15,%r15
     ce0:	0f 84 f0 01 00 00    	je     ed6 <main+0xed6>
     ce6:	85 c0                	test   %eax,%eax
     ce8:	0f 85 e8 01 00 00    	jne    ed6 <main+0xed6>
     cee:	4c 89 e0             	mov    %r12,%rax
     cf1:	4c 89 e2             	mov    %r12,%rdx
     cf4:	48 c1 e8 03          	shr    $0x3,%rax
     cf8:	83 e2 07             	and    $0x7,%edx
     cfb:	0f b6 80 00 80 ff 7f 	movzbl 0x7fff8000(%rax),%eax
     d02:	38 d0                	cmp    %dl,%al
     d04:	7f 0c                	jg     d12 <main+0xd12>
     d06:	84 c0                	test   %al,%al
     d08:	74 08                	je     d12 <main+0xd12>
     d0a:	4c 89 e7             	mov    %r12,%rdi
     d0d:	e8 00 00 00 00       	callq  d12 <main+0xd12>
     d12:	41 80 3c 24 2f       	cmpb   $0x2f,(%r12)
     d17:	74 41                	je     d5a <main+0xd5a>
     d19:	31 c0                	xor    %eax,%eax
     d1b:	be 00 00 00 00       	mov    $0x0,%esi
     d20:	bf 04 00 00 00       	mov    $0x4,%edi
     d25:	e8 00 00 00 00       	callq  d2a <main+0xd2a>
     d2a:	b8 00 00 00 00       	mov    $0x0,%eax
     d2f:	48 8b 15 00 00 00 00 	mov    0x0(%rip),%rdx        # d36 <main+0xd36>
     d36:	48 c1 e8 03          	shr    $0x3,%rax
     d3a:	80 b8 00 80 ff 7f 00 	cmpb   $0x0,0x7fff8000(%rax)
     d41:	0f 85 a5 02 00 00    	jne    fec <main+0xfec>
     d47:	48 8b 3d 00 00 00 00 	mov    0x0(%rip),%rdi        # d4e <main+0xd4e>
     d4e:	be 00 00 00 00       	mov    $0x0,%esi
     d53:	31 c0                	xor    %eax,%eax
     d55:	e8 00 00 00 00       	callq  d5a <main+0xd5a>
     d5a:	4c 89 ff             	mov    %r15,%rdi
     d5d:	e8 00 00 00 00       	callq  d62 <main+0xd62>
     d62:	ba 01 00 00 00       	mov    $0x1,%edx
     d67:	89 c7                	mov    %eax,%edi
     d69:	be 02 00 00 00       	mov    $0x2,%esi
     d6e:	31 c0                	xor    %eax,%eax
     d70:	e8 00 00 00 00       	callq  d75 <main+0xd75>
     d75:	e8 00 00 00 00       	callq  d7a <main+0xd7a>
     d7a:	85 c0                	test   %eax,%eax
     d7c:	0f 85 6f f4 ff ff    	jne    1f1 <main+0x1f1>
     d82:	4c 89 ff             	mov    %r15,%rdi
     d85:	e8 00 00 00 00       	callq  d8a <main+0xd8a>
     d8a:	8b 14 24             	mov    (%rsp),%edx
     d8d:	8b 74 24 04          	mov    0x4(%rsp),%esi
     d91:	89 c7                	mov    %eax,%edi
     d93:	e8 00 00 00 00       	callq  d98 <main+0xd98>
     d98:	85 c0                	test   %eax,%eax
     d9a:	0f 89 51 f4 ff ff    	jns    1f1 <main+0x1f1>
     da0:	be 00 00 00 00       	mov    $0x0,%esi
     da5:	bf 04 00 00 00       	mov    $0x4,%edi
     daa:	31 c0                	xor    %eax,%eax
     dac:	e8 00 00 00 00       	callq  db1 <main+0xdb1>
     db1:	bf 00 00 00 00       	mov    $0x0,%edi
     db6:	e8 00 00 00 00       	callq  dbb <main+0xdbb>
     dbb:	e9 31 f4 ff ff       	jmpq   1f1 <main+0x1f1>
     dc0:	be 00 00 00 00       	mov    $0x0,%esi
     dc5:	31 c0                	xor    %eax,%eax
     dc7:	bf 02 00 00 00       	mov    $0x2,%edi
     dcc:	e8 00 00 00 00       	callq  dd1 <main+0xdd1>
     dd1:	bf 00 00 00 00       	mov    $0x0,%edi
     dd6:	e8 00 00 00 00       	callq  ddb <main+0xddb>
     ddb:	e8 00 00 00 00       	callq  de0 <main+0xde0>
     de0:	bf 01 00 00 00       	mov    $0x1,%edi
     de5:	e8 00 00 00 00       	callq  dea <main+0xdea>
     dea:	48 8b 15 00 00 00 00 	mov    0x0(%rip),%rdx        # df1 <main+0xdf1>
     df1:	bf 02 00 00 00       	mov    $0x2,%edi
     df6:	be 00 00 00 00       	mov    $0x0,%esi
     dfb:	31 c0                	xor    %eax,%eax
     dfd:	e8 00 00 00 00       	callq  e02 <main+0xe02>
     e02:	e8 00 00 00 00       	callq  e07 <main+0xe07>
     e07:	bf 01 00 00 00       	mov    $0x1,%edi
     e0c:	e8 00 00 00 00       	callq  e11 <main+0xe11>
     e11:	be 00 00 00 00       	mov    $0x0,%esi
     e16:	31 c0                	xor    %eax,%eax
     e18:	bf 02 00 00 00       	mov    $0x2,%edi
     e1d:	e8 00 00 00 00       	callq  e22 <main+0xe22>
     e22:	bf 00 00 00 00       	mov    $0x0,%edi
     e27:	e8 00 00 00 00       	callq  e2c <main+0xe2c>
     e2c:	e8 00 00 00 00       	callq  e31 <main+0xe31>
     e31:	bf 01 00 00 00       	mov    $0x1,%edi
     e36:	e8 00 00 00 00       	callq  e3b <main+0xe3b>
     e3b:	48 8b 4c 24 08       	mov    0x8(%rsp),%rcx
     e40:	4c 89 f7             	mov    %r14,%rdi
     e43:	49 8d 74 0e ff       	lea    -0x1(%r14,%rcx,1),%rsi
     e48:	e8 00 00 00 00       	callq  e4d <main+0xe4d>
     e4d:	e9 13 fe ff ff       	jmpq   c65 <main+0xc65>
     e52:	48 8b 15 00 00 00 00 	mov    0x0(%rip),%rdx        # e59 <main+0xe59>
     e59:	48 8d 7a 4c          	lea    0x4c(%rdx),%rdi
     e5d:	48 89 f8             	mov    %rdi,%rax
     e60:	48 c1 e8 03          	shr    $0x3,%rax
     e64:	0f b6 88 00 80 ff 7f 	movzbl 0x7fff8000(%rax),%ecx
     e6b:	48 89 f8             	mov    %rdi,%rax
     e6e:	83 e0 07             	and    $0x7,%eax
     e71:	83 c0 03             	add    $0x3,%eax
     e74:	38 c8                	cmp    %cl,%al
     e76:	7c 08                	jl     e80 <main+0xe80>
     e78:	84 c9                	test   %cl,%cl
     e7a:	0f 85 8a 01 00 00    	jne    100a <main+0x100a>
     e80:	8b 72 4c             	mov    0x4c(%rdx),%esi
     e83:	48 89 ef             	mov    %rbp,%rdi
     e86:	e8 00 00 00 00       	callq  e8b <main+0xe8b>
     e8b:	85 c0                	test   %eax,%eax
     e8d:	0f 85 cd f8 ff ff    	jne    760 <main+0x760>
     e93:	e9 63 f9 ff ff       	jmpq   7fb <main+0x7fb>
     e98:	48 8b 05 00 00 00 00 	mov    0x0(%rip),%rax        # e9f <main+0xe9f>
     e9f:	48 8d 78 48          	lea    0x48(%rax),%rdi
     ea3:	48 89 fa             	mov    %rdi,%rdx
     ea6:	48 c1 ea 03          	shr    $0x3,%rdx
     eaa:	0f b6 92 00 80 ff 7f 	movzbl 0x7fff8000(%rdx),%edx
     eb1:	84 d2                	test   %dl,%dl
     eb3:	74 09                	je     ebe <main+0xebe>
     eb5:	80 fa 03             	cmp    $0x3,%dl
     eb8:	0f 8e 68 01 00 00    	jle    1026 <main+0x1026>
     ebe:	8b 70 48             	mov    0x48(%rax),%esi
     ec1:	48 89 ef             	mov    %rbp,%rdi
     ec4:	e8 00 00 00 00       	callq  ec9 <main+0xec9>
     ec9:	85 c0                	test   %eax,%eax
     ecb:	0f 85 8f f8 ff ff    	jne    760 <main+0x760>
     ed1:	e9 6a f9 ff ff       	jmpq   840 <main+0x840>
     ed6:	4c 89 e2             	mov    %r12,%rdx
     ed9:	be 00 00 00 00       	mov    $0x0,%esi
     ede:	31 c0                	xor    %eax,%eax
     ee0:	bf 02 00 00 00       	mov    $0x2,%edi
     ee5:	e8 00 00 00 00       	callq  eea <main+0xeea>
     eea:	48 8b 3d 00 00 00 00 	mov    0x0(%rip),%rdi        # ef1 <main+0xef1>
     ef1:	e8 00 00 00 00       	callq  ef6 <main+0xef6>
     ef6:	e8 00 00 00 00       	callq  efb <main+0xefb>
     efb:	bf 01 00 00 00       	mov    $0x1,%edi
     f00:	e8 00 00 00 00       	callq  f05 <main+0xf05>
     f05:	e8 00 00 00 00       	callq  f0a <main+0xf0a>
     f0a:	bf 05 00 00 00       	mov    $0x5,%edi
     f0f:	be 00 00 00 00       	mov    $0x0,%esi
     f14:	31 c0                	xor    %eax,%eax
     f16:	e8 00 00 00 00       	callq  f1b <main+0xf1b>
     f1b:	e8 00 00 00 00       	callq  f20 <main+0xf20>
     f20:	e8 00 00 00 00       	callq  f25 <main+0xf25>
     f25:	31 ff                	xor    %edi,%edi
     f27:	e8 00 00 00 00       	callq  f2c <main+0xf2c>
     f2c:	be 00 00 00 00       	mov    $0x0,%esi
     f31:	31 c0                	xor    %eax,%eax
     f33:	bf 02 00 00 00       	mov    $0x2,%edi
     f38:	e8 00 00 00 00       	callq  f3d <main+0xf3d>
     f3d:	bf 00 00 00 00       	mov    $0x0,%edi
     f42:	e8 00 00 00 00       	callq  f47 <main+0xf47>
     f47:	e8 00 00 00 00       	callq  f4c <main+0xf4c>
     f4c:	bf 01 00 00 00       	mov    $0x1,%edi
     f51:	e8 00 00 00 00       	callq  f56 <main+0xf56>
     f56:	48 8b 15 00 00 00 00 	mov    0x0(%rip),%rdx        # f5d <main+0xf5d>
     f5d:	be 00 00 00 00       	mov    $0x0,%esi
     f62:	bf 02 00 00 00       	mov    $0x2,%edi
     f67:	e8 00 00 00 00       	callq  f6c <main+0xf6c>
     f6c:	b8 00 00 00 00       	mov    $0x0,%eax
     f71:	48 8b 0d 00 00 00 00 	mov    0x0(%rip),%rcx        # f78 <main+0xf78>
     f78:	48 8b 15 00 00 00 00 	mov    0x0(%rip),%rdx        # f7f <main+0xf7f>
     f7f:	48 c1 e8 03          	shr    $0x3,%rax
     f83:	80 b8 00 80 ff 7f 00 	cmpb   $0x0,0x7fff8000(%rax)
     f8a:	0f 85 03 01 00 00    	jne    1093 <main+0x1093>
     f90:	48 8b 3d 00 00 00 00 	mov    0x0(%rip),%rdi        # f97 <main+0xf97>
     f97:	be 00 00 00 00       	mov    $0x0,%esi
     f9c:	31 c0                	xor    %eax,%eax
     f9e:	e8 00 00 00 00       	callq  fa3 <main+0xfa3>
     fa3:	e8 00 00 00 00       	callq  fa8 <main+0xfa8>
     fa8:	bf 01 00 00 00       	mov    $0x1,%edi
     fad:	e8 00 00 00 00       	callq  fb2 <main+0xfb2>
     fb2:	be 00 00 00 00       	mov    $0x0,%esi
     fb7:	e9 01 fc ff ff       	jmpq   bbd <main+0xbbd>
     fbc:	be 00 00 00 00       	mov    $0x0,%esi
     fc1:	bf 04 00 00 00       	mov    $0x4,%edi
     fc6:	31 c0                	xor    %eax,%eax
     fc8:	e8 00 00 00 00       	callq  fcd <main+0xfcd>
     fcd:	e9 94 fa ff ff       	jmpq   a66 <main+0xa66>
     fd2:	48 89 de             	mov    %rbx,%rsi
     fd5:	bf 60 12 00 00       	mov    $0x1260,%edi
     fda:	e8 00 00 00 00       	callq  fdf <main+0xfdf>
     fdf:	48 89 c3             	mov    %rax,%rbx
     fe2:	e9 43 f0 ff ff       	jmpq   2a <main+0x2a>
     fe7:	e8 00 00 00 00       	callq  fec <main+0xfec>
     fec:	bf 00 00 00 00       	mov    $0x0,%edi
     ff1:	e8 00 00 00 00       	callq  ff6 <main+0xff6>
     ff6:	e8 00 00 00 00       	callq  ffb <main+0xffb>
     ffb:	e8 00 00 00 00       	callq  1000 <main+0x1000>
    1000:	e8 00 00 00 00       	callq  1005 <main+0x1005>
    1005:	e8 00 00 00 00       	callq  100a <main+0x100a>
    100a:	e8 00 00 00 00       	callq  100f <main+0x100f>
    100f:	e8 00 00 00 00       	callq  1014 <main+0x1014>
    1014:	48 89 df             	mov    %rbx,%rdi
    1017:	e8 00 00 00 00       	callq  101c <main+0x101c>
    101c:	e8 00 00 00 00       	callq  1021 <main+0x1021>
    1021:	e8 00 00 00 00       	callq  1026 <main+0x1026>
    1026:	e8 00 00 00 00       	callq  102b <main+0x102b>
    102b:	48 89 c7             	mov    %rax,%rdi
    102e:	e8 00 00 00 00       	callq  1033 <main+0x1033>
    1033:	bf 00 00 00 00       	mov    $0x0,%edi
    1038:	e8 00 00 00 00       	callq  103d <main+0x103d>
    103d:	e8 00 00 00 00       	callq  1042 <main+0x1042>
    1042:	bf 00 00 00 00       	mov    $0x0,%edi
    1047:	e8 00 00 00 00       	callq  104c <main+0x104c>
    104c:	4c 89 ef             	mov    %r13,%rdi
    104f:	e8 00 00 00 00       	callq  1054 <main+0x1054>
    1054:	bf 00 00 00 00       	mov    $0x0,%edi
    1059:	e8 00 00 00 00       	callq  105e <main+0x105e>
    105e:	e8 00 00 00 00       	callq  1063 <main+0x1063>
    1063:	bf 00 00 00 00       	mov    $0x0,%edi
    1068:	e8 00 00 00 00       	callq  106d <main+0x106d>
    106d:	bf 00 00 00 00       	mov    $0x0,%edi
    1072:	e8 00 00 00 00       	callq  1077 <main+0x1077>
    1077:	bf 00 00 00 00       	mov    $0x0,%edi
    107c:	e8 00 00 00 00       	callq  1081 <main+0x1081>
    1081:	e8 00 00 00 00       	callq  1086 <main+0x1086>
    1086:	48 89 d7             	mov    %rdx,%rdi
    1089:	e8 00 00 00 00       	callq  108e <main+0x108e>
    108e:	e8 00 00 00 00       	callq  1093 <main+0x1093>
    1093:	bf 00 00 00 00       	mov    $0x0,%edi
    1098:	e8 00 00 00 00       	callq  109d <main+0x109d>
    109d:	0f 1f 00             	nopl   (%rax)

00000000000010a0 <_GLOBAL__sub_I_00099_1_terminate>:
    10a0:	48 83 ec 08          	sub    $0x8,%rsp
    10a4:	e8 00 00 00 00       	callq  10a9 <_GLOBAL__sub_I_00099_1_terminate+0x9>
    10a9:	be a8 00 00 00       	mov    $0xa8,%esi
    10ae:	bf 00 00 00 00       	mov    $0x0,%edi
    10b3:	48 83 c4 08          	add    $0x8,%rsp
    10b7:	e9 00 00 00 00       	jmpq   10bc <_GLOBAL__sub_I_00099_1_terminate+0x1c>

Disassembly of section .text.exit:

0000000000000000 <_GLOBAL__sub_D_00099_0_terminate>:
   0:	be a8 00 00 00       	mov    $0xa8,%esi
   5:	bf 00 00 00 00       	mov    $0x0,%edi
   a:	e9 00 00 00 00       	jmpq   f <_GLOBAL__sub_D_00099_0_terminate+0xf>

Disassembly of section .fini_array.00099:

0000000000000000 <.fini_array.00099>:
	...

Disassembly of section .init_array.00099:

0000000000000000 <.init_array.00099>:
	...

Disassembly of section .comment:

0000000000000000 <.comment>:
   0:	00 47 43             	add    %al,0x43(%rdi)
   3:	43 3a 20             	rex.XB cmp (%r8),%spl
   6:	28 47 4e             	sub    %al,0x4e(%rdi)
   9:	55                   	push   %rbp
   a:	29 20                	sub    %esp,(%rax)
   c:	35 2e 32 2e 30       	xor    $0x302e322e,%eax
	...

Disassembly of section .eh_frame:

0000000000000000 <.eh_frame>:
   0:	14 00                	adc    $0x0,%al
   2:	00 00                	add    %al,(%rax)
   4:	00 00                	add    %al,(%rax)
   6:	00 00                	add    %al,(%rax)
   8:	01 7a 52             	add    %edi,0x52(%rdx)
   b:	00 01                	add    %al,(%rcx)
   d:	78 10                	js     1f <.eh_frame+0x1f>
   f:	01 1b                	add    %ebx,(%rbx)
  11:	0c 07                	or     $0x7,%al
  13:	08 90 01 00 00 10    	or     %dl,0x10000001(%rax)
  19:	00 00                	add    %al,(%rax)
  1b:	00 1c 00             	add    %bl,(%rax,%rax,1)
  1e:	00 00                	add    %al,(%rax)
  20:	00 00                	add    %al,(%rax)
  22:	00 00                	add    %al,(%rax)
  24:	0b 00                	or     (%rax),%eax
  26:	00 00                	add    %al,(%rax)
  28:	00 00                	add    %al,(%rax)
  2a:	00 00                	add    %al,(%rax)
  2c:	14 00                	adc    $0x0,%al
  2e:	00 00                	add    %al,(%rax)
  30:	30 00                	xor    %al,(%rax)
  32:	00 00                	add    %al,(%rax)
  34:	00 00                	add    %al,(%rax)
  36:	00 00                	add    %al,(%rax)
  38:	88 00                	mov    %al,(%rax)
  3a:	00 00                	add    %al,(%rax)
  3c:	00 44 0e 10          	add    %al,0x10(%rsi,%rcx,1)
  40:	02 83 0e 08 54 00    	add    0x54080e(%rbx),%al
  46:	00 00                	add    %al,(%rax)
  48:	48 00 00             	rex.W add %al,(%rax)
  4b:	00 00                	add    %al,(%rax)
  4d:	00 00                	add    %al,(%rax)
  4f:	00 48 04             	add    %cl,0x4(%rax)
  52:	00 00                	add    %al,(%rax)
  54:	00 49 0e             	add    %cl,0xe(%rcx)
  57:	10 8c 02 41 0e 18 86 	adc    %cl,-0x79e7f1bf(%rdx,%rax,1)
  5e:	03 41 0e             	add    0xe(%rcx),%eax
  61:	20 83 04 02 42 0e    	and    %al,0xe420204(%rbx)
  67:	28 49 0e             	sub    %cl,0xe(%rcx)
  6a:	30 5a 0e             	xor    %bl,0xe(%rdx)
  6d:	28 42 0e             	sub    %al,0xe(%rdx)
  70:	20 03                	and    %al,(%rbx)
  72:	76 01                	jbe    75 <.eh_frame+0x75>
  74:	0e                   	(bad)  
  75:	28 46 0e             	sub    %al,0xe(%rsi)
  78:	30 5b 0e             	xor    %bl,0xe(%rbx)
  7b:	28 41 0e             	sub    %al,0xe(%rcx)
  7e:	20 03                	and    %al,(%rbx)
  80:	8f 01                	popq   (%rcx)
  82:	0e                   	(bad)  
  83:	28 49 0e             	sub    %cl,0xe(%rcx)
  86:	30 59 0e             	xor    %bl,0xe(%rcx)
  89:	28 42 0e             	sub    %al,0xe(%rdx)
  8c:	20 64 0a 0e          	and    %ah,0xe(%rdx,%rcx,1)
  90:	18 41 0e             	sbb    %al,0xe(%rcx)
  93:	10 42 0e             	adc    %al,0xe(%rdx)
  96:	08 41 0b             	or     %al,0xb(%rcx)
  99:	00 00                	add    %al,(%rax)
  9b:	00 10                	add    %dl,(%rax)
  9d:	00 00                	add    %al,(%rax)
  9f:	00 a0 00 00 00 00    	add    %ah,0x0(%rax)
  a5:	00 00                	add    %al,(%rax)
  a7:	00 50 00             	add    %dl,0x0(%rax)
  aa:	00 00                	add    %al,(%rax)
  ac:	00 48 0e             	add    %cl,0xe(%rax)
  af:	10 10                	adc    %dl,(%rax)
  b1:	00 00                	add    %al,(%rax)
  b3:	00 b4 00 00 00 00 00 	add    %dh,0x0(%rax,%rax,1)
  ba:	00 00                	add    %al,(%rax)
  bc:	50                   	push   %rax
  bd:	00 00                	add    %al,(%rax)
  bf:	00 00                	add    %al,(%rax)
  c1:	48 0e                	rex.W (bad) 
  c3:	10 10                	adc    %dl,(%rax)
  c5:	00 00                	add    %al,(%rax)
  c7:	00 c8                	add    %cl,%al
  c9:	00 00                	add    %al,(%rax)
  cb:	00 00                	add    %al,(%rax)
  cd:	00 00                	add    %al,(%rax)
  cf:	00 46 00             	add    %al,0x0(%rsi)
  d2:	00 00                	add    %al,(%rax)
  d4:	00 41 0e             	add    %al,0xe(%rcx)
  d7:	10 20                	adc    %ah,(%rax)
  d9:	00 00                	add    %al,(%rax)
  db:	00 dc                	add    %bl,%ah
  dd:	00 00                	add    %al,(%rax)
  df:	00 00                	add    %al,(%rax)
  e1:	00 00                	add    %al,(%rax)
  e3:	00 d0                	add    %dl,%al
  e5:	00 00                	add    %al,(%rax)
  e7:	00 00                	add    %al,(%rax)
  e9:	44 0e                	rex.R (bad) 
  eb:	20 02                	and    %al,(%rdx)
  ed:	5b                   	pop    %rbx
  ee:	0a 0e                	or     (%rsi),%cl
  f0:	08 41 0b             	or     %al,0xb(%rcx)
  f3:	02 50 0a             	add    0xa(%rax),%dl
  f6:	0e                   	(bad)  
  f7:	08 41 0b             	or     %al,0xb(%rcx)
  fa:	00 00                	add    %al,(%rax)
  fc:	38 00                	cmp    %al,(%rax)
  fe:	00 00                	add    %al,(%rax)
 100:	00 01                	add    %al,(%rcx)
 102:	00 00                	add    %al,(%rax)
 104:	00 00                	add    %al,(%rax)
 106:	00 00                	add    %al,(%rax)
 108:	68 01 00 00 00       	pushq  $0x1
 10d:	42 0e                	rex.X (bad) 
 10f:	10 8d 02 42 0e 18    	adc    %cl,0x180e4202(%rbp)
 115:	8c 03                	mov    %es,(%rbx)
 117:	41 0e                	rex.B (bad) 
 119:	20 86 04 41 0e 28    	and    %al,0x280e4104(%rsi)
 11f:	83 05 47 0e 90 01 02 	addl   $0x2,0x1900e47(%rip)        # 1900f6d <lookup_hostname.constprop.1+0x18fc55d>
 126:	f8                   	clc    
 127:	0a 0e                	or     (%rsi),%cl
 129:	28 41 0e             	sub    %al,0xe(%rcx)
 12c:	20 41 0e             	and    %al,0xe(%rcx)
 12f:	18 42 0e             	sbb    %al,0xe(%rdx)
 132:	10 42 0e             	adc    %al,0xe(%rdx)
 135:	08 45 0b             	or     %al,0xb(%rbp)
 138:	10 00                	adc    %al,(%rax)
 13a:	00 00                	add    %al,(%rax)
 13c:	3c 01                	cmp    $0x1,%al
 13e:	00 00                	add    %al,(%rax)
 140:	00 00                	add    %al,(%rax)
 142:	00 00                	add    %al,(%rax)
 144:	08 00                	or     %al,(%rax)
 146:	00 00                	add    %al,(%rax)
 148:	00 00                	add    %al,(%rax)
 14a:	00 00                	add    %al,(%rax)
 14c:	28 00                	sub    %al,(%rax)
 14e:	00 00                	add    %al,(%rax)
 150:	50                   	push   %rax
 151:	01 00                	add    %eax,(%rax)
 153:	00 00                	add    %al,(%rax)
 155:	00 00                	add    %al,(%rax)
 157:	00 6b 00             	add    %ch,0x0(%rbx)
 15a:	00 00                	add    %al,(%rax)
 15c:	00 41 0e             	add    %al,0xe(%rcx)
 15f:	10 86 02 41 0e 18    	adc    %al,0x180e4102(%rsi)
 165:	83 03 44             	addl   $0x44,(%rbx)
 168:	0e                   	(bad)  
 169:	20 02                	and    %al,(%rdx)
 16b:	52                   	push   %rdx
 16c:	0a 0e                	or     (%rsi),%cl
 16e:	18 41 0e             	sbb    %al,0xe(%rcx)
 171:	10 41 0e             	adc    %al,0xe(%rcx)
 174:	08 41 0b             	or     %al,0xb(%rcx)
 177:	00 14 00             	add    %dl,(%rax,%rax,1)
 17a:	00 00                	add    %al,(%rax)
 17c:	7c 01                	jl     17f <.eh_frame+0x17f>
 17e:	00 00                	add    %al,(%rax)
 180:	00 00                	add    %al,(%rax)
 182:	00 00                	add    %al,(%rax)
 184:	20 00                	and    %al,(%rax)
 186:	00 00                	add    %al,(%rax)
 188:	00 44 0e 10          	add    %al,0x10(%rsi,%rcx,1)
 18c:	5b                   	pop    %rbx
 18d:	0e                   	(bad)  
 18e:	08 00                	or     %al,(%rax)
 190:	28 00                	sub    %al,(%rax)
 192:	00 00                	add    %al,(%rax)
 194:	94                   	xchg   %eax,%esp
 195:	01 00                	add    %eax,(%rax)
 197:	00 00                	add    %al,(%rax)
 199:	00 00                	add    %al,(%rax)
 19b:	00 96 00 00 00 00    	add    %dl,0x0(%rsi)
 1a1:	41 0e                	rex.B (bad) 
 1a3:	10 86 02 41 0e 18    	adc    %al,0x180e4102(%rsi)
 1a9:	83 03 44             	addl   $0x44,(%rbx)
 1ac:	0e                   	(bad)  
 1ad:	20 02                	and    %al,(%rdx)
 1af:	69 0a 0e 18 41 0e    	imul   $0xe41180e,(%rdx),%ecx
 1b5:	10 41 0e             	adc    %al,0xe(%rcx)
 1b8:	08 41 0b             	or     %al,0xb(%rcx)
 1bb:	00 4c 00 00          	add    %cl,0x0(%rax,%rax,1)
 1bf:	00 c0                	add    %al,%al
 1c1:	01 00                	add    %eax,(%rax)
 1c3:	00 00                	add    %al,(%rax)
 1c5:	00 00                	add    %al,(%rax)
 1c7:	00 f8                	add    %bh,%al
 1c9:	01 00                	add    %eax,(%rax)
 1cb:	00 00                	add    %al,(%rax)
 1cd:	42 0e                	rex.X (bad) 
 1cf:	10 8f 02 42 0e 18    	adc    %cl,0x180e4202(%rdi)
 1d5:	8e 03                	mov    (%rbx),%es
 1d7:	42 0e                	rex.X (bad) 
 1d9:	20 8d 04 42 0e 28    	and    %cl,0x280e4204(%rbp)
 1df:	8c 05 41 0e 30 86    	mov    %es,-0x79cff1bf(%rip)        # ffffffff86301026 <lookup_hostname.constprop.1+0xffffffff862fc616>
 1e5:	06                   	(bad)  
 1e6:	41 0e                	rex.B (bad) 
 1e8:	38 83 07 44 0e b0    	cmp    %al,-0x4ff1bbf9(%rbx)
 1ee:	01 03                	add    %eax,(%rbx)
 1f0:	87 01                	xchg   %eax,(%rcx)
 1f2:	0a 0e                	or     (%rsi),%cl
 1f4:	38 41 0e             	cmp    %al,0xe(%rcx)
 1f7:	30 41 0e             	xor    %al,0xe(%rcx)
 1fa:	28 42 0e             	sub    %al,0xe(%rdx)
 1fd:	20 42 0e             	and    %al,0xe(%rdx)
 200:	18 42 0e             	sbb    %al,0xe(%rdx)
 203:	10 42 0e             	adc    %al,0xe(%rdx)
 206:	08 41 0b             	or     %al,0xb(%rcx)
 209:	00 00                	add    %al,(%rax)
 20b:	00 18                	add    %bl,(%rax)
 20d:	00 00                	add    %al,(%rax)
 20f:	00 10                	add    %dl,(%rax)
 211:	02 00                	add    (%rax),%al
 213:	00 00                	add    %al,(%rax)
 215:	00 00                	add    %al,(%rax)
 217:	00 67 00             	add    %ah,0x0(%rdi)
 21a:	00 00                	add    %al,(%rax)
 21c:	00 44 0e 10          	add    %al,0x10(%rsi,%rcx,1)
 220:	4e 0a 0e             	rex.WRX or (%rsi),%r9b
 223:	08 41 0b             	or     %al,0xb(%rcx)
 226:	00 00                	add    %al,(%rax)
 228:	4c 00 00             	rex.WR add %r8b,(%rax)
 22b:	00 2c 02             	add    %ch,(%rdx,%rax,1)
 22e:	00 00                	add    %al,(%rax)
 230:	00 00                	add    %al,(%rax)
 232:	00 00                	add    %al,(%rax)
 234:	92                   	xchg   %eax,%edx
 235:	08 00                	or     %al,(%rax)
 237:	00 00                	add    %al,(%rax)
 239:	42 0e                	rex.X (bad) 
 23b:	10 8f 02 42 0e 18    	adc    %cl,0x180e4202(%rdi)
 241:	8e 03                	mov    (%rbx),%es
 243:	42 0e                	rex.X (bad) 
 245:	20 8d 04 42 0e 28    	and    %cl,0x280e4204(%rbp)
 24b:	8c 05 41 0e 30 86    	mov    %es,-0x79cff1bf(%rip)        # ffffffff86301092 <lookup_hostname.constprop.1+0xffffffff862fc682>
 251:	06                   	(bad)  
 252:	41 0e                	rex.B (bad) 
 254:	38 83 07 4a 0e 90    	cmp    %al,-0x6ff1b5f9(%rbx)
 25a:	02 03                	add    (%rbx),%al
 25c:	80 06 0a             	addb   $0xa,(%rsi)
 25f:	0e                   	(bad)  
 260:	38 41 0e             	cmp    %al,0xe(%rcx)
 263:	30 41 0e             	xor    %al,0xe(%rcx)
 266:	28 42 0e             	sub    %al,0xe(%rdx)
 269:	20 42 0e             	and    %al,0xe(%rdx)
 26c:	18 42 0e             	sbb    %al,0xe(%rdx)
 26f:	10 42 0e             	adc    %al,0xe(%rdx)
 272:	08 41 0b             	or     %al,0xb(%rcx)
 275:	00 00                	add    %al,(%rax)
 277:	00 3c 00             	add    %bh,(%rax,%rax,1)
 27a:	00 00                	add    %al,(%rax)
 27c:	7c 02                	jl     280 <.eh_frame+0x280>
 27e:	00 00                	add    %al,(%rax)
 280:	00 00                	add    %al,(%rax)
 282:	00 00                	add    %al,(%rax)
 284:	87 07                	xchg   %eax,(%rdi)
 286:	00 00                	add    %al,(%rax)
 288:	00 4a 0e             	add    %cl,0xe(%rdx)
 28b:	10 8e 02 4c 0e 18    	adc    %cl,0x180e4c02(%rsi)
 291:	8d 03                	lea    (%rbx),%eax
 293:	49 0e                	rex.WB (bad) 
 295:	20 8c 04 44 0e 28 86 	and    %cl,-0x79d7f1bc(%rsp,%rax,1)
 29c:	05 4c 0e 30 83       	add    $0x83300e4c,%eax
 2a1:	06                   	(bad)  
 2a2:	03 6c 02 0a          	add    0xa(%rdx,%rax,1),%ebp
 2a6:	0e                   	(bad)  
 2a7:	28 41 0e             	sub    %al,0xe(%rcx)
 2aa:	20 42 0e             	and    %al,0xe(%rdx)
 2ad:	18 42 0e             	sbb    %al,0xe(%rdx)
 2b0:	10 42 0e             	adc    %al,0xe(%rdx)
 2b3:	08 46 0b             	or     %al,0xb(%rsi)
 2b6:	00 00                	add    %al,(%rax)
 2b8:	4c 00 00             	rex.WR add %r8b,(%rax)
 2bb:	00 bc 02 00 00 00 00 	add    %bh,0x0(%rdx,%rax,1)
 2c2:	00 00                	add    %al,(%rax)
 2c4:	37                   	(bad)  
 2c5:	06                   	(bad)  
 2c6:	00 00                	add    %al,(%rax)
 2c8:	00 42 0e             	add    %al,0xe(%rdx)
 2cb:	10 8f 02 42 0e 18    	adc    %cl,0x180e4202(%rdi)
 2d1:	8e 03                	mov    (%rbx),%es
 2d3:	42 0e                	rex.X (bad) 
 2d5:	20 8d 04 42 0e 28    	and    %cl,0x280e4204(%rbp)
 2db:	8c 05 41 0e 30 86    	mov    %es,-0x79cff1bf(%rip)        # ffffffff86301122 <lookup_hostname.constprop.1+0xffffffff862fc712>
 2e1:	06                   	(bad)  
 2e2:	41 0e                	rex.B (bad) 
 2e4:	38 83 07 47 0e d0    	cmp    %al,-0x2ff1b8f9(%rbx)
 2ea:	51                   	push   %rcx
 2eb:	03 ff                	add    %edi,%edi
 2ed:	04 0a                	add    $0xa,%al
 2ef:	0e                   	(bad)  
 2f0:	38 41 0e             	cmp    %al,0xe(%rcx)
 2f3:	30 41 0e             	xor    %al,0xe(%rcx)
 2f6:	28 42 0e             	sub    %al,0xe(%rdx)
 2f9:	20 42 0e             	and    %al,0xe(%rdx)
 2fc:	18 42 0e             	sbb    %al,0xe(%rdx)
 2ff:	10 42 0e             	adc    %al,0xe(%rdx)
 302:	08 41 0b             	or     %al,0xb(%rcx)
 305:	00 00                	add    %al,(%rax)
 307:	00 48 00             	add    %cl,0x0(%rax)
 30a:	00 00                	add    %al,(%rax)
 30c:	0c 03                	or     $0x3,%al
 30e:	00 00                	add    %al,(%rax)
 310:	00 00                	add    %al,(%rax)
 312:	00 00                	add    %al,(%rax)
 314:	d2 00                	rolb   %cl,(%rax)
 316:	00 00                	add    %al,(%rax)
 318:	00 61 0e             	add    %ah,0xe(%rcx)
 31b:	10 86 02 41 0e 18    	adc    %al,0x180e4102(%rsi)
 321:	83 03 49             	addl   $0x49,(%rbx)
 324:	0e                   	(bad)  
 325:	20 4d 0e             	and    %cl,0xe(%rbp)
 328:	18 41 c3             	sbb    %al,-0x3d(%rcx)
 32b:	0e                   	(bad)  
 32c:	10 41 c6             	adc    %al,-0x3a(%rcx)
 32f:	0e                   	(bad)  
 330:	08 46 0e             	or     %al,0xe(%rsi)
 333:	20 83 03 86 02 02    	and    %al,0x2028603(%rbx)
 339:	68 0a 0e 18 44       	pushq  $0x44180e0a
 33e:	c3                   	retq   
 33f:	0e                   	(bad)  
 340:	10 41 c6             	adc    %al,-0x3a(%rcx)
 343:	0e                   	(bad)  
 344:	08 4b 0b             	or     %cl,0xb(%rbx)
 347:	44 0e                	rex.R (bad) 
 349:	18 49 c3             	sbb    %cl,-0x3d(%rcx)
 34c:	0e                   	(bad)  
 34d:	10 41 c6             	adc    %al,-0x3a(%rcx)
 350:	0e                   	(bad)  
 351:	08 00                	or     %al,(%rax)
 353:	00 58 00             	add    %bl,0x0(%rax)
 356:	00 00                	add    %al,(%rax)
 358:	58                   	pop    %rax
 359:	03 00                	add    (%rax),%eax
 35b:	00 00                	add    %al,(%rax)
 35d:	00 00                	add    %al,(%rax)
 35f:	00 b6 03 00 00 00    	add    %dh,0x3(%rsi)
 365:	42 0e                	rex.X (bad) 
 367:	10 8e 02 42 0e 18    	adc    %cl,0x180e4202(%rsi)
 36d:	8d 03                	lea    (%rbx),%eax
 36f:	45 0e                	rex.RB (bad) 
 371:	20 8c 04 41 0e 28 86 	and    %cl,-0x79d7f1bf(%rsp,%rax,1)
 378:	05 44 0e 30 83       	add    $0x83300e44,%eax
 37d:	06                   	(bad)  
 37e:	4b 0e                	rex.WXB (bad) 
 380:	40 03 70 02          	rex add 0x2(%rax),%esi
 384:	0a 0e                	or     (%rsi),%cl
 386:	30 41 0e             	xor    %al,0xe(%rcx)
 389:	28 41 0e             	sub    %al,0xe(%rcx)
 38c:	20 42 0e             	and    %al,0xe(%rdx)
 38f:	18 42 0e             	sbb    %al,0xe(%rdx)
 392:	10 42 0e             	adc    %al,0xe(%rdx)
 395:	08 47 0b             	or     %al,0xb(%rdi)
 398:	54                   	push   %rsp
 399:	0a 0e                	or     (%rsi),%cl
 39b:	30 41 0e             	xor    %al,0xe(%rcx)
 39e:	28 41 0e             	sub    %al,0xe(%rcx)
 3a1:	20 42 0e             	and    %al,0xe(%rdx)
 3a4:	18 42 0e             	sbb    %al,0xe(%rdx)
 3a7:	10 42 0e             	adc    %al,0xe(%rdx)
 3aa:	08 44 0b 00          	or     %al,0x0(%rbx,%rcx,1)
 3ae:	00 00                	add    %al,(%rax)
 3b0:	60                   	(bad)  
 3b1:	00 00                	add    %al,(%rax)
 3b3:	00 b4 03 00 00 00 00 	add    %dh,0x0(%rbx,%rax,1)
 3ba:	00 00                	add    %al,(%rax)
 3bc:	f7 03 00 00 00 42    	testl  $0x42000000,(%rbx)
 3c2:	0e                   	(bad)  
 3c3:	10 8f 02 42 0e 18    	adc    %cl,0x180e4202(%rdi)
 3c9:	8e 03                	mov    (%rbx),%es
 3cb:	46 0e                	rex.RX (bad) 
 3cd:	20 8d 04 42 0e 28    	and    %cl,0x280e4204(%rbp)
 3d3:	8c 05 41 0e 30 86    	mov    %es,-0x79cff1bf(%rip)        # ffffffff8630121a <lookup_hostname.constprop.1+0xffffffff862fc80a>
 3d9:	06                   	(bad)  
 3da:	41 0e                	rex.B (bad) 
 3dc:	38 83 07 47 0e 70    	cmp    %al,0x700e4707(%rbx)
 3e2:	03 2f                	add    (%rdi),%ebp
 3e4:	03 0a                	add    (%rdx),%ecx
 3e6:	0e                   	(bad)  
 3e7:	38 46 0e             	cmp    %al,0xe(%rsi)
 3ea:	30 41 0e             	xor    %al,0xe(%rcx)
 3ed:	28 42 0e             	sub    %al,0xe(%rdx)
 3f0:	20 42 0e             	and    %al,0xe(%rdx)
 3f3:	18 42 0e             	sbb    %al,0xe(%rdx)
 3f6:	10 42 0e             	adc    %al,0xe(%rdx)
 3f9:	08 45 0b             	or     %al,0xb(%rbp)
 3fc:	44 0a 0e             	or     (%rsi),%r9b
 3ff:	38 43 0e             	cmp    %al,0xe(%rbx)
 402:	30 41 0e             	xor    %al,0xe(%rcx)
 405:	28 42 0e             	sub    %al,0xe(%rdx)
 408:	20 42 0e             	and    %al,0xe(%rdx)
 40b:	18 42 0e             	sbb    %al,0xe(%rdx)
 40e:	10 42 0e             	adc    %al,0xe(%rdx)
 411:	08 41 0b             	or     %al,0xb(%rcx)
 414:	4c 00 00             	rex.WR add %r8b,(%rax)
 417:	00 18                	add    %bl,(%rax)
 419:	04 00                	add    $0x0,%al
 41b:	00 00                	add    %al,(%rax)
 41d:	00 00                	add    %al,(%rax)
 41f:	00 b7 02 00 00 00    	add    %dh,0x2(%rdi)
 425:	42 0e                	rex.X (bad) 
 427:	10 8f 02 42 0e 18    	adc    %cl,0x180e4202(%rdi)
 42d:	8e 03                	mov    (%rbx),%es
 42f:	42 0e                	rex.X (bad) 
 431:	20 8d 04 42 0e 28    	and    %cl,0x280e4204(%rbp)
 437:	8c 05 41 0e 30 86    	mov    %es,-0x79cff1bf(%rip)        # ffffffff8630127e <lookup_hostname.constprop.1+0xffffffff862fc86e>
 43d:	06                   	(bad)  
 43e:	41 0e                	rex.B (bad) 
 440:	38 83 07 44 0e b0    	cmp    %al,-0x4ff1bbf9(%rbx)
 446:	01 03                	add    %eax,(%rbx)
 448:	37                   	(bad)  
 449:	02 0a                	add    (%rdx),%cl
 44b:	0e                   	(bad)  
 44c:	38 41 0e             	cmp    %al,0xe(%rcx)
 44f:	30 41 0e             	xor    %al,0xe(%rcx)
 452:	28 42 0e             	sub    %al,0xe(%rdx)
 455:	20 42 0e             	and    %al,0xe(%rdx)
 458:	18 42 0e             	sbb    %al,0xe(%rdx)
 45b:	10 42 0e             	adc    %al,0xe(%rdx)
 45e:	08 41 0b             	or     %al,0xb(%rcx)
 461:	00 00                	add    %al,(%rax)
 463:	00 10                	add    %dl,(%rax)
 465:	00 00                	add    %al,(%rax)
 467:	00 68 04             	add    %ch,0x4(%rax)
 46a:	00 00                	add    %al,(%rax)
 46c:	00 00                	add    %al,(%rax)
 46e:	00 00                	add    %al,(%rax)
 470:	3d 00 00 00 00       	cmp    $0x0,%eax
 475:	56                   	push   %rsi
 476:	0e                   	(bad)  
 477:	10 14 00             	adc    %dl,(%rax,%rax,1)
 47a:	00 00                	add    %al,(%rax)
 47c:	7c 04                	jl     482 <.eh_frame+0x482>
 47e:	00 00                	add    %al,(%rax)
 480:	00 00                	add    %al,(%rax)
 482:	00 00                	add    %al,(%rax)
 484:	2f                   	(bad)  
 485:	00 00                	add    %al,(%rax)
 487:	00 00                	add    %al,(%rax)
 489:	41 0e                	rex.B (bad) 
 48b:	10 83 02 00 00 18    	adc    %al,0x18000002(%rbx)
 491:	00 00                	add    %al,(%rax)
 493:	00 94 04 00 00 00 00 	add    %dl,0x0(%rsp,%rax,1)
 49a:	00 00                	add    %al,(%rax)
 49c:	af                   	scas   %es:(%rdi),%eax
 49d:	00 00                	add    %al,(%rax)
 49f:	00 00                	add    %al,(%rax)
 4a1:	48 0e                	rex.W (bad) 
 4a3:	10 02                	adc    %al,(%rdx)
 4a5:	91                   	xchg   %eax,%ecx
 4a6:	0a 0e                	or     (%rsi),%cl
 4a8:	08 41 0b             	or     %al,0xb(%rcx)
 4ab:	00 30                	add    %dh,(%rax)
 4ad:	00 00                	add    %al,(%rax)
 4af:	00 b0 04 00 00 00    	add    %dh,0x4(%rax)
 4b5:	00 00                	add    %al,(%rax)
 4b7:	00 c1                	add    %al,%cl
 4b9:	01 00                	add    %eax,(%rax)
 4bb:	00 00                	add    %al,(%rax)
 4bd:	42 0e                	rex.X (bad) 
 4bf:	10 8c 02 41 0e 18 86 	adc    %cl,-0x79e7f1bf(%rdx,%rax,1)
 4c6:	03 45 0e             	add    0xe(%rbp),%eax
 4c9:	20 83 04 4b 0e 30    	and    %al,0x300e4b04(%rbx)
 4cf:	03 64 01 0a          	add    0xa(%rcx,%rax,1),%esp
 4d3:	0e                   	(bad)  
 4d4:	20 41 0e             	and    %al,0xe(%rcx)
 4d7:	18 41 0e             	sbb    %al,0xe(%rcx)
 4da:	10 42 0e             	adc    %al,0xe(%rdx)
 4dd:	08 41 0b             	or     %al,0xb(%rcx)
 4e0:	4c 00 00             	rex.WR add %r8b,(%rax)
 4e3:	00 e4                	add    %ah,%ah
 4e5:	04 00                	add    $0x0,%al
 4e7:	00 00                	add    %al,(%rax)
 4e9:	00 00                	add    %al,(%rax)
 4eb:	00 53 03             	add    %dl,0x3(%rbx)
 4ee:	00 00                	add    %al,(%rax)
 4f0:	00 42 0e             	add    %al,0xe(%rdx)
 4f3:	10 8d 02 46 0e 18    	adc    %cl,0x180e4602(%rbp)
 4f9:	8c 03                	mov    %es,(%rbx)
 4fb:	41 0e                	rex.B (bad) 
 4fd:	20 86 04 41 0e 28    	and    %al,0x280e4104(%rsi)
 503:	83 05 4b 0e 30 03 05 	addl   $0x5,0x3300e4b(%rip)        # 3301355 <lookup_hostname.constprop.1+0x32fc945>
 50a:	02 0a                	add    (%rdx),%cl
 50c:	0e                   	(bad)  
 50d:	28 41 0e             	sub    %al,0xe(%rcx)
 510:	20 41 0e             	and    %al,0xe(%rcx)
 513:	18 42 0e             	sbb    %al,0xe(%rdx)
 516:	10 42 0e             	adc    %al,0xe(%rdx)
 519:	08 48 0b             	or     %cl,0xb(%rax)
 51c:	02 86 0a 0e 28 47    	add    0x47280e0a(%rsi),%al
 522:	0e                   	(bad)  
 523:	20 41 0e             	and    %al,0xe(%rcx)
 526:	18 42 0e             	sbb    %al,0xe(%rdx)
 529:	10 42 0e             	adc    %al,0xe(%rdx)
 52c:	08 45 0b             	or     %al,0xb(%rbp)
 52f:	00 28                	add    %ch,(%rax)
 531:	00 00                	add    %al,(%rax)
 533:	00 34 05 00 00 00 00 	add    %dh,0x0(,%rax,1)
 53a:	00 00                	add    %al,(%rax)
 53c:	3f                   	(bad)  
 53d:	00 00                	add    %al,(%rax)
 53f:	00 00                	add    %al,(%rax)
 541:	41 0e                	rex.B (bad) 
 543:	10 86 02 41 0e 18    	adc    %al,0x180e4102(%rsi)
 549:	83 03 4e             	addl   $0x4e,(%rbx)
 54c:	0e                   	(bad)  
 54d:	20 5d 0a             	and    %bl,0xa(%rbp)
 550:	0e                   	(bad)  
 551:	18 47 0e             	sbb    %al,0xe(%rdi)
 554:	10 41 0e             	adc    %al,0xe(%rcx)
 557:	08 45 0b             	or     %al,0xb(%rbp)
 55a:	00 00                	add    %al,(%rax)
 55c:	7c 00                	jl     55e <.eh_frame+0x55e>
 55e:	00 00                	add    %al,(%rax)
 560:	60                   	(bad)  
 561:	05 00 00 00 00       	add    $0x0,%eax
 566:	00 00                	add    %al,(%rax)
 568:	59                   	pop    %rcx
 569:	08 00                	or     %al,(%rax)
 56b:	00 00                	add    %al,(%rax)
 56d:	42 0e                	rex.X (bad) 
 56f:	10 8f 02 42 0e 18    	adc    %cl,0x180e4202(%rdi)
 575:	8e 03                	mov    (%rbx),%es
 577:	42 0e                	rex.X (bad) 
 579:	20 8d 04 42 0e 28    	and    %cl,0x280e4204(%rbp)
 57f:	8c 05 41 0e 30 86    	mov    %es,-0x79cff1bf(%rip)        # ffffffff863013c6 <lookup_hostname.constprop.1+0xffffffff862fc9b6>
 585:	06                   	(bad)  
 586:	48 0e                	rex.W (bad) 
 588:	38 83 07 4b 0e 50    	cmp    %al,0x500e4b07(%rbx)
 58e:	02 c6                	add    %dh,%al
 590:	0a 0e                	or     (%rsi),%cl
 592:	38 47 0e             	cmp    %al,0xe(%rdi)
 595:	30 41 0e             	xor    %al,0xe(%rcx)
 598:	28 42 0e             	sub    %al,0xe(%rdx)
 59b:	20 42 0e             	and    %al,0xe(%rdx)
 59e:	18 42 0e             	sbb    %al,0xe(%rdx)
 5a1:	10 42 0e             	adc    %al,0xe(%rdx)
 5a4:	08 4e 0b             	or     %cl,0xb(%rsi)
 5a7:	03 83 01 0a 0e 38    	add    0x380e0a01(%rbx),%eax
 5ad:	41 0e                	rex.B (bad) 
 5af:	30 41 0e             	xor    %al,0xe(%rcx)
 5b2:	28 42 0e             	sub    %al,0xe(%rdx)
 5b5:	20 42 0e             	and    %al,0xe(%rdx)
 5b8:	18 42 0e             	sbb    %al,0xe(%rdx)
 5bb:	10 42 0e             	adc    %al,0xe(%rdx)
 5be:	08 43 0b             	or     %al,0xb(%rbx)
 5c1:	03 a0 02 0a 0e 38    	add    0x380e0a02(%rax),%esp
 5c7:	44 0e                	rex.R (bad) 
 5c9:	30 41 0e             	xor    %al,0xe(%rcx)
 5cc:	28 42 0e             	sub    %al,0xe(%rdx)
 5cf:	20 42 0e             	and    %al,0xe(%rdx)
 5d2:	18 42 0e             	sbb    %al,0xe(%rdx)
 5d5:	10 42 0e             	adc    %al,0xe(%rdx)
 5d8:	08 53 0b             	or     %dl,0xb(%rbx)
 5db:	00 5c 00 00          	add    %bl,0x0(%rax,%rax,1)
 5df:	00 e0                	add    %ah,%al
 5e1:	05 00 00 00 00       	add    $0x0,%eax
 5e6:	00 00                	add    %al,(%rax)
 5e8:	50                   	push   %rax
 5e9:	02 00                	add    (%rax),%al
 5eb:	00 00                	add    %al,(%rax)
 5ed:	50                   	push   %rax
 5ee:	0e                   	(bad)  
 5ef:	10 8f 02 42 0e 18    	adc    %cl,0x180e4202(%rdi)
 5f5:	8e 03                	mov    (%rbx),%es
 5f7:	45 0e                	rex.RB (bad) 
 5f9:	20 8d 04 42 0e 28    	and    %cl,0x280e4204(%rbp)
 5ff:	8c 05 47 0e 30 86    	mov    %es,-0x79cff1b9(%rip)        # ffffffff8630144c <lookup_hostname.constprop.1+0xffffffff862fca3c>
 605:	06                   	(bad)  
 606:	41 0e                	rex.B (bad) 
 608:	38 83 07 51 0e 50    	cmp    %al,0x500e5107(%rbx)
 60e:	03 82 01 0e 38 41    	add    0x41380e01(%rdx),%eax
 614:	c3                   	retq   
 615:	0e                   	(bad)  
 616:	30 41 c6             	xor    %al,-0x3a(%rcx)
 619:	0e                   	(bad)  
 61a:	28 42 cc             	sub    %al,-0x34(%rdx)
 61d:	0e                   	(bad)  
 61e:	20 42 cd             	and    %al,-0x33(%rdx)
 621:	0e                   	(bad)  
 622:	18 42 ce             	sbb    %al,-0x32(%rdx)
 625:	0e                   	(bad)  
 626:	10 42 cf             	adc    %al,-0x31(%rdx)
 629:	0e                   	(bad)  
 62a:	08 42 0e             	or     %al,0xe(%rdx)
 62d:	50                   	push   %rax
 62e:	83 07 86             	addl   $0xffffff86,(%rdi)
 631:	06                   	(bad)  
 632:	8c 05 8d 04 8e 03    	mov    %es,0x38e048d(%rip)        # 38e0ac5 <lookup_hostname.constprop.1+0x38dc0b5>
 638:	8f 02                	popq   (%rdx)
 63a:	00 00                	add    %al,(%rax)
 63c:	4c 00 00             	rex.WR add %r8b,(%rax)
 63f:	00 40 06             	add    %al,0x6(%rax)
 642:	00 00                	add    %al,(%rax)
 644:	00 00                	add    %al,(%rax)
 646:	00 00                	add    %al,(%rax)
 648:	b0 09                	mov    $0x9,%al
 64a:	00 00                	add    %al,(%rax)
 64c:	00 42 0e             	add    %al,0xe(%rdx)
 64f:	10 8f 02 42 0e 18    	adc    %cl,0x180e4202(%rdi)
 655:	8e 03                	mov    (%rbx),%es
 657:	42 0e                	rex.X (bad) 
 659:	20 8d 04 42 0e 28    	and    %cl,0x280e4204(%rbp)
 65f:	8c 05 41 0e 30 86    	mov    %es,-0x79cff1bf(%rip)        # ffffffff863014a6 <lookup_hostname.constprop.1+0xffffffff862fca96>
 665:	06                   	(bad)  
 666:	41 0e                	rex.B (bad) 
 668:	38 83 07 4a 0e d0    	cmp    %al,-0x2ff1b5f9(%rbx)
 66e:	01 03                	add    %eax,(%rbx)
 670:	88 06                	mov    %al,(%rsi)
 672:	0a 0e                	or     (%rsi),%cl
 674:	38 41 0e             	cmp    %al,0xe(%rcx)
 677:	30 41 0e             	xor    %al,0xe(%rcx)
 67a:	28 42 0e             	sub    %al,0xe(%rdx)
 67d:	20 42 0e             	and    %al,0xe(%rdx)
 680:	18 42 0e             	sbb    %al,0xe(%rdx)
 683:	10 42 0e             	adc    %al,0xe(%rdx)
 686:	08 4a 0b             	or     %cl,0xb(%rdx)
 689:	00 00                	add    %al,(%rax)
 68b:	00 18                	add    %bl,(%rax)
 68d:	00 00                	add    %al,(%rax)
 68f:	00 90 06 00 00 00    	add    %dl,0x6(%rax)
 695:	00 00                	add    %al,(%rax)
 697:	00 52 00             	add    %dl,0x0(%rdx)
 69a:	00 00                	add    %al,(%rax)
 69c:	00 44 0e 20          	add    %al,0x20(%rsi,%rcx,1)
 6a0:	7d 0a                	jge    6ac <.eh_frame+0x6ac>
 6a2:	0e                   	(bad)  
 6a3:	08 41 0b             	or     %al,0xb(%rcx)
 6a6:	00 00                	add    %al,(%rax)
 6a8:	40 00 00             	add    %al,(%rax)
 6ab:	00 ac 06 00 00 00 00 	add    %ch,0x0(%rsi,%rax,1)
 6b2:	00 00                	add    %al,(%rax)
 6b4:	70 01                	jo     6b7 <.eh_frame+0x6b7>
 6b6:	00 00                	add    %al,(%rax)
 6b8:	00 42 0e             	add    %al,0xe(%rdx)
 6bb:	10 8e 02 42 0e 18    	adc    %cl,0x180e4202(%rsi)
 6c1:	8d 03                	lea    (%rbx),%eax
 6c3:	45 0e                	rex.RB (bad) 
 6c5:	20 8c 04 41 0e 28 86 	and    %cl,-0x79d7f1bf(%rsp,%rax,1)
 6cc:	05 44 0e 30 83       	add    $0x83300e44,%eax
 6d1:	06                   	(bad)  
 6d2:	47 0e                	rex.RXB (bad) 
 6d4:	f0 20 02             	lock and %al,(%rdx)
 6d7:	cc                   	int3   
 6d8:	0a 0e                	or     (%rsi),%cl
 6da:	30 41 0e             	xor    %al,0xe(%rcx)
 6dd:	28 41 0e             	sub    %al,0xe(%rcx)
 6e0:	20 42 0e             	and    %al,0xe(%rdx)
 6e3:	18 42 0e             	sbb    %al,0xe(%rdx)
 6e6:	10 42 0e             	adc    %al,0xe(%rdx)
 6e9:	08 47 0b             	or     %al,0xb(%rdi)
 6ec:	4c 00 00             	rex.WR add %r8b,(%rax)
 6ef:	00 f0                	add    %dh,%al
 6f1:	06                   	(bad)  
 6f2:	00 00                	add    %al,(%rax)
 6f4:	00 00                	add    %al,(%rax)
 6f6:	00 00                	add    %al,(%rax)
 6f8:	ca 04 00             	lret   $0x4
 6fb:	00 00                	add    %al,(%rax)
 6fd:	42 0e                	rex.X (bad) 
 6ff:	10 8f 02 42 0e 18    	adc    %cl,0x180e4202(%rdi)
 705:	8e 03                	mov    (%rbx),%es
 707:	42 0e                	rex.X (bad) 
 709:	20 8d 04 42 0e 28    	and    %cl,0x280e4204(%rbp)
 70f:	8c 05 44 0e 30 86    	mov    %es,-0x79cff1bc(%rip)        # ffffffff86301559 <lookup_hostname.constprop.1+0xffffffff862fcb49>
 715:	06                   	(bad)  
 716:	41 0e                	rex.B (bad) 
 718:	38 83 07 4a 0e e0    	cmp    %al,-0x1ff1b5f9(%rbx)
 71e:	02 03                	add    (%rbx),%al
 720:	1c 03                	sbb    $0x3,%al
 722:	0a 0e                	or     (%rsi),%cl
 724:	38 41 0e             	cmp    %al,0xe(%rcx)
 727:	30 41 0e             	xor    %al,0xe(%rcx)
 72a:	28 42 0e             	sub    %al,0xe(%rdx)
 72d:	20 42 0e             	and    %al,0xe(%rdx)
 730:	18 42 0e             	sbb    %al,0xe(%rdx)
 733:	10 42 0e             	adc    %al,0xe(%rdx)
 736:	08 41 0b             	or     %al,0xb(%rcx)
 739:	00 00                	add    %al,(%rax)
 73b:	00 68 00             	add    %ch,0x0(%rax)
 73e:	00 00                	add    %al,(%rax)
 740:	40 07                	rex (bad) 
 742:	00 00                	add    %al,(%rax)
 744:	00 00                	add    %al,(%rax)
 746:	00 00                	add    %al,(%rax)
 748:	9d                   	popfq  
 749:	10 00                	adc    %al,(%rax)
 74b:	00 00                	add    %al,(%rax)
 74d:	42 0e                	rex.X (bad) 
 74f:	10 8f 02 42 0e 18    	adc    %cl,0x180e4202(%rdi)
 755:	8e 03                	mov    (%rbx),%es
 757:	45 0e                	rex.RB (bad) 
 759:	20 8d 04 42 0e 28    	and    %cl,0x280e4204(%rbp)
 75f:	8c 05 44 0e 30 86    	mov    %es,-0x79cff1bc(%rip)        # ffffffff863015a9 <lookup_hostname.constprop.1+0xffffffff862fcb99>
 765:	06                   	(bad)  
 766:	41 0e                	rex.B (bad) 
 768:	38 83 07 47 0e b0    	cmp    %al,-0x4ff1b8f9(%rbx)
 76e:	25 03 5b 04 0e       	and    $0xe045b03,%eax
 773:	b8 25 4c 0e c0       	mov    $0xc00e4c25,%eax
 778:	25 46 0e c8 25       	and    $0x25c80e46,%eax
 77d:	41 0e                	rex.B (bad) 
 77f:	d0 25 4b 0e d8 25    	shlb   0x25d80e4b(%rip)        # 25d815d0 <lookup_hostname.constprop.1+0x25d7cbc0>
 785:	47 0e                	rex.RXB (bad) 
 787:	e0 25                	loopne 7ae <.eh_frame+0x7ae>
 789:	48 0e                	rex.W (bad) 
 78b:	e8 25 41 0e f0       	callq  fffffffff00e48b5 <lookup_hostname.constprop.1+0xfffffffff00dfea5>
 790:	25 48 0e f8 25       	and    $0x25f80e48,%eax
 795:	41 0e                	rex.B (bad) 
 797:	80 26 46             	andb   $0x46,(%rsi)
 79a:	0e                   	(bad)  
 79b:	88 26                	mov    %ah,(%rsi)
 79d:	46 0e                	rex.RX (bad) 
 79f:	90                   	nop
 7a0:	26                   	es
 7a1:	49 0e                	rex.WB (bad) 
 7a3:	b0 25                	mov    $0x25,%al
 7a5:	00 00                	add    %al,(%rax)
 7a7:	00 10                	add    %dl,(%rax)
 7a9:	00 00                	add    %al,(%rax)
 7ab:	00 ac 07 00 00 00 00 	add    %ch,0x0(%rdi,%rax,1)
 7b2:	00 00                	add    %al,(%rax)
 7b4:	0f 00 00             	sldt   (%rax)
 7b7:	00 00                	add    %al,(%rax)
 7b9:	00 00                	add    %al,(%rax)
 7bb:	00 18                	add    %bl,(%rax)
 7bd:	00 00                	add    %al,(%rax)
 7bf:	00 c0                	add    %al,%al
 7c1:	07                   	(bad)  
 7c2:	00 00                	add    %al,(%rax)
 7c4:	00 00                	add    %al,(%rax)
 7c6:	00 00                	add    %al,(%rax)
 7c8:	1c 00                	sbb    $0x0,%al
 7ca:	00 00                	add    %al,(%rax)
 7cc:	00 44 0e 10          	add    %al,0x10(%rsi,%rcx,1)
 7d0:	53                   	push   %rbx
 7d1:	0e                   	(bad)  
 7d2:	08 00                	or     %al,(%rax)
 7d4:	00 00                	add    %al,(%rax)
	...
